
Firmware.elf:     file format elf32-littlearm

Sections:
Idx Name          Size      VMA       LMA       File off  Algn
  0 .isr_vector   00000188  08000000  08000000  00001000  2**0
                  CONTENTS, ALLOC, LOAD, READONLY, DATA
  1 .text         000059a0  08000190  08000190  00001190  2**4
                  CONTENTS, ALLOC, LOAD, READONLY, CODE
  2 .rodata       00000084  08005b30  08005b30  00006b30  2**2
                  CONTENTS, ALLOC, LOAD, READONLY, DATA
  3 .ARM.extab    00000000  08005bb4  08005bb4  00007010  2**0
                  CONTENTS, READONLY
  4 .ARM          00000000  08005bb4  08005bb4  00007010  2**0
                  CONTENTS, READONLY
  5 .preinit_array 00000000  08005bb4  08005bb4  00007010  2**0
                  CONTENTS, ALLOC, LOAD, DATA
  6 .init_array   00000004  08005bb4  08005bb4  00006bb4  2**2
                  CONTENTS, ALLOC, LOAD, READONLY, DATA
  7 .fini_array   00000004  08005bb8  08005bb8  00006bb8  2**2
                  CONTENTS, ALLOC, LOAD, READONLY, DATA
  8 .data         00000010  20000000  08005bbc  00007000  2**2
                  CONTENTS, ALLOC, LOAD, DATA
  9 .ccmram       00000000  10000000  10000000  00007010  2**0
                  CONTENTS
 10 .bss          000077bc  20000010  20000010  00007010  2**2
                  ALLOC
 11 ._user_heap_stack 00000604  200077cc  200077cc  00007010  2**0
                  ALLOC
 12 .ARM.attributes 00000030  00000000  00000000  00007010  2**0
                  CONTENTS, READONLY
 13 .comment      00000043  00000000  00000000  00007040  2**0
                  CONTENTS, READONLY
 14 .debug_frame  00000074  00000000  00000000  00007084  2**2
                  CONTENTS, READONLY, DEBUGGING, OCTETS

Disassembly of section .text:

08000190 <__do_global_dtors_aux>:
 8000190:	b510      	push	{r4, lr}
 8000192:	4c05      	ldr	r4, [pc, #20]	@ (80001a8 <__do_global_dtors_aux+0x18>)
 8000194:	7823      	ldrb	r3, [r4, #0]
 8000196:	b933      	cbnz	r3, 80001a6 <__do_global_dtors_aux+0x16>
 8000198:	4b04      	ldr	r3, [pc, #16]	@ (80001ac <__do_global_dtors_aux+0x1c>)
 800019a:	b113      	cbz	r3, 80001a2 <__do_global_dtors_aux+0x12>
 800019c:	4804      	ldr	r0, [pc, #16]	@ (80001b0 <__do_global_dtors_aux+0x20>)
 800019e:	f3af 8000 	nop.w
 80001a2:	2301      	movs	r3, #1
 80001a4:	7023      	strb	r3, [r4, #0]
 80001a6:	bd10      	pop	{r4, pc}
 80001a8:	20000010 	.word	0x20000010
 80001ac:	00000000 	.word	0x00000000
 80001b0:	08005b18 	.word	0x08005b18

080001b4 <frame_dummy>:
 80001b4:	b508      	push	{r3, lr}
 80001b6:	4b03      	ldr	r3, [pc, #12]	@ (80001c4 <frame_dummy+0x10>)
 80001b8:	b11b      	cbz	r3, 80001c2 <frame_dummy+0xe>
 80001ba:	4903      	ldr	r1, [pc, #12]	@ (80001c8 <frame_dummy+0x14>)
 80001bc:	4803      	ldr	r0, [pc, #12]	@ (80001cc <frame_dummy+0x18>)
 80001be:	f3af 8000 	nop.w
 80001c2:	bd08      	pop	{r3, pc}
 80001c4:	00000000 	.word	0x00000000
 80001c8:	20000014 	.word	0x20000014
 80001cc:	08005b18 	.word	0x08005b18

080001d0 <Default>:
 80001d0:	b508      	push	{r3, lr}
 80001d2:	2001      	movs	r0, #1
 80001d4:	f003 fef0 	bl	8003fb8 <osDelay>
 80001d8:	e7fb      	b.n	80001d2 <Default+0x2>
	...

080001dc <SystemClock_Config>:
 80001dc:	b510      	push	{r4, lr}
 80001de:	2410      	movs	r4, #16
 80001e0:	b09e      	sub	sp, #120	@ 0x78
 80001e2:	4622      	mov	r2, r4
 80001e4:	2100      	movs	r1, #0
 80001e6:	a808      	add	r0, sp, #32
 80001e8:	f005 fc5c 	bl	8005aa4 <memset>
 80001ec:	2214      	movs	r2, #20
 80001ee:	2100      	movs	r1, #0
 80001f0:	4668      	mov	r0, sp
 80001f2:	f005 fc57 	bl	8005aa4 <memset>
 80001f6:	223c      	movs	r2, #60	@ 0x3c
 80001f8:	eb0d 0002 	add.w	r0, sp, r2
 80001fc:	2100      	movs	r1, #0
 80001fe:	f005 fc51 	bl	8005aa4 <memset>
 8000202:	f44f 23a0 	mov.w	r3, #327680	@ 0x50000
 8000206:	2203      	movs	r2, #3
 8000208:	e9cd 2305 	strd	r2, r3, [sp, #20]
 800020c:	2301      	movs	r3, #1
 800020e:	e9cd 3409 	strd	r3, r4, [sp, #36]	@ 0x24
 8000212:	9307      	str	r3, [sp, #28]
 8000214:	2402      	movs	r4, #2
 8000216:	f44f 3380 	mov.w	r3, #65536	@ 0x10000
 800021a:	e9cd 430c 	strd	r4, r3, [sp, #48]	@ 0x30
 800021e:	a805      	add	r0, sp, #20
 8000220:	f44f 13e0 	mov.w	r3, #1835008	@ 0x1c0000
 8000224:	930e      	str	r3, [sp, #56]	@ 0x38
 8000226:	f002 f981 	bl	800252c <HAL_RCC_OscConfig>
 800022a:	b108      	cbz	r0, 8000230 <SystemClock_Config+0x54>
 800022c:	b672      	cpsid	i
 800022e:	e7fe      	b.n	800022e <SystemClock_Config+0x52>
 8000230:	230f      	movs	r3, #15
 8000232:	e9cd 3400 	strd	r3, r4, [sp]
 8000236:	f44f 6380 	mov.w	r3, #1024	@ 0x400
 800023a:	e9cd 3003 	strd	r3, r0, [sp, #12]
 800023e:	9002      	str	r0, [sp, #8]
 8000240:	4621      	mov	r1, r4
 8000242:	4668      	mov	r0, sp
 8000244:	f002 fbf8 	bl	8002a38 <HAL_RCC_ClockConfig>
 8000248:	b108      	cbz	r0, 800024e <SystemClock_Config+0x72>
 800024a:	b672      	cpsid	i
 800024c:	e7fe      	b.n	800024c <SystemClock_Config+0x70>
 800024e:	4b06      	ldr	r3, [pc, #24]	@ (8000268 <SystemClock_Config+0x8c>)
 8000250:	9017      	str	r0, [sp, #92]	@ 0x5c
 8000252:	901d      	str	r0, [sp, #116]	@ 0x74
 8000254:	a80f      	add	r0, sp, #60	@ 0x3c
 8000256:	930f      	str	r3, [sp, #60]	@ 0x3c
 8000258:	f002 fccc 	bl	8002bf4 <HAL_RCCEx_PeriphCLKConfig>
 800025c:	b108      	cbz	r0, 8000262 <SystemClock_Config+0x86>
 800025e:	b672      	cpsid	i
 8000260:	e7fe      	b.n	8000260 <SystemClock_Config+0x84>
 8000262:	b01e      	add	sp, #120	@ 0x78
 8000264:	bd10      	pop	{r4, pc}
 8000266:	bf00      	nop
 8000268:	00020040 	.word	0x00020040

0800026c <main>:
 800026c:	e92d 4880 	stmdb	sp!, {r7, fp, lr}
 8000270:	4db2      	ldr	r5, [pc, #712]	@ (800053c <main+0x2d0>)
 8000272:	b097      	sub	sp, #92	@ 0x5c
 8000274:	f000 ff40 	bl	80010f8 <HAL_Init>
 8000278:	f7ff ffb0 	bl	80001dc <SystemClock_Config>
 800027c:	2214      	movs	r2, #20
 800027e:	2100      	movs	r1, #0
 8000280:	a80f      	add	r0, sp, #60	@ 0x3c
 8000282:	f005 fc0f 	bl	8005aa4 <memset>
 8000286:	696b      	ldr	r3, [r5, #20]
 8000288:	48ad      	ldr	r0, [pc, #692]	@ (8000540 <main+0x2d4>)
 800028a:	f443 2300 	orr.w	r3, r3, #524288	@ 0x80000
 800028e:	616b      	str	r3, [r5, #20]
 8000290:	696b      	ldr	r3, [r5, #20]
 8000292:	f403 2300 	and.w	r3, r3, #524288	@ 0x80000
 8000296:	9304      	str	r3, [sp, #16]
 8000298:	9b04      	ldr	r3, [sp, #16]
 800029a:	696b      	ldr	r3, [r5, #20]
 800029c:	f443 0380 	orr.w	r3, r3, #4194304	@ 0x400000
 80002a0:	616b      	str	r3, [r5, #20]
 80002a2:	696b      	ldr	r3, [r5, #20]
 80002a4:	f403 0380 	and.w	r3, r3, #4194304	@ 0x400000
 80002a8:	9305      	str	r3, [sp, #20]
 80002aa:	9b05      	ldr	r3, [sp, #20]
 80002ac:	696b      	ldr	r3, [r5, #20]
 80002ae:	f443 3300 	orr.w	r3, r3, #131072	@ 0x20000
 80002b2:	616b      	str	r3, [r5, #20]
 80002b4:	696b      	ldr	r3, [r5, #20]
 80002b6:	f403 3300 	and.w	r3, r3, #131072	@ 0x20000
 80002ba:	9306      	str	r3, [sp, #24]
 80002bc:	9b06      	ldr	r3, [sp, #24]
 80002be:	696b      	ldr	r3, [r5, #20]
 80002c0:	f443 2380 	orr.w	r3, r3, #262144	@ 0x40000
 80002c4:	616b      	str	r3, [r5, #20]
 80002c6:	696b      	ldr	r3, [r5, #20]
 80002c8:	f403 2380 	and.w	r3, r3, #262144	@ 0x40000
 80002cc:	9307      	str	r3, [sp, #28]
 80002ce:	2200      	movs	r2, #0
 80002d0:	2102      	movs	r1, #2
 80002d2:	9b07      	ldr	r3, [sp, #28]
 80002d4:	f002 f830 	bl	8002338 <HAL_GPIO_WritePin>
 80002d8:	489a      	ldr	r0, [pc, #616]	@ (8000544 <main+0x2d8>)
 80002da:	2200      	movs	r2, #0
 80002dc:	f640 31f1 	movw	r1, #3057	@ 0xbf1
 80002e0:	f002 f82a 	bl	8002338 <HAL_GPIO_WritePin>
 80002e4:	2200      	movs	r2, #0
 80002e6:	f44f 71c0 	mov.w	r1, #384	@ 0x180
 80002ea:	f04f 4090 	mov.w	r0, #1207959552	@ 0x48000000
 80002ee:	f002 f823 	bl	8002338 <HAL_GPIO_WritePin>
 80002f2:	2200      	movs	r2, #0
 80002f4:	4894      	ldr	r0, [pc, #592]	@ (8000548 <main+0x2dc>)
 80002f6:	f44f 618a 	mov.w	r1, #1104	@ 0x450
 80002fa:	2400      	movs	r4, #0
 80002fc:	f002 f81c 	bl	8002338 <HAL_GPIO_WritePin>
 8000300:	f24e 030e 	movw	r3, #57358	@ 0xe00e
 8000304:	488f      	ldr	r0, [pc, #572]	@ (8000544 <main+0x2d8>)
 8000306:	9411      	str	r4, [sp, #68]	@ 0x44
 8000308:	a90f      	add	r1, sp, #60	@ 0x3c
 800030a:	2601      	movs	r6, #1
 800030c:	e9cd 340f 	strd	r3, r4, [sp, #60]	@ 0x3c
 8000310:	f04f 0a02 	mov.w	sl, #2
 8000314:	f001 ff4c 	bl	80021b0 <HAL_GPIO_Init>
 8000318:	4889      	ldr	r0, [pc, #548]	@ (8000540 <main+0x2d4>)
 800031a:	a90f      	add	r1, sp, #60	@ 0x3c
 800031c:	e9cd a60f 	strd	sl, r6, [sp, #60]	@ 0x3c
 8000320:	e9cd 4411 	strd	r4, r4, [sp, #68]	@ 0x44
 8000324:	f001 ff44 	bl	80021b0 <HAL_GPIO_Init>
 8000328:	f640 33f1 	movw	r3, #3057	@ 0xbf1
 800032c:	4885      	ldr	r0, [pc, #532]	@ (8000544 <main+0x2d8>)
 800032e:	a90f      	add	r1, sp, #60	@ 0x3c
 8000330:	e9cd 360f 	strd	r3, r6, [sp, #60]	@ 0x3c
 8000334:	e9cd 4411 	strd	r4, r4, [sp, #68]	@ 0x44
 8000338:	f001 ff3a 	bl	80021b0 <HAL_GPIO_Init>
 800033c:	f44f 73c0 	mov.w	r3, #384	@ 0x180
 8000340:	a90f      	add	r1, sp, #60	@ 0x3c
 8000342:	f04f 4090 	mov.w	r0, #1207959552	@ 0x48000000
 8000346:	e9cd 360f 	strd	r3, r6, [sp, #60]	@ 0x3c
 800034a:	e9cd 4411 	strd	r4, r4, [sp, #68]	@ 0x44
 800034e:	f001 ff2f 	bl	80021b0 <HAL_GPIO_Init>
 8000352:	f44f 638a 	mov.w	r3, #1104	@ 0x450
 8000356:	487c      	ldr	r0, [pc, #496]	@ (8000548 <main+0x2dc>)
 8000358:	a90f      	add	r1, sp, #60	@ 0x3c
 800035a:	e9cd 360f 	strd	r3, r6, [sp, #60]	@ 0x3c
 800035e:	e9cd 4411 	strd	r4, r4, [sp, #68]	@ 0x44
 8000362:	f001 ff25 	bl	80021b0 <HAL_GPIO_Init>
 8000366:	f44f 4300 	mov.w	r3, #32768	@ 0x8000
 800036a:	a90f      	add	r1, sp, #60	@ 0x3c
 800036c:	f04f 4090 	mov.w	r0, #1207959552	@ 0x48000000
 8000370:	e9cd 340f 	strd	r3, r4, [sp, #60]	@ 0x3c
 8000374:	9411      	str	r4, [sp, #68]	@ 0x44
 8000376:	f001 ff1b 	bl	80021b0 <HAL_GPIO_Init>
 800037a:	f44f 7360 	mov.w	r3, #896	@ 0x380
 800037e:	4872      	ldr	r0, [pc, #456]	@ (8000548 <main+0x2dc>)
 8000380:	9411      	str	r4, [sp, #68]	@ 0x44
 8000382:	a90f      	add	r1, sp, #60	@ 0x3c
 8000384:	e9cd 340f 	strd	r3, r4, [sp, #60]	@ 0x3c
 8000388:	f001 ff12 	bl	80021b0 <HAL_GPIO_Init>
 800038c:	696b      	ldr	r3, [r5, #20]
 800038e:	4333      	orrs	r3, r6
 8000390:	616b      	str	r3, [r5, #20]
 8000392:	696b      	ldr	r3, [r5, #20]
 8000394:	4033      	ands	r3, r6
 8000396:	9302      	str	r3, [sp, #8]
 8000398:	9b02      	ldr	r3, [sp, #8]
 800039a:	696b      	ldr	r3, [r5, #20]
 800039c:	ea43 030a 	orr.w	r3, r3, sl
 80003a0:	616b      	str	r3, [r5, #20]
 80003a2:	696b      	ldr	r3, [r5, #20]
 80003a4:	4d69      	ldr	r5, [pc, #420]	@ (800054c <main+0x2e0>)
 80003a6:	ea03 030a 	and.w	r3, r3, sl
 80003aa:	4622      	mov	r2, r4
 80003ac:	2105      	movs	r1, #5
 80003ae:	9303      	str	r3, [sp, #12]
 80003b0:	200b      	movs	r0, #11
 80003b2:	9b03      	ldr	r3, [sp, #12]
 80003b4:	f001 fddc 	bl	8001f70 <HAL_NVIC_SetPriority>
 80003b8:	200b      	movs	r0, #11
 80003ba:	f001 fe0b 	bl	8001fd4 <HAL_NVIC_EnableIRQ>
 80003be:	4622      	mov	r2, r4
 80003c0:	2105      	movs	r1, #5
 80003c2:	2038      	movs	r0, #56	@ 0x38
 80003c4:	f001 fdd4 	bl	8001f70 <HAL_NVIC_SetPriority>
 80003c8:	2038      	movs	r0, #56	@ 0x38
 80003ca:	f001 fe03 	bl	8001fd4 <HAL_NVIC_EnableIRQ>
 80003ce:	4622      	mov	r2, r4
 80003d0:	2105      	movs	r1, #5
 80003d2:	2039      	movs	r0, #57	@ 0x39
 80003d4:	f001 fdcc 	bl	8001f70 <HAL_NVIC_SetPriority>
 80003d8:	2039      	movs	r0, #57	@ 0x39
 80003da:	f001 fdfb 	bl	8001fd4 <HAL_NVIC_EnableIRQ>
 80003de:	4622      	mov	r2, r4
 80003e0:	2105      	movs	r1, #5
 80003e2:	203c      	movs	r0, #60	@ 0x3c
 80003e4:	f001 fdc4 	bl	8001f70 <HAL_NVIC_SetPriority>
 80003e8:	203c      	movs	r0, #60	@ 0x3c
 80003ea:	f001 fdf3 	bl	8001fd4 <HAL_NVIC_EnableIRQ>
 80003ee:	2218      	movs	r2, #24
 80003f0:	4621      	mov	r1, r4
 80003f2:	a80f      	add	r0, sp, #60	@ 0x3c
 80003f4:	e9cd 440b 	strd	r4, r4, [sp, #44]	@ 0x2c
 80003f8:	940d      	str	r4, [sp, #52]	@ 0x34
 80003fa:	f005 fb53 	bl	8005aa4 <memset>
 80003fe:	4b54      	ldr	r3, [pc, #336]	@ (8000550 <main+0x2e4>)
 8000400:	f885 4020 	strb.w	r4, [r5, #32]
 8000404:	f44f 6b80 	mov.w	fp, #1024	@ 0x400
 8000408:	f44f 3980 	mov.w	r9, #65536	@ 0x10000
 800040c:	f04f 0804 	mov.w	r8, #4
 8000410:	f44f 7780 	mov.w	r7, #256	@ 0x100
 8000414:	4628      	mov	r0, r5
 8000416:	e9c5 4b0a 	strd	r4, fp, [r5, #40]	@ 0x28
 800041a:	e9c5 3900 	strd	r3, r9, [r5]
 800041e:	e9c5 4402 	strd	r4, r4, [r5, #8]
 8000422:	61ee      	str	r6, [r5, #28]
 8000424:	f885 4030 	strb.w	r4, [r5, #48]	@ 0x30
 8000428:	612c      	str	r4, [r5, #16]
 800042a:	f8c5 8014 	str.w	r8, [r5, #20]
 800042e:	832f      	strh	r7, [r5, #24]
 8000430:	636c      	str	r4, [r5, #52]	@ 0x34
 8000432:	f000 ff75 	bl	8001320 <HAL_ADC_Init>
 8000436:	b108      	cbz	r0, 800043c <main+0x1d0>
 8000438:	b672      	cpsid	i
 800043a:	e7fe      	b.n	800043a <main+0x1ce>
 800043c:	900b      	str	r0, [sp, #44]	@ 0x2c
 800043e:	a90b      	add	r1, sp, #44	@ 0x2c
 8000440:	4628      	mov	r0, r5
 8000442:	f001 fc83 	bl	8001d4c <HAL_ADCEx_MultiModeConfigChannel>
 8000446:	b108      	cbz	r0, 800044c <main+0x1e0>
 8000448:	b672      	cpsid	i
 800044a:	e7fe      	b.n	800044a <main+0x1de>
 800044c:	e9cd 0011 	strd	r0, r0, [sp, #68]	@ 0x44
 8000450:	e9cd 0013 	strd	r0, r0, [sp, #76]	@ 0x4c
 8000454:	a90f      	add	r1, sp, #60	@ 0x3c
 8000456:	4628      	mov	r0, r5
 8000458:	e9cd 660f 	strd	r6, r6, [sp, #60]	@ 0x3c
 800045c:	f001 fb02 	bl	8001a64 <HAL_ADC_ConfigChannel>
 8000460:	4603      	mov	r3, r0
 8000462:	b108      	cbz	r0, 8000468 <main+0x1fc>
 8000464:	b672      	cpsid	i
 8000466:	e7fe      	b.n	8000466 <main+0x1fa>
 8000468:	483a      	ldr	r0, [pc, #232]	@ (8000554 <main+0x2e8>)
 800046a:	f8df e108 	ldr.w	lr, [pc, #264]	@ 8000574 <main+0x308>
 800046e:	6083      	str	r3, [r0, #8]
 8000470:	2240      	movs	r2, #64	@ 0x40
 8000472:	e9c0 e200 	strd	lr, r2, [r0]
 8000476:	f44f 3440 	mov.w	r4, #196608	@ 0x30000
 800047a:	f641 4204 	movw	r2, #7172	@ 0x1c04
 800047e:	e9c0 2303 	strd	r2, r3, [r0, #12]
 8000482:	e9c0 4305 	strd	r4, r3, [r0, #20]
 8000486:	e9c0 3307 	strd	r3, r3, [r0, #28]
 800048a:	6243      	str	r3, [r0, #36]	@ 0x24
 800048c:	f001 fce2 	bl	8001e54 <HAL_COMP_Init>
 8000490:	4603      	mov	r3, r0
 8000492:	b108      	cbz	r0, 8000498 <main+0x22c>
 8000494:	b672      	cpsid	i
 8000496:	e7fe      	b.n	8000496 <main+0x22a>
 8000498:	482f      	ldr	r0, [pc, #188]	@ (8000558 <main+0x2ec>)
 800049a:	4a30      	ldr	r2, [pc, #192]	@ (800055c <main+0x2f0>)
 800049c:	6083      	str	r3, [r0, #8]
 800049e:	2570      	movs	r5, #112	@ 0x70
 80004a0:	e9c0 2500 	strd	r2, r5, [r0]
 80004a4:	f242 4208 	movw	r2, #9224	@ 0x2408
 80004a8:	e9c0 2303 	strd	r2, r3, [r0, #12]
 80004ac:	e9c0 4305 	strd	r4, r3, [r0, #20]
 80004b0:	e9c0 3307 	strd	r3, r3, [r0, #28]
 80004b4:	6243      	str	r3, [r0, #36]	@ 0x24
 80004b6:	f001 fccd 	bl	8001e54 <HAL_COMP_Init>
 80004ba:	4602      	mov	r2, r0
 80004bc:	b108      	cbz	r0, 80004c2 <main+0x256>
 80004be:	b672      	cpsid	i
 80004c0:	e7fe      	b.n	80004c0 <main+0x254>
 80004c2:	4827      	ldr	r0, [pc, #156]	@ (8000560 <main+0x2f4>)
 80004c4:	f8df c0b0 	ldr.w	ip, [pc, #176]	@ 8000578 <main+0x30c>
 80004c8:	2350      	movs	r3, #80	@ 0x50
 80004ca:	e9c0 c300 	strd	ip, r3, [r0]
 80004ce:	f242 4110 	movw	r1, #9232	@ 0x2410
 80004d2:	2380      	movs	r3, #128	@ 0x80
 80004d4:	e9c0 3102 	strd	r3, r1, [r0, #8]
 80004d8:	e9c0 2404 	strd	r2, r4, [r0, #16]
 80004dc:	e9c0 2206 	strd	r2, r2, [r0, #24]
 80004e0:	e9c0 2208 	strd	r2, r2, [r0, #32]
 80004e4:	f001 fcb6 	bl	8001e54 <HAL_COMP_Init>
 80004e8:	2380      	movs	r3, #128	@ 0x80
 80004ea:	4602      	mov	r2, r0
 80004ec:	b108      	cbz	r0, 80004f2 <main+0x286>
 80004ee:	b672      	cpsid	i
 80004f0:	e7fe      	b.n	80004f0 <main+0x284>
 80004f2:	481c      	ldr	r0, [pc, #112]	@ (8000564 <main+0x2f8>)
 80004f4:	491c      	ldr	r1, [pc, #112]	@ (8000568 <main+0x2fc>)
 80004f6:	6083      	str	r3, [r0, #8]
 80004f8:	f642 4320 	movw	r3, #11296	@ 0x2c20
 80004fc:	e9c0 3203 	strd	r3, r2, [r0, #12]
 8000500:	e9c0 1500 	strd	r1, r5, [r0]
 8000504:	e9c0 4205 	strd	r4, r2, [r0, #20]
 8000508:	e9c0 2207 	strd	r2, r2, [r0, #28]
 800050c:	6242      	str	r2, [r0, #36]	@ 0x24
 800050e:	f001 fca1 	bl	8001e54 <HAL_COMP_Init>
 8000512:	4603      	mov	r3, r0
 8000514:	b108      	cbz	r0, 800051a <main+0x2ae>
 8000516:	b672      	cpsid	i
 8000518:	e7fe      	b.n	8000518 <main+0x2ac>
 800051a:	4814      	ldr	r0, [pc, #80]	@ (800056c <main+0x300>)
 800051c:	4a14      	ldr	r2, [pc, #80]	@ (8000570 <main+0x304>)
 800051e:	6002      	str	r2, [r0, #0]
 8000520:	f44f 7202 	mov.w	r2, #520	@ 0x208
 8000524:	8082      	strh	r2, [r0, #4]
 8000526:	f880 a007 	strb.w	sl, [r0, #7]
 800052a:	7243      	strb	r3, [r0, #9]
 800052c:	72c3      	strb	r3, [r0, #11]
 800052e:	f001 ffb1 	bl	8002494 <HAL_PCD_Init>
 8000532:	4605      	mov	r5, r0
 8000534:	b310      	cbz	r0, 800057c <main+0x310>
 8000536:	b672      	cpsid	i
 8000538:	e7fe      	b.n	8000538 <main+0x2cc>
 800053a:	bf00      	nop
 800053c:	40021000 	.word	0x40021000
 8000540:	48001400 	.word	0x48001400
 8000544:	48000800 	.word	0x48000800
 8000548:	48000400 	.word	0x48000400
 800054c:	20000938 	.word	0x20000938
 8000550:	50000400 	.word	0x50000400
 8000554:	200007a8 	.word	0x200007a8
 8000558:	20000778 	.word	0x20000778
 800055c:	40010028 	.word	0x40010028
 8000560:	20000748 	.word	0x20000748
 8000564:	20000718 	.word	0x20000718
 8000568:	40010030 	.word	0x40010030
 800056c:	20000290 	.word	0x20000290
 8000570:	40005c00 	.word	0x40005c00
 8000574:	40010024 	.word	0x40010024
 8000578:	4001002c 	.word	0x4001002c
 800057c:	4cae      	ldr	r4, [pc, #696]	@ (8000838 <main+0x5cc>)
 800057e:	900d      	str	r0, [sp, #52]	@ 0x34
 8000580:	e9cd 000b 	strd	r0, r0, [sp, #44]	@ 0x2c
 8000584:	4601      	mov	r1, r0
 8000586:	2218      	movs	r2, #24
 8000588:	a80f      	add	r0, sp, #60	@ 0x3c
 800058a:	f005 fa8b 	bl	8005aa4 <memset>
 800058e:	f44f 7370 	mov.w	r3, #960	@ 0x3c0
 8000592:	62a3      	str	r3, [r4, #40]	@ 0x28
 8000594:	4620      	mov	r0, r4
 8000596:	f04f 43a0 	mov.w	r3, #1342177280	@ 0x50000000
 800059a:	e9c4 3900 	strd	r3, r9, [r4]
 800059e:	e9c4 5502 	strd	r5, r5, [r4, #8]
 80005a2:	e9c4 5804 	strd	r5, r8, [r4, #16]
 80005a6:	f884 5020 	strb.w	r5, [r4, #32]
 80005aa:	f8c4 b02c 	str.w	fp, [r4, #44]	@ 0x2c
 80005ae:	61e6      	str	r6, [r4, #28]
 80005b0:	f884 5030 	strb.w	r5, [r4, #48]	@ 0x30
 80005b4:	8327      	strh	r7, [r4, #24]
 80005b6:	6365      	str	r5, [r4, #52]	@ 0x34
 80005b8:	f000 feb2 	bl	8001320 <HAL_ADC_Init>
 80005bc:	b108      	cbz	r0, 80005c2 <main+0x356>
 80005be:	b672      	cpsid	i
 80005c0:	e7fe      	b.n	80005c0 <main+0x354>
 80005c2:	900b      	str	r0, [sp, #44]	@ 0x2c
 80005c4:	a90b      	add	r1, sp, #44	@ 0x2c
 80005c6:	4620      	mov	r0, r4
 80005c8:	f001 fbc0 	bl	8001d4c <HAL_ADCEx_MultiModeConfigChannel>
 80005cc:	b108      	cbz	r0, 80005d2 <main+0x366>
 80005ce:	b672      	cpsid	i
 80005d0:	e7fe      	b.n	80005d0 <main+0x364>
 80005d2:	2305      	movs	r3, #5
 80005d4:	2501      	movs	r5, #1
 80005d6:	e9cd 350f 	strd	r3, r5, [sp, #60]	@ 0x3c
 80005da:	4897      	ldr	r0, [pc, #604]	@ (8000838 <main+0x5cc>)
 80005dc:	2300      	movs	r3, #0
 80005de:	a90f      	add	r1, sp, #60	@ 0x3c
 80005e0:	e9cd 3311 	strd	r3, r3, [sp, #68]	@ 0x44
 80005e4:	e9cd 3313 	strd	r3, r3, [sp, #76]	@ 0x4c
 80005e8:	f001 fa3c 	bl	8001a64 <HAL_ADC_ConfigChannel>
 80005ec:	4606      	mov	r6, r0
 80005ee:	b108      	cbz	r0, 80005f4 <main+0x388>
 80005f0:	b672      	cpsid	i
 80005f2:	e7fe      	b.n	80005f2 <main+0x386>
 80005f4:	4c91      	ldr	r4, [pc, #580]	@ (800083c <main+0x5d0>)
 80005f6:	4601      	mov	r1, r0
 80005f8:	2218      	movs	r2, #24
 80005fa:	a80f      	add	r0, sp, #60	@ 0x3c
 80005fc:	f005 fa52 	bl	8005aa4 <memset>
 8000600:	f44f 6a80 	mov.w	sl, #1024	@ 0x400
 8000604:	f44f 7370 	mov.w	r3, #960	@ 0x3c0
 8000608:	e9c4 3a0a 	strd	r3, sl, [r4, #40]	@ 0x28
 800060c:	4b8c      	ldr	r3, [pc, #560]	@ (8000840 <main+0x5d4>)
 800060e:	f884 6020 	strb.w	r6, [r4, #32]
 8000612:	f44f 3980 	mov.w	r9, #65536	@ 0x10000
 8000616:	f04f 0804 	mov.w	r8, #4
 800061a:	f44f 7780 	mov.w	r7, #256	@ 0x100
 800061e:	4620      	mov	r0, r4
 8000620:	e9c4 3900 	strd	r3, r9, [r4]
 8000624:	e9c4 6602 	strd	r6, r6, [r4, #8]
 8000628:	61e5      	str	r5, [r4, #28]
 800062a:	f884 6030 	strb.w	r6, [r4, #48]	@ 0x30
 800062e:	6126      	str	r6, [r4, #16]
 8000630:	f8c4 8014 	str.w	r8, [r4, #20]
 8000634:	8327      	strh	r7, [r4, #24]
 8000636:	6366      	str	r6, [r4, #52]	@ 0x34
 8000638:	f000 fe72 	bl	8001320 <HAL_ADC_Init>
 800063c:	b108      	cbz	r0, 8000642 <main+0x3d6>
 800063e:	b672      	cpsid	i
 8000640:	e7fe      	b.n	8000640 <main+0x3d4>
 8000642:	e9cd 0011 	strd	r0, r0, [sp, #68]	@ 0x44
 8000646:	e9cd 0013 	strd	r0, r0, [sp, #76]	@ 0x4c
 800064a:	2603      	movs	r6, #3
 800064c:	a90f      	add	r1, sp, #60	@ 0x3c
 800064e:	4620      	mov	r0, r4
 8000650:	e9cd 650f 	strd	r6, r5, [sp, #60]	@ 0x3c
 8000654:	f001 fa06 	bl	8001a64 <HAL_ADC_ConfigChannel>
 8000658:	4683      	mov	fp, r0
 800065a:	b108      	cbz	r0, 8000660 <main+0x3f4>
 800065c:	b672      	cpsid	i
 800065e:	e7fe      	b.n	800065e <main+0x3f2>
 8000660:	4c78      	ldr	r4, [pc, #480]	@ (8000844 <main+0x5d8>)
 8000662:	4601      	mov	r1, r0
 8000664:	2218      	movs	r2, #24
 8000666:	a80f      	add	r0, sp, #60	@ 0x3c
 8000668:	f005 fa1c 	bl	8005aa4 <memset>
 800066c:	4b76      	ldr	r3, [pc, #472]	@ (8000848 <main+0x5dc>)
 800066e:	f884 b020 	strb.w	fp, [r4, #32]
 8000672:	4620      	mov	r0, r4
 8000674:	e9c4 ba0a 	strd	fp, sl, [r4, #40]	@ 0x28
 8000678:	e9c4 3900 	strd	r3, r9, [r4]
 800067c:	e9c4 bb02 	strd	fp, fp, [r4, #8]
 8000680:	e9c4 b804 	strd	fp, r8, [r4, #16]
 8000684:	61e5      	str	r5, [r4, #28]
 8000686:	f884 b030 	strb.w	fp, [r4, #48]	@ 0x30
 800068a:	8327      	strh	r7, [r4, #24]
 800068c:	f8c4 b034 	str.w	fp, [r4, #52]	@ 0x34
 8000690:	f000 fe46 	bl	8001320 <HAL_ADC_Init>
 8000694:	b108      	cbz	r0, 800069a <main+0x42e>
 8000696:	b672      	cpsid	i
 8000698:	e7fe      	b.n	8000698 <main+0x42c>
 800069a:	e9cd 0011 	strd	r0, r0, [sp, #68]	@ 0x44
 800069e:	e9cd 0013 	strd	r0, r0, [sp, #76]	@ 0x4c
 80006a2:	a90f      	add	r1, sp, #60	@ 0x3c
 80006a4:	4620      	mov	r0, r4
 80006a6:	e9cd 650f 	strd	r6, r5, [sp, #60]	@ 0x3c
 80006aa:	f001 f9db 	bl	8001a64 <HAL_ADC_ConfigChannel>
 80006ae:	b108      	cbz	r0, 80006b4 <main+0x448>
 80006b0:	b672      	cpsid	i
 80006b2:	e7fe      	b.n	80006b2 <main+0x446>
 80006b4:	4c65      	ldr	r4, [pc, #404]	@ (800084c <main+0x5e0>)
 80006b6:	4b66      	ldr	r3, [pc, #408]	@ (8000850 <main+0x5e4>)
 80006b8:	4f66      	ldr	r7, [pc, #408]	@ (8000854 <main+0x5e8>)
 80006ba:	6220      	str	r0, [r4, #32]
 80006bc:	e9c4 0502 	strd	r0, r5, [r4, #8]
 80006c0:	e9c4 0004 	strd	r0, r0, [r4, #16]
 80006c4:	e9c4 0006 	strd	r0, r0, [r4, #24]
 80006c8:	4620      	mov	r0, r4
 80006ca:	e9c4 7300 	strd	r7, r3, [r4]
 80006ce:	f001 fe41 	bl	8002354 <HAL_I2C_Init>
 80006d2:	4601      	mov	r1, r0
 80006d4:	b108      	cbz	r0, 80006da <main+0x46e>
 80006d6:	b672      	cpsid	i
 80006d8:	e7fe      	b.n	80006d8 <main+0x46c>
 80006da:	4620      	mov	r0, r4
 80006dc:	f001 fe8f 	bl	80023fe <HAL_I2CEx_ConfigAnalogFilter>
 80006e0:	4601      	mov	r1, r0
 80006e2:	b108      	cbz	r0, 80006e8 <main+0x47c>
 80006e4:	b672      	cpsid	i
 80006e6:	e7fe      	b.n	80006e6 <main+0x47a>
 80006e8:	4620      	mov	r0, r4
 80006ea:	f001 feae 	bl	800244a <HAL_I2CEx_ConfigDigitalFilter>
 80006ee:	4603      	mov	r3, r0
 80006f0:	b108      	cbz	r0, 80006f6 <main+0x48a>
 80006f2:	b672      	cpsid	i
 80006f4:	e7fe      	b.n	80006f4 <main+0x488>
 80006f6:	4858      	ldr	r0, [pc, #352]	@ (8000858 <main+0x5ec>)
 80006f8:	4a58      	ldr	r2, [pc, #352]	@ (800085c <main+0x5f0>)
 80006fa:	6083      	str	r3, [r0, #8]
 80006fc:	2408      	movs	r4, #8
 80006fe:	f44f 7882 	mov.w	r8, #260	@ 0x104
 8000702:	f44f 7740 	mov.w	r7, #768	@ 0x300
 8000706:	f44f 7600 	mov.w	r6, #512	@ 0x200
 800070a:	2507      	movs	r5, #7
 800070c:	e9c0 7303 	strd	r7, r3, [r0, #12]
 8000710:	e9c0 3308 	strd	r3, r3, [r0, #32]
 8000714:	e9c0 530b 	strd	r5, r3, [r0, #44]	@ 0x2c
 8000718:	6143      	str	r3, [r0, #20]
 800071a:	6283      	str	r3, [r0, #40]	@ 0x28
 800071c:	e9c0 2800 	strd	r2, r8, [r0]
 8000720:	e9c0 6406 	strd	r6, r4, [r0, #24]
 8000724:	6344      	str	r4, [r0, #52]	@ 0x34
 8000726:	f002 fc3b 	bl	8002fa0 <HAL_SPI_Init>
 800072a:	4603      	mov	r3, r0
 800072c:	b108      	cbz	r0, 8000732 <main+0x4c6>
 800072e:	b672      	cpsid	i
 8000730:	e7fe      	b.n	8000730 <main+0x4c4>
 8000732:	484b      	ldr	r0, [pc, #300]	@ (8000860 <main+0x5f4>)
 8000734:	4a4b      	ldr	r2, [pc, #300]	@ (8000864 <main+0x5f8>)
 8000736:	e9c0 3702 	strd	r3, r7, [r0, #8]
 800073a:	e9c0 2800 	strd	r2, r8, [r0]
 800073e:	e9c0 3304 	strd	r3, r3, [r0, #16]
 8000742:	e9c0 6306 	strd	r6, r3, [r0, #24]
 8000746:	e9c0 3308 	strd	r3, r3, [r0, #32]
 800074a:	e9c0 350a 	strd	r3, r5, [r0, #40]	@ 0x28
 800074e:	e9c0 340c 	strd	r3, r4, [r0, #48]	@ 0x30
 8000752:	f002 fc25 	bl	8002fa0 <HAL_SPI_Init>
 8000756:	b108      	cbz	r0, 800075c <main+0x4f0>
 8000758:	b672      	cpsid	i
 800075a:	e7fe      	b.n	800075a <main+0x4ee>
 800075c:	2500      	movs	r5, #0
 800075e:	4c42      	ldr	r4, [pc, #264]	@ (8000868 <main+0x5fc>)
 8000760:	4e42      	ldr	r6, [pc, #264]	@ (800086c <main+0x600>)
 8000762:	950d      	str	r5, [sp, #52]	@ 0x34
 8000764:	221c      	movs	r2, #28
 8000766:	4629      	mov	r1, r5
 8000768:	a80f      	add	r0, sp, #60	@ 0x3c
 800076a:	e9cd 550b 	strd	r5, r5, [sp, #44]	@ 0x2c
 800076e:	f005 f999 	bl	8005aa4 <memset>
 8000772:	2347      	movs	r3, #71	@ 0x47
 8000774:	e9c4 6300 	strd	r6, r3, [r4]
 8000778:	4620      	mov	r0, r4
 800077a:	f64f 73ff 	movw	r3, #65535	@ 0xffff
 800077e:	e9c4 3503 	strd	r3, r5, [r4, #12]
 8000782:	60a5      	str	r5, [r4, #8]
 8000784:	61a5      	str	r5, [r4, #24]
 8000786:	f002 ffe9 	bl	800375c <HAL_TIM_OC_Init>
 800078a:	b108      	cbz	r0, 8000790 <main+0x524>
 800078c:	b672      	cpsid	i
 800078e:	e7fe      	b.n	800078e <main+0x522>
 8000790:	900b      	str	r0, [sp, #44]	@ 0x2c
 8000792:	900d      	str	r0, [sp, #52]	@ 0x34
 8000794:	a90b      	add	r1, sp, #44	@ 0x2c
 8000796:	4620      	mov	r0, r4
 8000798:	f003 fb1a 	bl	8003dd0 <HAL_TIMEx_MasterConfigSynchronization>
 800079c:	4602      	mov	r2, r0
 800079e:	b108      	cbz	r0, 80007a4 <main+0x538>
 80007a0:	b672      	cpsid	i
 80007a2:	e7fe      	b.n	80007a2 <main+0x536>
 80007a4:	230a      	movs	r3, #10
 80007a6:	9011      	str	r0, [sp, #68]	@ 0x44
 80007a8:	9013      	str	r0, [sp, #76]	@ 0x4c
 80007aa:	2610      	movs	r6, #16
 80007ac:	a90f      	add	r1, sp, #60	@ 0x3c
 80007ae:	4620      	mov	r0, r4
 80007b0:	e9cd 630f 	strd	r6, r3, [sp, #60]	@ 0x3c
 80007b4:	f003 f872 	bl	800389c <HAL_TIM_OC_ConfigChannel>
 80007b8:	4605      	mov	r5, r0
 80007ba:	b108      	cbz	r0, 80007c0 <main+0x554>
 80007bc:	b672      	cpsid	i
 80007be:	e7fe      	b.n	80007be <main+0x552>
 80007c0:	4601      	mov	r1, r0
 80007c2:	2214      	movs	r2, #20
 80007c4:	a80f      	add	r0, sp, #60	@ 0x3c
 80007c6:	f005 f96d 	bl	8005aa4 <memset>
 80007ca:	4632      	mov	r2, r6
 80007cc:	4629      	mov	r1, r5
 80007ce:	a80b      	add	r0, sp, #44	@ 0x2c
 80007d0:	4c27      	ldr	r4, [pc, #156]	@ (8000870 <main+0x604>)
 80007d2:	950a      	str	r5, [sp, #40]	@ 0x28
 80007d4:	e9cd 5508 	strd	r5, r5, [sp, #32]
 80007d8:	f005 f964 	bl	8005aa4 <memset>
 80007dc:	4b25      	ldr	r3, [pc, #148]	@ (8000874 <main+0x608>)
 80007de:	60a5      	str	r5, [r4, #8]
 80007e0:	e9c4 3500 	strd	r3, r5, [r4]
 80007e4:	4620      	mov	r0, r4
 80007e6:	f44f 53fa 	mov.w	r3, #8000	@ 0x1f40
 80007ea:	e9c4 3503 	strd	r3, r5, [r4, #12]
 80007ee:	61a5      	str	r5, [r4, #24]
 80007f0:	f002 ff84 	bl	80036fc <HAL_TIM_Base_Init>
 80007f4:	b108      	cbz	r0, 80007fa <main+0x58e>
 80007f6:	b672      	cpsid	i
 80007f8:	e7fe      	b.n	80007f8 <main+0x58c>
 80007fa:	4620      	mov	r0, r4
 80007fc:	f002 ffde 	bl	80037bc <HAL_TIM_IC_Init>
 8000800:	b108      	cbz	r0, 8000806 <main+0x59a>
 8000802:	b672      	cpsid	i
 8000804:	e7fe      	b.n	8000804 <main+0x598>
 8000806:	f44f 3580 	mov.w	r5, #65536	@ 0x10000
 800080a:	2320      	movs	r3, #32
 800080c:	a90f      	add	r1, sp, #60	@ 0x3c
 800080e:	4620      	mov	r0, r4
 8000810:	e9cd 530f 	strd	r5, r3, [sp, #60]	@ 0x3c
 8000814:	f003 f99c 	bl	8003b50 <HAL_TIM_SlaveConfigSynchro>
 8000818:	b108      	cbz	r0, 800081e <main+0x5b2>
 800081a:	b672      	cpsid	i
 800081c:	e7fe      	b.n	800081c <main+0x5b0>
 800081e:	2330      	movs	r3, #48	@ 0x30
 8000820:	9308      	str	r3, [sp, #32]
 8000822:	a908      	add	r1, sp, #32
 8000824:	2380      	movs	r3, #128	@ 0x80
 8000826:	4620      	mov	r0, r4
 8000828:	930a      	str	r3, [sp, #40]	@ 0x28
 800082a:	f003 fad1 	bl	8003dd0 <HAL_TIMEx_MasterConfigSynchronization>
 800082e:	4602      	mov	r2, r0
 8000830:	b310      	cbz	r0, 8000878 <main+0x60c>
 8000832:	b672      	cpsid	i
 8000834:	e7fe      	b.n	8000834 <main+0x5c8>
 8000836:	bf00      	nop
 8000838:	200009d8 	.word	0x200009d8
 800083c:	20000988 	.word	0x20000988
 8000840:	50000100 	.word	0x50000100
 8000844:	200008e8 	.word	0x200008e8
 8000848:	50000500 	.word	0x50000500
 800084c:	200006c4 	.word	0x200006c4
 8000850:	00201d2b 	.word	0x00201d2b
 8000854:	40005800 	.word	0x40005800
 8000858:	20000660 	.word	0x20000660
 800085c:	40013000 	.word	0x40013000
 8000860:	200005fc 	.word	0x200005fc
 8000864:	40003c00 	.word	0x40003c00
 8000868:	200005b0 	.word	0x200005b0
 800086c:	40000400 	.word	0x40000400
 8000870:	20000564 	.word	0x20000564
 8000874:	40000800 	.word	0x40000800
 8000878:	2103      	movs	r1, #3
 800087a:	230c      	movs	r3, #12
 800087c:	e9cd 130c 	strd	r1, r3, [sp, #48]	@ 0x30
 8000880:	900b      	str	r0, [sp, #44]	@ 0x2c
 8000882:	900e      	str	r0, [sp, #56]	@ 0x38
 8000884:	a90b      	add	r1, sp, #44	@ 0x2c
 8000886:	4620      	mov	r0, r4
 8000888:	f003 f86a 	bl	8003960 <HAL_TIM_IC_ConfigChannel>
 800088c:	b108      	cbz	r0, 8000892 <main+0x626>
 800088e:	b672      	cpsid	i
 8000890:	e7fe      	b.n	8000890 <main+0x624>
 8000892:	2204      	movs	r2, #4
 8000894:	a90b      	add	r1, sp, #44	@ 0x2c
 8000896:	4620      	mov	r0, r4
 8000898:	f003 f862 	bl	8003960 <HAL_TIM_IC_ConfigChannel>
 800089c:	b108      	cbz	r0, 80008a2 <main+0x636>
 800089e:	b672      	cpsid	i
 80008a0:	e7fe      	b.n	80008a0 <main+0x634>
 80008a2:	2208      	movs	r2, #8
 80008a4:	a90b      	add	r1, sp, #44	@ 0x2c
 80008a6:	4620      	mov	r0, r4
 80008a8:	f003 f85a 	bl	8003960 <HAL_TIM_IC_ConfigChannel>
 80008ac:	b108      	cbz	r0, 80008b2 <main+0x646>
 80008ae:	b672      	cpsid	i
 80008b0:	e7fe      	b.n	80008b0 <main+0x644>
 80008b2:	4810      	ldr	r0, [pc, #64]	@ (80008f4 <main+0x688>)
 80008b4:	220c      	movs	r2, #12
 80008b6:	a90b      	add	r1, sp, #44	@ 0x2c
 80008b8:	f003 f852 	bl	8003960 <HAL_TIM_IC_ConfigChannel>
 80008bc:	4604      	mov	r4, r0
 80008be:	b108      	cbz	r0, 80008c4 <main+0x658>
 80008c0:	b672      	cpsid	i
 80008c2:	e7fe      	b.n	80008c2 <main+0x656>
 80008c4:	f003 fae4 	bl	8003e90 <osKernelInitialize>
 80008c8:	4a0b      	ldr	r2, [pc, #44]	@ (80008f8 <main+0x68c>)
 80008ca:	480c      	ldr	r0, [pc, #48]	@ (80008fc <main+0x690>)
 80008cc:	4621      	mov	r1, r4
 80008ce:	f003 fb1b 	bl	8003f08 <osThreadNew>
 80008d2:	4b0b      	ldr	r3, [pc, #44]	@ (8000900 <main+0x694>)
 80008d4:	490b      	ldr	r1, [pc, #44]	@ (8000904 <main+0x698>)
 80008d6:	6018      	str	r0, [r3, #0]
 80008d8:	4b0b      	ldr	r3, [pc, #44]	@ (8000908 <main+0x69c>)
 80008da:	9301      	str	r3, [sp, #4]
 80008dc:	2302      	movs	r3, #2
 80008de:	9300      	str	r3, [sp, #0]
 80008e0:	f44f 5280 	mov.w	r2, #4096	@ 0x1000
 80008e4:	4623      	mov	r3, r4
 80008e6:	4809      	ldr	r0, [pc, #36]	@ (800090c <main+0x6a0>)
 80008e8:	f004 f862 	bl	80049b0 <xTaskCreate>
 80008ec:	f003 faec 	bl	8003ec8 <osKernelStart>
 80008f0:	e7fe      	b.n	80008f0 <main+0x684>
 80008f2:	bf00      	nop
 80008f4:	20000564 	.word	0x20000564
 80008f8:	08005b58 	.word	0x08005b58
 80008fc:	080001d1 	.word	0x080001d1
 8000900:	2000028c 	.word	0x2000028c
 8000904:	08005b30 	.word	0x08005b30
 8000908:	2000002c 	.word	0x2000002c
 800090c:	080009c9 	.word	0x080009c9

08000910 <HAL_TIM_PeriodElapsedCallback>:
 8000910:	6802      	ldr	r2, [r0, #0]
 8000912:	4b03      	ldr	r3, [pc, #12]	@ (8000920 <HAL_TIM_PeriodElapsedCallback+0x10>)
 8000914:	429a      	cmp	r2, r3
 8000916:	d101      	bne.n	800091c <HAL_TIM_PeriodElapsedCallback+0xc>
 8000918:	f000 bc00 	b.w	800111c <HAL_IncTick>
 800091c:	4770      	bx	lr
 800091e:	bf00      	nop
 8000920:	40012c00 	.word	0x40012c00

08000924 <Error_Handler>:
 8000924:	b672      	cpsid	i
 8000926:	e7fe      	b.n	8000926 <Error_Handler+0x2>

08000928 <measure_start_collection>:
 8000928:	b537      	push	{r0, r1, r2, r4, r5, lr}
 800092a:	2401      	movs	r4, #1
 800092c:	08c9      	lsrs	r1, r1, #3
 800092e:	fa04 f101 	lsl.w	r1, r4, r1
 8000932:	2204      	movs	r2, #4
 8000934:	f44f 737a 	mov.w	r3, #1000	@ 0x3e8
 8000938:	9101      	str	r1, [sp, #4]
 800093a:	4605      	mov	r5, r0
 800093c:	eb0d 0102 	add.w	r1, sp, r2
 8000940:	481c      	ldr	r0, [pc, #112]	@ (80009b4 <measure_start_collection+0x8c>)
 8000942:	f002 fb9b 	bl	800307c <HAL_SPI_Transmit>
 8000946:	4622      	mov	r2, r4
 8000948:	481b      	ldr	r0, [pc, #108]	@ (80009b8 <measure_start_collection+0x90>)
 800094a:	2140      	movs	r1, #64	@ 0x40
 800094c:	f001 fcf4 	bl	8002338 <HAL_GPIO_WritePin>
 8000950:	4819      	ldr	r0, [pc, #100]	@ (80009b8 <measure_start_collection+0x90>)
 8000952:	2200      	movs	r2, #0
 8000954:	2140      	movs	r1, #64	@ 0x40
 8000956:	f001 fcef 	bl	8002338 <HAL_GPIO_WritePin>
 800095a:	4622      	mov	r2, r4
 800095c:	f44f 7180 	mov.w	r1, #256	@ 0x100
 8000960:	f04f 4090 	mov.w	r0, #1207959552	@ 0x48000000
 8000964:	f001 fce8 	bl	8002338 <HAL_GPIO_WritePin>
 8000968:	2437      	movs	r4, #55	@ 0x37
 800096a:	bf00      	nop
 800096c:	3c01      	subs	r4, #1
 800096e:	f014 04ff 	ands.w	r4, r4, #255	@ 0xff
 8000972:	d1fa      	bne.n	800096a <measure_start_collection+0x42>
 8000974:	4622      	mov	r2, r4
 8000976:	f44f 7180 	mov.w	r1, #256	@ 0x100
 800097a:	f04f 4090 	mov.w	r0, #1207959552	@ 0x48000000
 800097e:	f001 fcdb 	bl	8002338 <HAL_GPIO_WritePin>
 8000982:	480e      	ldr	r0, [pc, #56]	@ (80009bc <measure_start_collection+0x94>)
 8000984:	f002 fd5a 	bl	800343c <HAL_TIM_Base_Start>
 8000988:	4621      	mov	r1, r4
 800098a:	480c      	ldr	r0, [pc, #48]	@ (80009bc <measure_start_collection+0x94>)
 800098c:	f003 f916 	bl	8003bbc <HAL_TIM_OC_Start>
 8000990:	210c      	movs	r1, #12
 8000992:	480b      	ldr	r0, [pc, #44]	@ (80009c0 <measure_start_collection+0x98>)
 8000994:	f003 f998 	bl	8003cc8 <HAL_TIM_IC_Start>
 8000998:	480a      	ldr	r0, [pc, #40]	@ (80009c4 <measure_start_collection+0x9c>)
 800099a:	f44f 7200 	mov.w	r2, #512	@ 0x200
 800099e:	1ca9      	adds	r1, r5, #2
 80009a0:	f000 fdda 	bl	8001558 <HAL_ADC_Start_DMA>
 80009a4:	b920      	cbnz	r0, 80009b0 <measure_start_collection+0x88>
 80009a6:	2180      	movs	r1, #128	@ 0x80
 80009a8:	f04f 4090 	mov.w	r0, #1207959552	@ 0x48000000
 80009ac:	f001 fcc9 	bl	8002342 <HAL_GPIO_TogglePin>
 80009b0:	b003      	add	sp, #12
 80009b2:	bd30      	pop	{r4, r5, pc}
 80009b4:	20000660 	.word	0x20000660
 80009b8:	48000400 	.word	0x48000400
 80009bc:	200005b0 	.word	0x200005b0
 80009c0:	20000564 	.word	0x20000564
 80009c4:	200008e8 	.word	0x200008e8

080009c8 <measure>:
 80009c8:	b510      	push	{r4, lr}
 80009ca:	f004 faa1 	bl	8004f10 <xTaskGetCurrentTaskHandle>
 80009ce:	4b09      	ldr	r3, [pc, #36]	@ (80009f4 <measure+0x2c>)
 80009d0:	4c09      	ldr	r4, [pc, #36]	@ (80009f8 <measure+0x30>)
 80009d2:	6018      	str	r0, [r3, #0]
 80009d4:	2300      	movs	r3, #0
 80009d6:	2202      	movs	r2, #2
 80009d8:	4619      	mov	r1, r3
 80009da:	f004 fb23 	bl	8005024 <xTaskGenericNotify>
 80009de:	f04f 31ff 	mov.w	r1, #4294967295	@ 0xffffffff
 80009e2:	2000      	movs	r0, #0
 80009e4:	f004 faec 	bl	8004fc0 <ulTaskNotifyTake>
 80009e8:	2100      	movs	r1, #0
 80009ea:	4620      	mov	r0, r4
 80009ec:	f7ff ff9c 	bl	8000928 <measure_start_collection>
 80009f0:	e7f5      	b.n	80009de <measure+0x16>
 80009f2:	bf00      	nop
 80009f4:	20001a2c 	.word	0x20001a2c
 80009f8:	20000a28 	.word	0x20000a28

080009fc <HAL_ADC_ConvCpltCallback>:
 80009fc:	b508      	push	{r3, lr}
 80009fe:	4807      	ldr	r0, [pc, #28]	@ (8000a1c <HAL_ADC_ConvCpltCallback+0x20>)
 8000a00:	f000 fe52 	bl	80016a8 <HAL_ADC_Stop_DMA>
 8000a04:	4b06      	ldr	r3, [pc, #24]	@ (8000a20 <HAL_ADC_ConvCpltCallback+0x24>)
 8000a06:	2100      	movs	r1, #0
 8000a08:	6818      	ldr	r0, [r3, #0]
 8000a0a:	f004 fb71 	bl	80050f0 <vTaskNotifyGiveFromISR>
 8000a0e:	e8bd 4008 	ldmia.w	sp!, {r3, lr}
 8000a12:	2180      	movs	r1, #128	@ 0x80
 8000a14:	f04f 4090 	mov.w	r0, #1207959552	@ 0x48000000
 8000a18:	f001 bc93 	b.w	8002342 <HAL_GPIO_TogglePin>
 8000a1c:	200008e8 	.word	0x200008e8
 8000a20:	20001a2c 	.word	0x20001a2c

08000a24 <HAL_MspInit>:
 8000a24:	4b0d      	ldr	r3, [pc, #52]	@ (8000a5c <HAL_MspInit+0x38>)
 8000a26:	699a      	ldr	r2, [r3, #24]
 8000a28:	f042 0201 	orr.w	r2, r2, #1
 8000a2c:	b082      	sub	sp, #8
 8000a2e:	619a      	str	r2, [r3, #24]
 8000a30:	699a      	ldr	r2, [r3, #24]
 8000a32:	f002 0201 	and.w	r2, r2, #1
 8000a36:	9200      	str	r2, [sp, #0]
 8000a38:	9a00      	ldr	r2, [sp, #0]
 8000a3a:	69da      	ldr	r2, [r3, #28]
 8000a3c:	f042 5280 	orr.w	r2, r2, #268435456	@ 0x10000000
 8000a40:	61da      	str	r2, [r3, #28]
 8000a42:	69db      	ldr	r3, [r3, #28]
 8000a44:	f003 5380 	and.w	r3, r3, #268435456	@ 0x10000000
 8000a48:	9301      	str	r3, [sp, #4]
 8000a4a:	9b01      	ldr	r3, [sp, #4]
 8000a4c:	2200      	movs	r2, #0
 8000a4e:	210f      	movs	r1, #15
 8000a50:	f06f 0001 	mvn.w	r0, #1
 8000a54:	b002      	add	sp, #8
 8000a56:	f001 ba8b 	b.w	8001f70 <HAL_NVIC_SetPriority>
 8000a5a:	bf00      	nop
 8000a5c:	40021000 	.word	0x40021000

08000a60 <HAL_ADC_MspInit>:
 8000a60:	b570      	push	{r4, r5, r6, lr}
 8000a62:	4605      	mov	r5, r0
 8000a64:	b08e      	sub	sp, #56	@ 0x38
 8000a66:	2214      	movs	r2, #20
 8000a68:	2100      	movs	r1, #0
 8000a6a:	a809      	add	r0, sp, #36	@ 0x24
 8000a6c:	f005 f81a 	bl	8005aa4 <memset>
 8000a70:	682b      	ldr	r3, [r5, #0]
 8000a72:	f1b3 4fa0 	cmp.w	r3, #1342177280	@ 0x50000000
 8000a76:	d145      	bne.n	8000b04 <HAL_ADC_MspInit+0xa4>
 8000a78:	4a7b      	ldr	r2, [pc, #492]	@ (8000c68 <HAL_ADC_MspInit+0x208>)
 8000a7a:	6813      	ldr	r3, [r2, #0]
 8000a7c:	3301      	adds	r3, #1
 8000a7e:	2b01      	cmp	r3, #1
 8000a80:	6013      	str	r3, [r2, #0]
 8000a82:	4b7a      	ldr	r3, [pc, #488]	@ (8000c6c <HAL_ADC_MspInit+0x20c>)
 8000a84:	d108      	bne.n	8000a98 <HAL_ADC_MspInit+0x38>
 8000a86:	695a      	ldr	r2, [r3, #20]
 8000a88:	f042 5280 	orr.w	r2, r2, #268435456	@ 0x10000000
 8000a8c:	615a      	str	r2, [r3, #20]
 8000a8e:	695a      	ldr	r2, [r3, #20]
 8000a90:	f002 5280 	and.w	r2, r2, #268435456	@ 0x10000000
 8000a94:	9201      	str	r2, [sp, #4]
 8000a96:	9a01      	ldr	r2, [sp, #4]
 8000a98:	695a      	ldr	r2, [r3, #20]
 8000a9a:	4875      	ldr	r0, [pc, #468]	@ (8000c70 <HAL_ADC_MspInit+0x210>)
 8000a9c:	4c75      	ldr	r4, [pc, #468]	@ (8000c74 <HAL_ADC_MspInit+0x214>)
 8000a9e:	f442 0280 	orr.w	r2, r2, #4194304	@ 0x400000
 8000aa2:	615a      	str	r2, [r3, #20]
 8000aa4:	695b      	ldr	r3, [r3, #20]
 8000aa6:	f403 0380 	and.w	r3, r3, #4194304	@ 0x400000
 8000aaa:	9302      	str	r3, [sp, #8]
 8000aac:	9b02      	ldr	r3, [sp, #8]
 8000aae:	2110      	movs	r1, #16
 8000ab0:	2303      	movs	r3, #3
 8000ab2:	e9cd 1309 	strd	r1, r3, [sp, #36]	@ 0x24
 8000ab6:	a909      	add	r1, sp, #36	@ 0x24
 8000ab8:	f001 fb7a 	bl	80021b0 <HAL_GPIO_Init>
 8000abc:	4b6e      	ldr	r3, [pc, #440]	@ (8000c78 <HAL_ADC_MspInit+0x218>)
 8000abe:	6023      	str	r3, [r4, #0]
 8000ac0:	f44f 7280 	mov.w	r2, #256	@ 0x100
 8000ac4:	f04f 0e80 	mov.w	lr, #128	@ 0x80
 8000ac8:	2300      	movs	r3, #0
 8000aca:	e9c4 e203 	strd	lr, r2, [r4, #12]
 8000ace:	f44f 6280 	mov.w	r2, #1024	@ 0x400
 8000ad2:	e9c4 3301 	strd	r3, r3, [r4, #4]
 8000ad6:	e9c4 2305 	strd	r2, r3, [r4, #20]
 8000ada:	f44f 5380 	mov.w	r3, #4096	@ 0x1000
 8000ade:	61e3      	str	r3, [r4, #28]
 8000ae0:	4620      	mov	r0, r4
 8000ae2:	f001 faa5 	bl	8002030 <HAL_DMA_Init>
 8000ae6:	b108      	cbz	r0, 8000aec <HAL_ADC_MspInit+0x8c>
 8000ae8:	f7ff ff1c 	bl	8000924 <Error_Handler>
 8000aec:	63ac      	str	r4, [r5, #56]	@ 0x38
 8000aee:	2012      	movs	r0, #18
 8000af0:	6265      	str	r5, [r4, #36]	@ 0x24
 8000af2:	2200      	movs	r2, #0
 8000af4:	2105      	movs	r1, #5
 8000af6:	f001 fa3b 	bl	8001f70 <HAL_NVIC_SetPriority>
 8000afa:	2012      	movs	r0, #18
 8000afc:	f001 fa6a 	bl	8001fd4 <HAL_NVIC_EnableIRQ>
 8000b00:	b00e      	add	sp, #56	@ 0x38
 8000b02:	bd70      	pop	{r4, r5, r6, pc}
 8000b04:	4a5d      	ldr	r2, [pc, #372]	@ (8000c7c <HAL_ADC_MspInit+0x21c>)
 8000b06:	4293      	cmp	r3, r2
 8000b08:	d124      	bne.n	8000b54 <HAL_ADC_MspInit+0xf4>
 8000b0a:	4a57      	ldr	r2, [pc, #348]	@ (8000c68 <HAL_ADC_MspInit+0x208>)
 8000b0c:	6813      	ldr	r3, [r2, #0]
 8000b0e:	3301      	adds	r3, #1
 8000b10:	2b01      	cmp	r3, #1
 8000b12:	6013      	str	r3, [r2, #0]
 8000b14:	4b55      	ldr	r3, [pc, #340]	@ (8000c6c <HAL_ADC_MspInit+0x20c>)
 8000b16:	d108      	bne.n	8000b2a <HAL_ADC_MspInit+0xca>
 8000b18:	695a      	ldr	r2, [r3, #20]
 8000b1a:	f042 5280 	orr.w	r2, r2, #268435456	@ 0x10000000
 8000b1e:	615a      	str	r2, [r3, #20]
 8000b20:	695a      	ldr	r2, [r3, #20]
 8000b22:	f002 5280 	and.w	r2, r2, #268435456	@ 0x10000000
 8000b26:	9203      	str	r2, [sp, #12]
 8000b28:	9a03      	ldr	r2, [sp, #12]
 8000b2a:	695a      	ldr	r2, [r3, #20]
 8000b2c:	4c54      	ldr	r4, [pc, #336]	@ (8000c80 <HAL_ADC_MspInit+0x220>)
 8000b2e:	f442 3200 	orr.w	r2, r2, #131072	@ 0x20000
 8000b32:	615a      	str	r2, [r3, #20]
 8000b34:	695b      	ldr	r3, [r3, #20]
 8000b36:	f403 3300 	and.w	r3, r3, #131072	@ 0x20000
 8000b3a:	9304      	str	r3, [sp, #16]
 8000b3c:	9b04      	ldr	r3, [sp, #16]
 8000b3e:	2240      	movs	r2, #64	@ 0x40
 8000b40:	2303      	movs	r3, #3
 8000b42:	a909      	add	r1, sp, #36	@ 0x24
 8000b44:	f04f 4090 	mov.w	r0, #1207959552	@ 0x48000000
 8000b48:	e9cd 2309 	strd	r2, r3, [sp, #36]	@ 0x24
 8000b4c:	f001 fb30 	bl	80021b0 <HAL_GPIO_Init>
 8000b50:	4b4c      	ldr	r3, [pc, #304]	@ (8000c84 <HAL_ADC_MspInit+0x224>)
 8000b52:	e7b4      	b.n	8000abe <HAL_ADC_MspInit+0x5e>
 8000b54:	4a4c      	ldr	r2, [pc, #304]	@ (8000c88 <HAL_ADC_MspInit+0x228>)
 8000b56:	4293      	cmp	r3, r2
 8000b58:	d142      	bne.n	8000be0 <HAL_ADC_MspInit+0x180>
 8000b5a:	4a4c      	ldr	r2, [pc, #304]	@ (8000c8c <HAL_ADC_MspInit+0x22c>)
 8000b5c:	6813      	ldr	r3, [r2, #0]
 8000b5e:	3301      	adds	r3, #1
 8000b60:	2b01      	cmp	r3, #1
 8000b62:	6013      	str	r3, [r2, #0]
 8000b64:	4b41      	ldr	r3, [pc, #260]	@ (8000c6c <HAL_ADC_MspInit+0x20c>)
 8000b66:	d108      	bne.n	8000b7a <HAL_ADC_MspInit+0x11a>
 8000b68:	695a      	ldr	r2, [r3, #20]
 8000b6a:	f042 5200 	orr.w	r2, r2, #536870912	@ 0x20000000
 8000b6e:	615a      	str	r2, [r3, #20]
 8000b70:	695a      	ldr	r2, [r3, #20]
 8000b72:	f002 5200 	and.w	r2, r2, #536870912	@ 0x20000000
 8000b76:	9205      	str	r2, [sp, #20]
 8000b78:	9a05      	ldr	r2, [sp, #20]
 8000b7a:	695a      	ldr	r2, [r3, #20]
 8000b7c:	4c44      	ldr	r4, [pc, #272]	@ (8000c90 <HAL_ADC_MspInit+0x230>)
 8000b7e:	4e45      	ldr	r6, [pc, #276]	@ (8000c94 <HAL_ADC_MspInit+0x234>)
 8000b80:	f442 2280 	orr.w	r2, r2, #262144	@ 0x40000
 8000b84:	615a      	str	r2, [r3, #20]
 8000b86:	695b      	ldr	r3, [r3, #20]
 8000b88:	f403 2380 	and.w	r3, r3, #262144	@ 0x40000
 8000b8c:	9306      	str	r3, [sp, #24]
 8000b8e:	9b06      	ldr	r3, [sp, #24]
 8000b90:	2002      	movs	r0, #2
 8000b92:	2303      	movs	r3, #3
 8000b94:	e9cd 0309 	strd	r0, r3, [sp, #36]	@ 0x24
 8000b98:	a909      	add	r1, sp, #36	@ 0x24
 8000b9a:	483f      	ldr	r0, [pc, #252]	@ (8000c98 <HAL_ADC_MspInit+0x238>)
 8000b9c:	f001 fb08 	bl	80021b0 <HAL_GPIO_Init>
 8000ba0:	f44f 7280 	mov.w	r2, #256	@ 0x100
 8000ba4:	f04f 0c80 	mov.w	ip, #128	@ 0x80
 8000ba8:	2300      	movs	r3, #0
 8000baa:	e9c4 c203 	strd	ip, r2, [r4, #12]
 8000bae:	f44f 6280 	mov.w	r2, #1024	@ 0x400
 8000bb2:	e9c4 6300 	strd	r6, r3, [r4]
 8000bb6:	e9c4 2305 	strd	r2, r3, [r4, #20]
 8000bba:	60a3      	str	r3, [r4, #8]
 8000bbc:	4620      	mov	r0, r4
 8000bbe:	f44f 5380 	mov.w	r3, #4096	@ 0x1000
 8000bc2:	61e3      	str	r3, [r4, #28]
 8000bc4:	f001 fa34 	bl	8002030 <HAL_DMA_Init>
 8000bc8:	b108      	cbz	r0, 8000bce <HAL_ADC_MspInit+0x16e>
 8000bca:	f7ff feab 	bl	8000924 <Error_Handler>
 8000bce:	202f      	movs	r0, #47	@ 0x2f
 8000bd0:	63ac      	str	r4, [r5, #56]	@ 0x38
 8000bd2:	2200      	movs	r2, #0
 8000bd4:	2105      	movs	r1, #5
 8000bd6:	6265      	str	r5, [r4, #36]	@ 0x24
 8000bd8:	f001 f9ca 	bl	8001f70 <HAL_NVIC_SetPriority>
 8000bdc:	202f      	movs	r0, #47	@ 0x2f
 8000bde:	e78d      	b.n	8000afc <HAL_ADC_MspInit+0x9c>
 8000be0:	4a2e      	ldr	r2, [pc, #184]	@ (8000c9c <HAL_ADC_MspInit+0x23c>)
 8000be2:	4293      	cmp	r3, r2
 8000be4:	d18c      	bne.n	8000b00 <HAL_ADC_MspInit+0xa0>
 8000be6:	4a29      	ldr	r2, [pc, #164]	@ (8000c8c <HAL_ADC_MspInit+0x22c>)
 8000be8:	6813      	ldr	r3, [r2, #0]
 8000bea:	3301      	adds	r3, #1
 8000bec:	2b01      	cmp	r3, #1
 8000bee:	6013      	str	r3, [r2, #0]
 8000bf0:	4b1e      	ldr	r3, [pc, #120]	@ (8000c6c <HAL_ADC_MspInit+0x20c>)
 8000bf2:	d108      	bne.n	8000c06 <HAL_ADC_MspInit+0x1a6>
 8000bf4:	695a      	ldr	r2, [r3, #20]
 8000bf6:	f042 5200 	orr.w	r2, r2, #536870912	@ 0x20000000
 8000bfa:	615a      	str	r2, [r3, #20]
 8000bfc:	695a      	ldr	r2, [r3, #20]
 8000bfe:	f002 5200 	and.w	r2, r2, #536870912	@ 0x20000000
 8000c02:	9207      	str	r2, [sp, #28]
 8000c04:	9a07      	ldr	r2, [sp, #28]
 8000c06:	695a      	ldr	r2, [r3, #20]
 8000c08:	4823      	ldr	r0, [pc, #140]	@ (8000c98 <HAL_ADC_MspInit+0x238>)
 8000c0a:	4c25      	ldr	r4, [pc, #148]	@ (8000ca0 <HAL_ADC_MspInit+0x240>)
 8000c0c:	f442 2280 	orr.w	r2, r2, #262144	@ 0x40000
 8000c10:	615a      	str	r2, [r3, #20]
 8000c12:	695b      	ldr	r3, [r3, #20]
 8000c14:	f403 2380 	and.w	r3, r3, #262144	@ 0x40000
 8000c18:	9308      	str	r3, [sp, #32]
 8000c1a:	9b08      	ldr	r3, [sp, #32]
 8000c1c:	f44f 5680 	mov.w	r6, #4096	@ 0x1000
 8000c20:	2303      	movs	r3, #3
 8000c22:	a909      	add	r1, sp, #36	@ 0x24
 8000c24:	e9cd 6309 	strd	r6, r3, [sp, #36]	@ 0x24
 8000c28:	f001 fac2 	bl	80021b0 <HAL_GPIO_Init>
 8000c2c:	4a1d      	ldr	r2, [pc, #116]	@ (8000ca4 <HAL_ADC_MspInit+0x244>)
 8000c2e:	61e6      	str	r6, [r4, #28]
 8000c30:	2300      	movs	r3, #0
 8000c32:	e9c4 2300 	strd	r2, r3, [r4]
 8000c36:	2180      	movs	r1, #128	@ 0x80
 8000c38:	f44f 7280 	mov.w	r2, #256	@ 0x100
 8000c3c:	e9c4 1203 	strd	r1, r2, [r4, #12]
 8000c40:	4620      	mov	r0, r4
 8000c42:	f44f 6280 	mov.w	r2, #1024	@ 0x400
 8000c46:	e9c4 2305 	strd	r2, r3, [r4, #20]
 8000c4a:	60a3      	str	r3, [r4, #8]
 8000c4c:	f001 f9f0 	bl	8002030 <HAL_DMA_Init>
 8000c50:	b108      	cbz	r0, 8000c56 <HAL_ADC_MspInit+0x1f6>
 8000c52:	f7ff fe67 	bl	8000924 <Error_Handler>
 8000c56:	203d      	movs	r0, #61	@ 0x3d
 8000c58:	63ac      	str	r4, [r5, #56]	@ 0x38
 8000c5a:	2200      	movs	r2, #0
 8000c5c:	2105      	movs	r1, #5
 8000c5e:	6265      	str	r5, [r4, #36]	@ 0x24
 8000c60:	f001 f986 	bl	8001f70 <HAL_NVIC_SetPriority>
 8000c64:	203d      	movs	r0, #61	@ 0x3d
 8000c66:	e749      	b.n	8000afc <HAL_ADC_MspInit+0x9c>
 8000c68:	20001a34 	.word	0x20001a34
 8000c6c:	40021000 	.word	0x40021000
 8000c70:	48001400 	.word	0x48001400
 8000c74:	200008a4 	.word	0x200008a4
 8000c78:	40020008 	.word	0x40020008
 8000c7c:	50000100 	.word	0x50000100
 8000c80:	20000860 	.word	0x20000860
 8000c84:	40020408 	.word	0x40020408
 8000c88:	50000400 	.word	0x50000400
 8000c8c:	20001a30 	.word	0x20001a30
 8000c90:	2000081c 	.word	0x2000081c
 8000c94:	40020458 	.word	0x40020458
 8000c98:	48000400 	.word	0x48000400
 8000c9c:	50000500 	.word	0x50000500
 8000ca0:	200007d8 	.word	0x200007d8
 8000ca4:	4002041c 	.word	0x4002041c

08000ca8 <HAL_COMP_MspInit>:
 8000ca8:	b510      	push	{r4, lr}
 8000caa:	4604      	mov	r4, r0
 8000cac:	b08c      	sub	sp, #48	@ 0x30
 8000cae:	2214      	movs	r2, #20
 8000cb0:	2100      	movs	r1, #0
 8000cb2:	a807      	add	r0, sp, #28
 8000cb4:	f004 fef6 	bl	8005aa4 <memset>
 8000cb8:	6823      	ldr	r3, [r4, #0]
 8000cba:	4a37      	ldr	r2, [pc, #220]	@ (8000d98 <HAL_COMP_MspInit+0xf0>)
 8000cbc:	4293      	cmp	r3, r2
 8000cbe:	d127      	bne.n	8000d10 <HAL_COMP_MspInit+0x68>
 8000cc0:	4b36      	ldr	r3, [pc, #216]	@ (8000d9c <HAL_COMP_MspInit+0xf4>)
 8000cc2:	695a      	ldr	r2, [r3, #20]
 8000cc4:	f442 3200 	orr.w	r2, r2, #131072	@ 0x20000
 8000cc8:	615a      	str	r2, [r3, #20]
 8000cca:	695a      	ldr	r2, [r3, #20]
 8000ccc:	f402 3200 	and.w	r2, r2, #131072	@ 0x20000
 8000cd0:	9201      	str	r2, [sp, #4]
 8000cd2:	9a01      	ldr	r2, [sp, #4]
 8000cd4:	695a      	ldr	r2, [r3, #20]
 8000cd6:	f442 2280 	orr.w	r2, r2, #262144	@ 0x40000
 8000cda:	615a      	str	r2, [r3, #20]
 8000cdc:	695b      	ldr	r3, [r3, #20]
 8000cde:	f403 2380 	and.w	r3, r3, #262144	@ 0x40000
 8000ce2:	9302      	str	r3, [sp, #8]
 8000ce4:	9b02      	ldr	r3, [sp, #8]
 8000ce6:	2403      	movs	r4, #3
 8000ce8:	2310      	movs	r3, #16
 8000cea:	a907      	add	r1, sp, #28
 8000cec:	f04f 4090 	mov.w	r0, #1207959552	@ 0x48000000
 8000cf0:	e9cd 3407 	strd	r3, r4, [sp, #28]
 8000cf4:	f001 fa5c 	bl	80021b0 <HAL_GPIO_Init>
 8000cf8:	f44f 4380 	mov.w	r3, #16384	@ 0x4000
 8000cfc:	e9cd 3407 	strd	r3, r4, [sp, #28]
 8000d00:	2300      	movs	r3, #0
 8000d02:	9309      	str	r3, [sp, #36]	@ 0x24
 8000d04:	4826      	ldr	r0, [pc, #152]	@ (8000da0 <HAL_COMP_MspInit+0xf8>)
 8000d06:	a907      	add	r1, sp, #28
 8000d08:	f001 fa52 	bl	80021b0 <HAL_GPIO_Init>
 8000d0c:	b00c      	add	sp, #48	@ 0x30
 8000d0e:	bd10      	pop	{r4, pc}
 8000d10:	4a24      	ldr	r2, [pc, #144]	@ (8000da4 <HAL_COMP_MspInit+0xfc>)
 8000d12:	4293      	cmp	r3, r2
 8000d14:	d10e      	bne.n	8000d34 <HAL_COMP_MspInit+0x8c>
 8000d16:	4b21      	ldr	r3, [pc, #132]	@ (8000d9c <HAL_COMP_MspInit+0xf4>)
 8000d18:	695a      	ldr	r2, [r3, #20]
 8000d1a:	f442 2280 	orr.w	r2, r2, #262144	@ 0x40000
 8000d1e:	615a      	str	r2, [r3, #20]
 8000d20:	695b      	ldr	r3, [r3, #20]
 8000d22:	f403 2380 	and.w	r3, r3, #262144	@ 0x40000
 8000d26:	9303      	str	r3, [sp, #12]
 8000d28:	9b03      	ldr	r3, [sp, #12]
 8000d2a:	2305      	movs	r3, #5
 8000d2c:	9307      	str	r3, [sp, #28]
 8000d2e:	2303      	movs	r3, #3
 8000d30:	9308      	str	r3, [sp, #32]
 8000d32:	e7e7      	b.n	8000d04 <HAL_COMP_MspInit+0x5c>
 8000d34:	4a1c      	ldr	r2, [pc, #112]	@ (8000da8 <HAL_COMP_MspInit+0x100>)
 8000d36:	4293      	cmp	r3, r2
 8000d38:	d11e      	bne.n	8000d78 <HAL_COMP_MspInit+0xd0>
 8000d3a:	4b18      	ldr	r3, [pc, #96]	@ (8000d9c <HAL_COMP_MspInit+0xf4>)
 8000d3c:	695a      	ldr	r2, [r3, #20]
 8000d3e:	f442 3200 	orr.w	r2, r2, #131072	@ 0x20000
 8000d42:	615a      	str	r2, [r3, #20]
 8000d44:	695a      	ldr	r2, [r3, #20]
 8000d46:	f402 3200 	and.w	r2, r2, #131072	@ 0x20000
 8000d4a:	9204      	str	r2, [sp, #16]
 8000d4c:	9a04      	ldr	r2, [sp, #16]
 8000d4e:	695a      	ldr	r2, [r3, #20]
 8000d50:	f442 2280 	orr.w	r2, r2, #262144	@ 0x40000
 8000d54:	615a      	str	r2, [r3, #20]
 8000d56:	695b      	ldr	r3, [r3, #20]
 8000d58:	f403 2380 	and.w	r3, r3, #262144	@ 0x40000
 8000d5c:	9305      	str	r3, [sp, #20]
 8000d5e:	9b05      	ldr	r3, [sp, #20]
 8000d60:	2403      	movs	r4, #3
 8000d62:	2320      	movs	r3, #32
 8000d64:	a907      	add	r1, sp, #28
 8000d66:	f04f 4090 	mov.w	r0, #1207959552	@ 0x48000000
 8000d6a:	e9cd 3407 	strd	r3, r4, [sp, #28]
 8000d6e:	f001 fa1f 	bl	80021b0 <HAL_GPIO_Init>
 8000d72:	f44f 5300 	mov.w	r3, #8192	@ 0x2000
 8000d76:	e7c1      	b.n	8000cfc <HAL_COMP_MspInit+0x54>
 8000d78:	4a0c      	ldr	r2, [pc, #48]	@ (8000dac <HAL_COMP_MspInit+0x104>)
 8000d7a:	4293      	cmp	r3, r2
 8000d7c:	d1c6      	bne.n	8000d0c <HAL_COMP_MspInit+0x64>
 8000d7e:	4b07      	ldr	r3, [pc, #28]	@ (8000d9c <HAL_COMP_MspInit+0xf4>)
 8000d80:	695a      	ldr	r2, [r3, #20]
 8000d82:	f442 2280 	orr.w	r2, r2, #262144	@ 0x40000
 8000d86:	615a      	str	r2, [r3, #20]
 8000d88:	695b      	ldr	r3, [r3, #20]
 8000d8a:	f403 2380 	and.w	r3, r3, #262144	@ 0x40000
 8000d8e:	9306      	str	r3, [sp, #24]
 8000d90:	9b06      	ldr	r3, [sp, #24]
 8000d92:	f44f 4308 	mov.w	r3, #34816	@ 0x8800
 8000d96:	e7c9      	b.n	8000d2c <HAL_COMP_MspInit+0x84>
 8000d98:	40010024 	.word	0x40010024
 8000d9c:	40021000 	.word	0x40021000
 8000da0:	48000400 	.word	0x48000400
 8000da4:	40010028 	.word	0x40010028
 8000da8:	4001002c 	.word	0x4001002c
 8000dac:	40010030 	.word	0x40010030

08000db0 <HAL_I2C_MspInit>:
 8000db0:	b510      	push	{r4, lr}
 8000db2:	4604      	mov	r4, r0
 8000db4:	b088      	sub	sp, #32
 8000db6:	2214      	movs	r2, #20
 8000db8:	2100      	movs	r1, #0
 8000dba:	a803      	add	r0, sp, #12
 8000dbc:	f004 fe72 	bl	8005aa4 <memset>
 8000dc0:	6822      	ldr	r2, [r4, #0]
 8000dc2:	4b13      	ldr	r3, [pc, #76]	@ (8000e10 <HAL_I2C_MspInit+0x60>)
 8000dc4:	429a      	cmp	r2, r3
 8000dc6:	d120      	bne.n	8000e0a <HAL_I2C_MspInit+0x5a>
 8000dc8:	4c12      	ldr	r4, [pc, #72]	@ (8000e14 <HAL_I2C_MspInit+0x64>)
 8000dca:	6963      	ldr	r3, [r4, #20]
 8000dcc:	f443 3300 	orr.w	r3, r3, #131072	@ 0x20000
 8000dd0:	6163      	str	r3, [r4, #20]
 8000dd2:	6963      	ldr	r3, [r4, #20]
 8000dd4:	f403 3300 	and.w	r3, r3, #131072	@ 0x20000
 8000dd8:	9301      	str	r3, [sp, #4]
 8000dda:	9b01      	ldr	r3, [sp, #4]
 8000ddc:	f44f 62c0 	mov.w	r2, #1536	@ 0x600
 8000de0:	2312      	movs	r3, #18
 8000de2:	e9cd 2303 	strd	r2, r3, [sp, #12]
 8000de6:	2103      	movs	r1, #3
 8000de8:	2304      	movs	r3, #4
 8000dea:	e9cd 1306 	strd	r1, r3, [sp, #24]
 8000dee:	f04f 4090 	mov.w	r0, #1207959552	@ 0x48000000
 8000df2:	a903      	add	r1, sp, #12
 8000df4:	f001 f9dc 	bl	80021b0 <HAL_GPIO_Init>
 8000df8:	69e3      	ldr	r3, [r4, #28]
 8000dfa:	f443 0380 	orr.w	r3, r3, #4194304	@ 0x400000
 8000dfe:	61e3      	str	r3, [r4, #28]
 8000e00:	69e3      	ldr	r3, [r4, #28]
 8000e02:	f403 0380 	and.w	r3, r3, #4194304	@ 0x400000
 8000e06:	9302      	str	r3, [sp, #8]
 8000e08:	9b02      	ldr	r3, [sp, #8]
 8000e0a:	b008      	add	sp, #32
 8000e0c:	bd10      	pop	{r4, pc}
 8000e0e:	bf00      	nop
 8000e10:	40005800 	.word	0x40005800
 8000e14:	40021000 	.word	0x40021000

08000e18 <HAL_SPI_MspInit>:
 8000e18:	b510      	push	{r4, lr}
 8000e1a:	2214      	movs	r2, #20
 8000e1c:	b08a      	sub	sp, #40	@ 0x28
 8000e1e:	4604      	mov	r4, r0
 8000e20:	2100      	movs	r1, #0
 8000e22:	eb0d 0002 	add.w	r0, sp, r2
 8000e26:	f004 fe3d 	bl	8005aa4 <memset>
 8000e2a:	6823      	ldr	r3, [r4, #0]
 8000e2c:	4a22      	ldr	r2, [pc, #136]	@ (8000eb8 <HAL_SPI_MspInit+0xa0>)
 8000e2e:	4293      	cmp	r3, r2
 8000e30:	d120      	bne.n	8000e74 <HAL_SPI_MspInit+0x5c>
 8000e32:	4b22      	ldr	r3, [pc, #136]	@ (8000ebc <HAL_SPI_MspInit+0xa4>)
 8000e34:	699a      	ldr	r2, [r3, #24]
 8000e36:	f442 5280 	orr.w	r2, r2, #4096	@ 0x1000
 8000e3a:	619a      	str	r2, [r3, #24]
 8000e3c:	699a      	ldr	r2, [r3, #24]
 8000e3e:	f402 5280 	and.w	r2, r2, #4096	@ 0x1000
 8000e42:	9201      	str	r2, [sp, #4]
 8000e44:	9a01      	ldr	r2, [sp, #4]
 8000e46:	695a      	ldr	r2, [r3, #20]
 8000e48:	f442 2280 	orr.w	r2, r2, #262144	@ 0x40000
 8000e4c:	615a      	str	r2, [r3, #20]
 8000e4e:	695b      	ldr	r3, [r3, #20]
 8000e50:	f403 2380 	and.w	r3, r3, #262144	@ 0x40000
 8000e54:	9302      	str	r3, [sp, #8]
 8000e56:	2028      	movs	r0, #40	@ 0x28
 8000e58:	9b02      	ldr	r3, [sp, #8]
 8000e5a:	2302      	movs	r3, #2
 8000e5c:	e9cd 0305 	strd	r0, r3, [sp, #20]
 8000e60:	2403      	movs	r4, #3
 8000e62:	2305      	movs	r3, #5
 8000e64:	e9cd 4308 	strd	r4, r3, [sp, #32]
 8000e68:	4815      	ldr	r0, [pc, #84]	@ (8000ec0 <HAL_SPI_MspInit+0xa8>)
 8000e6a:	a905      	add	r1, sp, #20
 8000e6c:	f001 f9a0 	bl	80021b0 <HAL_GPIO_Init>
 8000e70:	b00a      	add	sp, #40	@ 0x28
 8000e72:	bd10      	pop	{r4, pc}
 8000e74:	4a13      	ldr	r2, [pc, #76]	@ (8000ec4 <HAL_SPI_MspInit+0xac>)
 8000e76:	4293      	cmp	r3, r2
 8000e78:	d1fa      	bne.n	8000e70 <HAL_SPI_MspInit+0x58>
 8000e7a:	4b10      	ldr	r3, [pc, #64]	@ (8000ebc <HAL_SPI_MspInit+0xa4>)
 8000e7c:	4812      	ldr	r0, [pc, #72]	@ (8000ec8 <HAL_SPI_MspInit+0xb0>)
 8000e7e:	69da      	ldr	r2, [r3, #28]
 8000e80:	f442 4200 	orr.w	r2, r2, #32768	@ 0x8000
 8000e84:	61da      	str	r2, [r3, #28]
 8000e86:	69da      	ldr	r2, [r3, #28]
 8000e88:	f402 4200 	and.w	r2, r2, #32768	@ 0x8000
 8000e8c:	9203      	str	r2, [sp, #12]
 8000e8e:	9a03      	ldr	r2, [sp, #12]
 8000e90:	695a      	ldr	r2, [r3, #20]
 8000e92:	f442 2200 	orr.w	r2, r2, #524288	@ 0x80000
 8000e96:	615a      	str	r2, [r3, #20]
 8000e98:	695b      	ldr	r3, [r3, #20]
 8000e9a:	f403 2300 	and.w	r3, r3, #524288	@ 0x80000
 8000e9e:	9304      	str	r3, [sp, #16]
 8000ea0:	9b04      	ldr	r3, [sp, #16]
 8000ea2:	f44f 52a0 	mov.w	r2, #5120	@ 0x1400
 8000ea6:	2302      	movs	r3, #2
 8000ea8:	2103      	movs	r1, #3
 8000eaa:	e9cd 2305 	strd	r2, r3, [sp, #20]
 8000eae:	2306      	movs	r3, #6
 8000eb0:	e9cd 1308 	strd	r1, r3, [sp, #32]
 8000eb4:	a905      	add	r1, sp, #20
 8000eb6:	e7d9      	b.n	8000e6c <HAL_SPI_MspInit+0x54>
 8000eb8:	40013000 	.word	0x40013000
 8000ebc:	40021000 	.word	0x40021000
 8000ec0:	48000400 	.word	0x48000400
 8000ec4:	40003c00 	.word	0x40003c00
 8000ec8:	48000800 	.word	0x48000800

08000ecc <HAL_TIM_OC_MspInit>:
 8000ecc:	6802      	ldr	r2, [r0, #0]
 8000ece:	4b08      	ldr	r3, [pc, #32]	@ (8000ef0 <HAL_TIM_OC_MspInit+0x24>)
 8000ed0:	429a      	cmp	r2, r3
 8000ed2:	b082      	sub	sp, #8
 8000ed4:	d10a      	bne.n	8000eec <HAL_TIM_OC_MspInit+0x20>
 8000ed6:	f503 3303 	add.w	r3, r3, #134144	@ 0x20c00
 8000eda:	69da      	ldr	r2, [r3, #28]
 8000edc:	f042 0202 	orr.w	r2, r2, #2
 8000ee0:	61da      	str	r2, [r3, #28]
 8000ee2:	69db      	ldr	r3, [r3, #28]
 8000ee4:	f003 0302 	and.w	r3, r3, #2
 8000ee8:	9301      	str	r3, [sp, #4]
 8000eea:	9b01      	ldr	r3, [sp, #4]
 8000eec:	b002      	add	sp, #8
 8000eee:	4770      	bx	lr
 8000ef0:	40000400 	.word	0x40000400

08000ef4 <HAL_TIM_Base_MspInit>:
 8000ef4:	6802      	ldr	r2, [r0, #0]
 8000ef6:	4b08      	ldr	r3, [pc, #32]	@ (8000f18 <HAL_TIM_Base_MspInit+0x24>)
 8000ef8:	429a      	cmp	r2, r3
 8000efa:	b082      	sub	sp, #8
 8000efc:	d10a      	bne.n	8000f14 <HAL_TIM_Base_MspInit+0x20>
 8000efe:	f503 3302 	add.w	r3, r3, #133120	@ 0x20800
 8000f02:	69da      	ldr	r2, [r3, #28]
 8000f04:	f042 0204 	orr.w	r2, r2, #4
 8000f08:	61da      	str	r2, [r3, #28]
 8000f0a:	69db      	ldr	r3, [r3, #28]
 8000f0c:	f003 0304 	and.w	r3, r3, #4
 8000f10:	9301      	str	r3, [sp, #4]
 8000f12:	9b01      	ldr	r3, [sp, #4]
 8000f14:	b002      	add	sp, #8
 8000f16:	4770      	bx	lr
 8000f18:	40000800 	.word	0x40000800

08000f1c <HAL_PCD_MspInit>:
 8000f1c:	b510      	push	{r4, lr}
 8000f1e:	4604      	mov	r4, r0
 8000f20:	b088      	sub	sp, #32
 8000f22:	2214      	movs	r2, #20
 8000f24:	2100      	movs	r1, #0
 8000f26:	a803      	add	r0, sp, #12
 8000f28:	f004 fdbc 	bl	8005aa4 <memset>
 8000f2c:	6822      	ldr	r2, [r4, #0]
 8000f2e:	4b13      	ldr	r3, [pc, #76]	@ (8000f7c <HAL_PCD_MspInit+0x60>)
 8000f30:	429a      	cmp	r2, r3
 8000f32:	d120      	bne.n	8000f76 <HAL_PCD_MspInit+0x5a>
 8000f34:	4c12      	ldr	r4, [pc, #72]	@ (8000f80 <HAL_PCD_MspInit+0x64>)
 8000f36:	6963      	ldr	r3, [r4, #20]
 8000f38:	f443 3300 	orr.w	r3, r3, #131072	@ 0x20000
 8000f3c:	6163      	str	r3, [r4, #20]
 8000f3e:	6963      	ldr	r3, [r4, #20]
 8000f40:	f403 3300 	and.w	r3, r3, #131072	@ 0x20000
 8000f44:	9301      	str	r3, [sp, #4]
 8000f46:	9b01      	ldr	r3, [sp, #4]
 8000f48:	f44f 52c0 	mov.w	r2, #6144	@ 0x1800
 8000f4c:	2302      	movs	r3, #2
 8000f4e:	e9cd 2303 	strd	r2, r3, [sp, #12]
 8000f52:	2103      	movs	r1, #3
 8000f54:	230e      	movs	r3, #14
 8000f56:	e9cd 1306 	strd	r1, r3, [sp, #24]
 8000f5a:	f04f 4090 	mov.w	r0, #1207959552	@ 0x48000000
 8000f5e:	a903      	add	r1, sp, #12
 8000f60:	f001 f926 	bl	80021b0 <HAL_GPIO_Init>
 8000f64:	69e3      	ldr	r3, [r4, #28]
 8000f66:	f443 0300 	orr.w	r3, r3, #8388608	@ 0x800000
 8000f6a:	61e3      	str	r3, [r4, #28]
 8000f6c:	69e3      	ldr	r3, [r4, #28]
 8000f6e:	f403 0300 	and.w	r3, r3, #8388608	@ 0x800000
 8000f72:	9302      	str	r3, [sp, #8]
 8000f74:	9b02      	ldr	r3, [sp, #8]
 8000f76:	b008      	add	sp, #32
 8000f78:	bd10      	pop	{r4, pc}
 8000f7a:	bf00      	nop
 8000f7c:	40005c00 	.word	0x40005c00
 8000f80:	40021000 	.word	0x40021000

08000f84 <HAL_InitTick>:
 8000f84:	b570      	push	{r4, r5, r6, lr}
 8000f86:	4b1e      	ldr	r3, [pc, #120]	@ (8001000 <HAL_InitTick+0x7c>)
 8000f88:	4d1e      	ldr	r5, [pc, #120]	@ (8001004 <HAL_InitTick+0x80>)
 8000f8a:	699a      	ldr	r2, [r3, #24]
 8000f8c:	f442 6200 	orr.w	r2, r2, #2048	@ 0x800
 8000f90:	b088      	sub	sp, #32
 8000f92:	619a      	str	r2, [r3, #24]
 8000f94:	699b      	ldr	r3, [r3, #24]
 8000f96:	f403 6300 	and.w	r3, r3, #2048	@ 0x800
 8000f9a:	a901      	add	r1, sp, #4
 8000f9c:	9302      	str	r3, [sp, #8]
 8000f9e:	4606      	mov	r6, r0
 8000fa0:	a803      	add	r0, sp, #12
 8000fa2:	9b02      	ldr	r3, [sp, #8]
 8000fa4:	f001 fe08 	bl	8002bb8 <HAL_RCC_GetClockConfig>
 8000fa8:	f001 fdee 	bl	8002b88 <HAL_RCC_GetPCLK2Freq>
 8000fac:	4b16      	ldr	r3, [pc, #88]	@ (8001008 <HAL_InitTick+0x84>)
 8000fae:	602b      	str	r3, [r5, #0]
 8000fb0:	f240 33e7 	movw	r3, #999	@ 0x3e7
 8000fb4:	60eb      	str	r3, [r5, #12]
 8000fb6:	4b15      	ldr	r3, [pc, #84]	@ (800100c <HAL_InitTick+0x88>)
 8000fb8:	fbb0 f0f3 	udiv	r0, r0, r3
 8000fbc:	3801      	subs	r0, #1
 8000fbe:	2300      	movs	r3, #0
 8000fc0:	6068      	str	r0, [r5, #4]
 8000fc2:	4628      	mov	r0, r5
 8000fc4:	612b      	str	r3, [r5, #16]
 8000fc6:	60ab      	str	r3, [r5, #8]
 8000fc8:	61ab      	str	r3, [r5, #24]
 8000fca:	f002 fb97 	bl	80036fc <HAL_TIM_Base_Init>
 8000fce:	4604      	mov	r4, r0
 8000fd0:	b980      	cbnz	r0, 8000ff4 <HAL_InitTick+0x70>
 8000fd2:	4628      	mov	r0, r5
 8000fd4:	f002 fa64 	bl	80034a0 <HAL_TIM_Base_Start_IT>
 8000fd8:	4604      	mov	r4, r0
 8000fda:	b958      	cbnz	r0, 8000ff4 <HAL_InitTick+0x70>
 8000fdc:	2019      	movs	r0, #25
 8000fde:	f000 fff9 	bl	8001fd4 <HAL_NVIC_EnableIRQ>
 8000fe2:	2e0f      	cmp	r6, #15
 8000fe4:	d809      	bhi.n	8000ffa <HAL_InitTick+0x76>
 8000fe6:	4622      	mov	r2, r4
 8000fe8:	4631      	mov	r1, r6
 8000fea:	2019      	movs	r0, #25
 8000fec:	f000 ffc0 	bl	8001f70 <HAL_NVIC_SetPriority>
 8000ff0:	4b07      	ldr	r3, [pc, #28]	@ (8001010 <HAL_InitTick+0x8c>)
 8000ff2:	601e      	str	r6, [r3, #0]
 8000ff4:	4620      	mov	r0, r4
 8000ff6:	b008      	add	sp, #32
 8000ff8:	bd70      	pop	{r4, r5, r6, pc}
 8000ffa:	2401      	movs	r4, #1
 8000ffc:	e7fa      	b.n	8000ff4 <HAL_InitTick+0x70>
 8000ffe:	bf00      	nop
 8001000:	40021000 	.word	0x40021000
 8001004:	20001a38 	.word	0x20001a38
 8001008:	40012c00 	.word	0x40012c00
 800100c:	000f4240 	.word	0x000f4240
 8001010:	20000008 	.word	0x20000008

08001014 <NMI_Handler>:
 8001014:	e7fe      	b.n	8001014 <NMI_Handler>

08001016 <HardFault_Handler>:
 8001016:	e7fe      	b.n	8001016 <HardFault_Handler>

08001018 <MemManage_Handler>:
 8001018:	e7fe      	b.n	8001018 <MemManage_Handler>

0800101a <BusFault_Handler>:
 800101a:	e7fe      	b.n	800101a <BusFault_Handler>

0800101c <UsageFault_Handler>:
 800101c:	e7fe      	b.n	800101c <UsageFault_Handler>

0800101e <DebugMon_Handler>:
 800101e:	4770      	bx	lr

08001020 <DMA1_Channel1_IRQHandler>:
 8001020:	4801      	ldr	r0, [pc, #4]	@ (8001028 <DMA1_Channel1_IRQHandler+0x8>)
 8001022:	f001 b87f 	b.w	8002124 <HAL_DMA_IRQHandler>
 8001026:	bf00      	nop
 8001028:	200008a4 	.word	0x200008a4

0800102c <ADC1_2_IRQHandler>:
 800102c:	b508      	push	{r3, lr}
 800102e:	4804      	ldr	r0, [pc, #16]	@ (8001040 <ADC1_2_IRQHandler+0x14>)
 8001030:	f000 fb7c 	bl	800172c <HAL_ADC_IRQHandler>
 8001034:	e8bd 4008 	ldmia.w	sp!, {r3, lr}
 8001038:	4802      	ldr	r0, [pc, #8]	@ (8001044 <ADC1_2_IRQHandler+0x18>)
 800103a:	f000 bb77 	b.w	800172c <HAL_ADC_IRQHandler>
 800103e:	bf00      	nop
 8001040:	200009d8 	.word	0x200009d8
 8001044:	20000988 	.word	0x20000988

08001048 <TIM1_UP_TIM16_IRQHandler>:
 8001048:	4801      	ldr	r0, [pc, #4]	@ (8001050 <TIM1_UP_TIM16_IRQHandler+0x8>)
 800104a:	f002 ba64 	b.w	8003516 <HAL_TIM_IRQHandler>
 800104e:	bf00      	nop
 8001050:	20001a38 	.word	0x20001a38

08001054 <ADC3_IRQHandler>:
 8001054:	4801      	ldr	r0, [pc, #4]	@ (800105c <ADC3_IRQHandler+0x8>)
 8001056:	f000 bb69 	b.w	800172c <HAL_ADC_IRQHandler>
 800105a:	bf00      	nop
 800105c:	20000938 	.word	0x20000938

08001060 <DMA2_Channel1_IRQHandler>:
 8001060:	4801      	ldr	r0, [pc, #4]	@ (8001068 <DMA2_Channel1_IRQHandler+0x8>)
 8001062:	f001 b85f 	b.w	8002124 <HAL_DMA_IRQHandler>
 8001066:	bf00      	nop
 8001068:	20000860 	.word	0x20000860

0800106c <DMA2_Channel2_IRQHandler>:
 800106c:	4801      	ldr	r0, [pc, #4]	@ (8001074 <DMA2_Channel2_IRQHandler+0x8>)
 800106e:	f001 b859 	b.w	8002124 <HAL_DMA_IRQHandler>
 8001072:	bf00      	nop
 8001074:	200007d8 	.word	0x200007d8

08001078 <DMA2_Channel5_IRQHandler>:
 8001078:	4801      	ldr	r0, [pc, #4]	@ (8001080 <DMA2_Channel5_IRQHandler+0x8>)
 800107a:	f001 b853 	b.w	8002124 <HAL_DMA_IRQHandler>
 800107e:	bf00      	nop
 8001080:	2000081c 	.word	0x2000081c

08001084 <ADC4_IRQHandler>:
 8001084:	4801      	ldr	r0, [pc, #4]	@ (800108c <ADC4_IRQHandler+0x8>)
 8001086:	f000 bb51 	b.w	800172c <HAL_ADC_IRQHandler>
 800108a:	bf00      	nop
 800108c:	200008e8 	.word	0x200008e8

08001090 <SystemInit>:
 8001090:	4a03      	ldr	r2, [pc, #12]	@ (80010a0 <SystemInit+0x10>)
 8001092:	f8d2 3088 	ldr.w	r3, [r2, #136]	@ 0x88
 8001096:	f443 0370 	orr.w	r3, r3, #15728640	@ 0xf00000
 800109a:	f8c2 3088 	str.w	r3, [r2, #136]	@ 0x88
 800109e:	4770      	bx	lr
 80010a0:	e000ed00 	.word	0xe000ed00

080010a4 <Reset_Handler>:
 80010a4:	f8df d034 	ldr.w	sp, [pc, #52]	@ 80010dc <LoopForever+0x2>
 80010a8:	f7ff fff2 	bl	8001090 <SystemInit>
 80010ac:	480c      	ldr	r0, [pc, #48]	@ (80010e0 <LoopForever+0x6>)
 80010ae:	490d      	ldr	r1, [pc, #52]	@ (80010e4 <LoopForever+0xa>)
 80010b0:	4a0d      	ldr	r2, [pc, #52]	@ (80010e8 <LoopForever+0xe>)
 80010b2:	2300      	movs	r3, #0
 80010b4:	e002      	b.n	80010bc <LoopCopyDataInit>

080010b6 <CopyDataInit>:
 80010b6:	58d4      	ldr	r4, [r2, r3]
 80010b8:	50c4      	str	r4, [r0, r3]
 80010ba:	3304      	adds	r3, #4

080010bc <LoopCopyDataInit>:
 80010bc:	18c4      	adds	r4, r0, r3
 80010be:	428c      	cmp	r4, r1
 80010c0:	d3f9      	bcc.n	80010b6 <CopyDataInit>
 80010c2:	4a0a      	ldr	r2, [pc, #40]	@ (80010ec <LoopForever+0x12>)
 80010c4:	4c0a      	ldr	r4, [pc, #40]	@ (80010f0 <LoopForever+0x16>)
 80010c6:	2300      	movs	r3, #0
 80010c8:	e001      	b.n	80010ce <LoopFillZerobss>

080010ca <FillZerobss>:
 80010ca:	6013      	str	r3, [r2, #0]
 80010cc:	3204      	adds	r2, #4

080010ce <LoopFillZerobss>:
 80010ce:	42a2      	cmp	r2, r4
 80010d0:	d3fb      	bcc.n	80010ca <FillZerobss>
 80010d2:	f004 fcef 	bl	8005ab4 <__libc_init_array>
 80010d6:	f7ff f8c9 	bl	800026c <main>

080010da <LoopForever>:
 80010da:	e7fe      	b.n	80010da <LoopForever>
 80010dc:	20008000 	.word	0x20008000
 80010e0:	20000000 	.word	0x20000000
 80010e4:	20000010 	.word	0x20000010
 80010e8:	08005bbc 	.word	0x08005bbc
 80010ec:	20000010 	.word	0x20000010
 80010f0:	200077cc 	.word	0x200077cc

080010f4 <CAN_RX1_IRQHandler>:
 80010f4:	e7fe      	b.n	80010f4 <CAN_RX1_IRQHandler>
	...

080010f8 <HAL_Init>:
 80010f8:	4a07      	ldr	r2, [pc, #28]	@ (8001118 <HAL_Init+0x20>)
 80010fa:	b508      	push	{r3, lr}
 80010fc:	6813      	ldr	r3, [r2, #0]
 80010fe:	f043 0310 	orr.w	r3, r3, #16
 8001102:	6013      	str	r3, [r2, #0]
 8001104:	2003      	movs	r0, #3
 8001106:	f000 ff21 	bl	8001f4c <HAL_NVIC_SetPriorityGrouping>
 800110a:	200f      	movs	r0, #15
 800110c:	f7ff ff3a 	bl	8000f84 <HAL_InitTick>
 8001110:	f7ff fc88 	bl	8000a24 <HAL_MspInit>
 8001114:	2000      	movs	r0, #0
 8001116:	bd08      	pop	{r3, pc}
 8001118:	40022000 	.word	0x40022000

0800111c <HAL_IncTick>:
 800111c:	4a03      	ldr	r2, [pc, #12]	@ (800112c <HAL_IncTick+0x10>)
 800111e:	4b04      	ldr	r3, [pc, #16]	@ (8001130 <HAL_IncTick+0x14>)
 8001120:	6811      	ldr	r1, [r2, #0]
 8001122:	781b      	ldrb	r3, [r3, #0]
 8001124:	440b      	add	r3, r1
 8001126:	6013      	str	r3, [r2, #0]
 8001128:	4770      	bx	lr
 800112a:	bf00      	nop
 800112c:	20001a84 	.word	0x20001a84
 8001130:	20000004 	.word	0x20000004

08001134 <HAL_GetTick>:
 8001134:	4b01      	ldr	r3, [pc, #4]	@ (800113c <HAL_GetTick+0x8>)
 8001136:	6818      	ldr	r0, [r3, #0]
 8001138:	4770      	bx	lr
 800113a:	bf00      	nop
 800113c:	20001a84 	.word	0x20001a84

08001140 <HAL_ADC_ConvHalfCpltCallback>:
 8001140:	4770      	bx	lr

08001142 <HAL_ADC_LevelOutOfWindowCallback>:
 8001142:	4770      	bx	lr

08001144 <HAL_ADC_ErrorCallback>:
 8001144:	4770      	bx	lr

08001146 <ADC_Disable>:
 8001146:	b538      	push	{r3, r4, r5, lr}
 8001148:	6803      	ldr	r3, [r0, #0]
 800114a:	689a      	ldr	r2, [r3, #8]
 800114c:	f002 0203 	and.w	r2, r2, #3
 8001150:	2a01      	cmp	r2, #1
 8001152:	4604      	mov	r4, r0
 8001154:	d001      	beq.n	800115a <ADC_Disable+0x14>
 8001156:	2000      	movs	r0, #0
 8001158:	bd38      	pop	{r3, r4, r5, pc}
 800115a:	681a      	ldr	r2, [r3, #0]
 800115c:	07d1      	lsls	r1, r2, #31
 800115e:	d5fa      	bpl.n	8001156 <ADC_Disable+0x10>
 8001160:	689a      	ldr	r2, [r3, #8]
 8001162:	f002 020d 	and.w	r2, r2, #13
 8001166:	2a01      	cmp	r2, #1
 8001168:	d115      	bne.n	8001196 <ADC_Disable+0x50>
 800116a:	689a      	ldr	r2, [r3, #8]
 800116c:	f042 0202 	orr.w	r2, r2, #2
 8001170:	609a      	str	r2, [r3, #8]
 8001172:	2203      	movs	r2, #3
 8001174:	601a      	str	r2, [r3, #0]
 8001176:	f7ff ffdd 	bl	8001134 <HAL_GetTick>
 800117a:	4605      	mov	r5, r0
 800117c:	6823      	ldr	r3, [r4, #0]
 800117e:	689b      	ldr	r3, [r3, #8]
 8001180:	07db      	lsls	r3, r3, #31
 8001182:	d5e8      	bpl.n	8001156 <ADC_Disable+0x10>
 8001184:	f7ff ffd6 	bl	8001134 <HAL_GetTick>
 8001188:	1b40      	subs	r0, r0, r5
 800118a:	2802      	cmp	r0, #2
 800118c:	d9f6      	bls.n	800117c <ADC_Disable+0x36>
 800118e:	6823      	ldr	r3, [r4, #0]
 8001190:	689b      	ldr	r3, [r3, #8]
 8001192:	07da      	lsls	r2, r3, #31
 8001194:	d5f2      	bpl.n	800117c <ADC_Disable+0x36>
 8001196:	6c23      	ldr	r3, [r4, #64]	@ 0x40
 8001198:	f043 0310 	orr.w	r3, r3, #16
 800119c:	6423      	str	r3, [r4, #64]	@ 0x40
 800119e:	6c63      	ldr	r3, [r4, #68]	@ 0x44
 80011a0:	f043 0301 	orr.w	r3, r3, #1
 80011a4:	6463      	str	r3, [r4, #68]	@ 0x44
 80011a6:	2001      	movs	r0, #1
 80011a8:	e7d6      	b.n	8001158 <ADC_Disable+0x12>
	...

080011ac <ADC_ConversionStop>:
 80011ac:	6803      	ldr	r3, [r0, #0]
 80011ae:	689a      	ldr	r2, [r3, #8]
 80011b0:	f012 0f0c 	tst.w	r2, #12
 80011b4:	b570      	push	{r4, r5, r6, lr}
 80011b6:	4604      	mov	r4, r0
 80011b8:	d101      	bne.n	80011be <ADC_ConversionStop+0x12>
 80011ba:	2000      	movs	r0, #0
 80011bc:	bd70      	pop	{r4, r5, r6, pc}
 80011be:	68da      	ldr	r2, [r3, #12]
 80011c0:	0190      	lsls	r0, r2, #6
 80011c2:	d535      	bpl.n	8001230 <ADC_ConversionStop+0x84>
 80011c4:	8b20      	ldrh	r0, [r4, #24]
 80011c6:	f240 1201 	movw	r2, #257	@ 0x101
 80011ca:	4290      	cmp	r0, r2
 80011cc:	d130      	bne.n	8001230 <ADC_ConversionStop+0x84>
 80011ce:	4a22      	ldr	r2, [pc, #136]	@ (8001258 <ADC_ConversionStop+0xac>)
 80011d0:	6819      	ldr	r1, [r3, #0]
 80011d2:	0649      	lsls	r1, r1, #25
 80011d4:	d520      	bpl.n	8001218 <ADC_ConversionStop+0x6c>
 80011d6:	2240      	movs	r2, #64	@ 0x40
 80011d8:	601a      	str	r2, [r3, #0]
 80011da:	210c      	movs	r1, #12
 80011dc:	689a      	ldr	r2, [r3, #8]
 80011de:	0756      	lsls	r6, r2, #29
 80011e0:	d506      	bpl.n	80011f0 <ADC_ConversionStop+0x44>
 80011e2:	689a      	ldr	r2, [r3, #8]
 80011e4:	0795      	lsls	r5, r2, #30
 80011e6:	bf5e      	ittt	pl
 80011e8:	689a      	ldrpl	r2, [r3, #8]
 80011ea:	f042 0210 	orrpl.w	r2, r2, #16
 80011ee:	609a      	strpl	r2, [r3, #8]
 80011f0:	290c      	cmp	r1, #12
 80011f2:	d11f      	bne.n	8001234 <ADC_ConversionStop+0x88>
 80011f4:	2504      	movs	r5, #4
 80011f6:	f7ff ff9d 	bl	8001134 <HAL_GetTick>
 80011fa:	4606      	mov	r6, r0
 80011fc:	6823      	ldr	r3, [r4, #0]
 80011fe:	689b      	ldr	r3, [r3, #8]
 8001200:	422b      	tst	r3, r5
 8001202:	d0da      	beq.n	80011ba <ADC_ConversionStop+0xe>
 8001204:	f7ff ff96 	bl	8001134 <HAL_GetTick>
 8001208:	1b80      	subs	r0, r0, r6
 800120a:	280b      	cmp	r0, #11
 800120c:	d9f6      	bls.n	80011fc <ADC_ConversionStop+0x50>
 800120e:	6823      	ldr	r3, [r4, #0]
 8001210:	689b      	ldr	r3, [r3, #8]
 8001212:	422b      	tst	r3, r5
 8001214:	d0f2      	beq.n	80011fc <ADC_ConversionStop+0x50>
 8001216:	e001      	b.n	800121c <ADC_ConversionStop+0x70>
 8001218:	3a01      	subs	r2, #1
 800121a:	d1d9      	bne.n	80011d0 <ADC_ConversionStop+0x24>
 800121c:	6c23      	ldr	r3, [r4, #64]	@ 0x40
 800121e:	f043 0310 	orr.w	r3, r3, #16
 8001222:	6423      	str	r3, [r4, #64]	@ 0x40
 8001224:	6c63      	ldr	r3, [r4, #68]	@ 0x44
 8001226:	f043 0301 	orr.w	r3, r3, #1
 800122a:	6463      	str	r3, [r4, #68]	@ 0x44
 800122c:	2001      	movs	r0, #1
 800122e:	e7c5      	b.n	80011bc <ADC_ConversionStop+0x10>
 8001230:	2960      	cmp	r1, #96	@ 0x60
 8001232:	d1d3      	bne.n	80011dc <ADC_ConversionStop+0x30>
 8001234:	689a      	ldr	r2, [r3, #8]
 8001236:	0710      	lsls	r0, r2, #28
 8001238:	d506      	bpl.n	8001248 <ADC_ConversionStop+0x9c>
 800123a:	689a      	ldr	r2, [r3, #8]
 800123c:	0792      	lsls	r2, r2, #30
 800123e:	bf5e      	ittt	pl
 8001240:	689a      	ldrpl	r2, [r3, #8]
 8001242:	f042 0220 	orrpl.w	r2, r2, #32
 8001246:	609a      	strpl	r2, [r3, #8]
 8001248:	2960      	cmp	r1, #96	@ 0x60
 800124a:	d003      	beq.n	8001254 <ADC_ConversionStop+0xa8>
 800124c:	296c      	cmp	r1, #108	@ 0x6c
 800124e:	d1d1      	bne.n	80011f4 <ADC_ConversionStop+0x48>
 8001250:	250c      	movs	r5, #12
 8001252:	e7d0      	b.n	80011f6 <ADC_ConversionStop+0x4a>
 8001254:	2508      	movs	r5, #8
 8001256:	e7ce      	b.n	80011f6 <ADC_ConversionStop+0x4a>
 8001258:	00099401 	.word	0x00099401

0800125c <ADC_Enable>:
 800125c:	b538      	push	{r3, r4, r5, lr}
 800125e:	6803      	ldr	r3, [r0, #0]
 8001260:	689a      	ldr	r2, [r3, #8]
 8001262:	f002 0203 	and.w	r2, r2, #3
 8001266:	2a01      	cmp	r2, #1
 8001268:	4604      	mov	r4, r0
 800126a:	d104      	bne.n	8001276 <ADC_Enable+0x1a>
 800126c:	681a      	ldr	r2, [r3, #0]
 800126e:	07d1      	lsls	r1, r2, #31
 8001270:	d501      	bpl.n	8001276 <ADC_Enable+0x1a>
 8001272:	2000      	movs	r0, #0
 8001274:	bd38      	pop	{r3, r4, r5, pc}
 8001276:	6899      	ldr	r1, [r3, #8]
 8001278:	4a10      	ldr	r2, [pc, #64]	@ (80012bc <ADC_Enable+0x60>)
 800127a:	4211      	tst	r1, r2
 800127c:	d009      	beq.n	8001292 <ADC_Enable+0x36>
 800127e:	6c23      	ldr	r3, [r4, #64]	@ 0x40
 8001280:	f043 0310 	orr.w	r3, r3, #16
 8001284:	6423      	str	r3, [r4, #64]	@ 0x40
 8001286:	6c63      	ldr	r3, [r4, #68]	@ 0x44
 8001288:	f043 0301 	orr.w	r3, r3, #1
 800128c:	6463      	str	r3, [r4, #68]	@ 0x44
 800128e:	2001      	movs	r0, #1
 8001290:	e7f0      	b.n	8001274 <ADC_Enable+0x18>
 8001292:	689a      	ldr	r2, [r3, #8]
 8001294:	f042 0201 	orr.w	r2, r2, #1
 8001298:	609a      	str	r2, [r3, #8]
 800129a:	f7ff ff4b 	bl	8001134 <HAL_GetTick>
 800129e:	4605      	mov	r5, r0
 80012a0:	6823      	ldr	r3, [r4, #0]
 80012a2:	681b      	ldr	r3, [r3, #0]
 80012a4:	07db      	lsls	r3, r3, #31
 80012a6:	d4e4      	bmi.n	8001272 <ADC_Enable+0x16>
 80012a8:	f7ff ff44 	bl	8001134 <HAL_GetTick>
 80012ac:	1b40      	subs	r0, r0, r5
 80012ae:	2802      	cmp	r0, #2
 80012b0:	d9f6      	bls.n	80012a0 <ADC_Enable+0x44>
 80012b2:	6823      	ldr	r3, [r4, #0]
 80012b4:	681b      	ldr	r3, [r3, #0]
 80012b6:	07da      	lsls	r2, r3, #31
 80012b8:	d4f2      	bmi.n	80012a0 <ADC_Enable+0x44>
 80012ba:	e7e0      	b.n	800127e <ADC_Enable+0x22>
 80012bc:	8000003f 	.word	0x8000003f

080012c0 <ADC_DMAError>:
 80012c0:	6a40      	ldr	r0, [r0, #36]	@ 0x24
 80012c2:	6c03      	ldr	r3, [r0, #64]	@ 0x40
 80012c4:	f043 0340 	orr.w	r3, r3, #64	@ 0x40
 80012c8:	6403      	str	r3, [r0, #64]	@ 0x40
 80012ca:	6c43      	ldr	r3, [r0, #68]	@ 0x44
 80012cc:	f043 0304 	orr.w	r3, r3, #4
 80012d0:	6443      	str	r3, [r0, #68]	@ 0x44
 80012d2:	f7ff bf37 	b.w	8001144 <HAL_ADC_ErrorCallback>

080012d6 <ADC_DMAHalfConvCplt>:
 80012d6:	6a40      	ldr	r0, [r0, #36]	@ 0x24
 80012d8:	f7ff bf32 	b.w	8001140 <HAL_ADC_ConvHalfCpltCallback>

080012dc <ADC_DMAConvCplt>:
 80012dc:	6a43      	ldr	r3, [r0, #36]	@ 0x24
 80012de:	6c1a      	ldr	r2, [r3, #64]	@ 0x40
 80012e0:	f012 0f50 	tst.w	r2, #80	@ 0x50
 80012e4:	d118      	bne.n	8001318 <ADC_DMAConvCplt+0x3c>
 80012e6:	6c1a      	ldr	r2, [r3, #64]	@ 0x40
 80012e8:	f442 7200 	orr.w	r2, r2, #512	@ 0x200
 80012ec:	641a      	str	r2, [r3, #64]	@ 0x40
 80012ee:	681a      	ldr	r2, [r3, #0]
 80012f0:	68d2      	ldr	r2, [r2, #12]
 80012f2:	f412 6f40 	tst.w	r2, #3072	@ 0xc00
 80012f6:	d10c      	bne.n	8001312 <ADC_DMAConvCplt+0x36>
 80012f8:	7e5a      	ldrb	r2, [r3, #25]
 80012fa:	b952      	cbnz	r2, 8001312 <ADC_DMAConvCplt+0x36>
 80012fc:	6c1a      	ldr	r2, [r3, #64]	@ 0x40
 80012fe:	f422 7280 	bic.w	r2, r2, #256	@ 0x100
 8001302:	641a      	str	r2, [r3, #64]	@ 0x40
 8001304:	6c1a      	ldr	r2, [r3, #64]	@ 0x40
 8001306:	04d2      	lsls	r2, r2, #19
 8001308:	bf5e      	ittt	pl
 800130a:	6c1a      	ldrpl	r2, [r3, #64]	@ 0x40
 800130c:	f042 0201 	orrpl.w	r2, r2, #1
 8001310:	641a      	strpl	r2, [r3, #64]	@ 0x40
 8001312:	4618      	mov	r0, r3
 8001314:	f7ff bb72 	b.w	80009fc <HAL_ADC_ConvCpltCallback>
 8001318:	6b9b      	ldr	r3, [r3, #56]	@ 0x38
 800131a:	6b1b      	ldr	r3, [r3, #48]	@ 0x30
 800131c:	4718      	bx	r3
	...

08001320 <HAL_ADC_Init>:
 8001320:	b537      	push	{r0, r1, r2, r4, r5, lr}
 8001322:	2300      	movs	r3, #0
 8001324:	9301      	str	r3, [sp, #4]
 8001326:	4604      	mov	r4, r0
 8001328:	2800      	cmp	r0, #0
 800132a:	f000 8103 	beq.w	8001534 <HAL_ADC_Init+0x214>
 800132e:	6c02      	ldr	r2, [r0, #64]	@ 0x40
 8001330:	06d5      	lsls	r5, r2, #27
 8001332:	d46a      	bmi.n	800140a <HAL_ADC_Init+0xea>
 8001334:	6c03      	ldr	r3, [r0, #64]	@ 0x40
 8001336:	2b00      	cmp	r3, #0
 8001338:	d035      	beq.n	80013a6 <HAL_ADC_Init+0x86>
 800133a:	2000      	movs	r0, #0
 800133c:	6823      	ldr	r3, [r4, #0]
 800133e:	689a      	ldr	r2, [r3, #8]
 8001340:	00d2      	lsls	r2, r2, #3
 8001342:	d502      	bpl.n	800134a <HAL_ADC_Init+0x2a>
 8001344:	689b      	ldr	r3, [r3, #8]
 8001346:	009d      	lsls	r5, r3, #2
 8001348:	d50a      	bpl.n	8001360 <HAL_ADC_Init+0x40>
 800134a:	6c23      	ldr	r3, [r4, #64]	@ 0x40
 800134c:	f023 0312 	bic.w	r3, r3, #18
 8001350:	f043 0310 	orr.w	r3, r3, #16
 8001354:	6423      	str	r3, [r4, #64]	@ 0x40
 8001356:	6c63      	ldr	r3, [r4, #68]	@ 0x44
 8001358:	f043 0301 	orr.w	r3, r3, #1
 800135c:	6463      	str	r3, [r4, #68]	@ 0x44
 800135e:	2001      	movs	r0, #1
 8001360:	6c23      	ldr	r3, [r4, #64]	@ 0x40
 8001362:	06d9      	lsls	r1, r3, #27
 8001364:	f100 80e0 	bmi.w	8001528 <HAL_ADC_Init+0x208>
 8001368:	2800      	cmp	r0, #0
 800136a:	f040 80dd 	bne.w	8001528 <HAL_ADC_Init+0x208>
 800136e:	6823      	ldr	r3, [r4, #0]
 8001370:	689a      	ldr	r2, [r3, #8]
 8001372:	0752      	lsls	r2, r2, #29
 8001374:	f100 80d8 	bmi.w	8001528 <HAL_ADC_Init+0x208>
 8001378:	6c22      	ldr	r2, [r4, #64]	@ 0x40
 800137a:	f422 7281 	bic.w	r2, r2, #258	@ 0x102
 800137e:	f042 0202 	orr.w	r2, r2, #2
 8001382:	f1b3 4fa0 	cmp.w	r3, #1342177280	@ 0x50000000
 8001386:	6422      	str	r2, [r4, #64]	@ 0x40
 8001388:	4a6b      	ldr	r2, [pc, #428]	@ (8001538 <HAL_ADC_Init+0x218>)
 800138a:	d042      	beq.n	8001412 <HAL_ADC_Init+0xf2>
 800138c:	4293      	cmp	r3, r2
 800138e:	d03e      	beq.n	800140e <HAL_ADC_Init+0xee>
 8001390:	f502 7240 	add.w	r2, r2, #768	@ 0x300
 8001394:	4293      	cmp	r3, r2
 8001396:	4969      	ldr	r1, [pc, #420]	@ (800153c <HAL_ADC_Init+0x21c>)
 8001398:	f000 80b3 	beq.w	8001502 <HAL_ADC_Init+0x1e2>
 800139c:	428b      	cmp	r3, r1
 800139e:	bf18      	it	ne
 80013a0:	2200      	movne	r2, #0
 80013a2:	4967      	ldr	r1, [pc, #412]	@ (8001540 <HAL_ADC_Init+0x220>)
 80013a4:	e036      	b.n	8001414 <HAL_ADC_Init+0xf4>
 80013a6:	e9c0 3312 	strd	r3, r3, [r0, #72]	@ 0x48
 80013aa:	6443      	str	r3, [r0, #68]	@ 0x44
 80013ac:	f880 303c 	strb.w	r3, [r0, #60]	@ 0x3c
 80013b0:	f7ff fb56 	bl	8000a60 <HAL_ADC_MspInit>
 80013b4:	6823      	ldr	r3, [r4, #0]
 80013b6:	689b      	ldr	r3, [r3, #8]
 80013b8:	00d8      	lsls	r0, r3, #3
 80013ba:	d4be      	bmi.n	800133a <HAL_ADC_Init+0x1a>
 80013bc:	4620      	mov	r0, r4
 80013be:	f7ff fec2 	bl	8001146 <ADC_Disable>
 80013c2:	6c22      	ldr	r2, [r4, #64]	@ 0x40
 80013c4:	06d1      	lsls	r1, r2, #27
 80013c6:	d4b9      	bmi.n	800133c <HAL_ADC_Init+0x1c>
 80013c8:	2800      	cmp	r0, #0
 80013ca:	d1b7      	bne.n	800133c <HAL_ADC_Init+0x1c>
 80013cc:	6c23      	ldr	r3, [r4, #64]	@ 0x40
 80013ce:	6822      	ldr	r2, [r4, #0]
 80013d0:	f423 5388 	bic.w	r3, r3, #4352	@ 0x1100
 80013d4:	f023 0302 	bic.w	r3, r3, #2
 80013d8:	f043 0302 	orr.w	r3, r3, #2
 80013dc:	6423      	str	r3, [r4, #64]	@ 0x40
 80013de:	6893      	ldr	r3, [r2, #8]
 80013e0:	f023 5340 	bic.w	r3, r3, #805306368	@ 0x30000000
 80013e4:	6093      	str	r3, [r2, #8]
 80013e6:	6893      	ldr	r3, [r2, #8]
 80013e8:	f043 5380 	orr.w	r3, r3, #268435456	@ 0x10000000
 80013ec:	6093      	str	r3, [r2, #8]
 80013ee:	4b55      	ldr	r3, [pc, #340]	@ (8001544 <HAL_ADC_Init+0x224>)
 80013f0:	4a55      	ldr	r2, [pc, #340]	@ (8001548 <HAL_ADC_Init+0x228>)
 80013f2:	681b      	ldr	r3, [r3, #0]
 80013f4:	fbb3 f3f2 	udiv	r3, r3, r2
 80013f8:	220a      	movs	r2, #10
 80013fa:	4353      	muls	r3, r2
 80013fc:	9301      	str	r3, [sp, #4]
 80013fe:	9b01      	ldr	r3, [sp, #4]
 8001400:	2b00      	cmp	r3, #0
 8001402:	d09a      	beq.n	800133a <HAL_ADC_Init+0x1a>
 8001404:	9b01      	ldr	r3, [sp, #4]
 8001406:	3b01      	subs	r3, #1
 8001408:	e7f8      	b.n	80013fc <HAL_ADC_Init+0xdc>
 800140a:	4618      	mov	r0, r3
 800140c:	e7a8      	b.n	8001360 <HAL_ADC_Init+0x40>
 800140e:	f04f 42a0 	mov.w	r2, #1342177280	@ 0x50000000
 8001412:	494e      	ldr	r1, [pc, #312]	@ (800154c <HAL_ADC_Init+0x22c>)
 8001414:	689d      	ldr	r5, [r3, #8]
 8001416:	f005 0503 	and.w	r5, r5, #3
 800141a:	2d01      	cmp	r5, #1
 800141c:	d102      	bne.n	8001424 <HAL_ADC_Init+0x104>
 800141e:	681d      	ldr	r5, [r3, #0]
 8001420:	07ed      	lsls	r5, r5, #31
 8001422:	d40e      	bmi.n	8001442 <HAL_ADC_Init+0x122>
 8001424:	b13a      	cbz	r2, 8001436 <HAL_ADC_Init+0x116>
 8001426:	6895      	ldr	r5, [r2, #8]
 8001428:	f005 0503 	and.w	r5, r5, #3
 800142c:	2d01      	cmp	r5, #1
 800142e:	d102      	bne.n	8001436 <HAL_ADC_Init+0x116>
 8001430:	6812      	ldr	r2, [r2, #0]
 8001432:	07d2      	lsls	r2, r2, #31
 8001434:	d405      	bmi.n	8001442 <HAL_ADC_Init+0x122>
 8001436:	688a      	ldr	r2, [r1, #8]
 8001438:	6865      	ldr	r5, [r4, #4]
 800143a:	f422 3240 	bic.w	r2, r2, #196608	@ 0x30000
 800143e:	432a      	orrs	r2, r5
 8001440:	608a      	str	r2, [r1, #8]
 8001442:	e9d4 1202 	ldrd	r1, r2, [r4, #8]
 8001446:	430a      	orrs	r2, r1
 8001448:	6b61      	ldr	r1, [r4, #52]	@ 0x34
 800144a:	7e65      	ldrb	r5, [r4, #25]
 800144c:	3901      	subs	r1, #1
 800144e:	bf18      	it	ne
 8001450:	2101      	movne	r1, #1
 8001452:	ea42 3245 	orr.w	r2, r2, r5, lsl #13
 8001456:	ea42 3201 	orr.w	r2, r2, r1, lsl #12
 800145a:	f894 1020 	ldrb.w	r1, [r4, #32]
 800145e:	2901      	cmp	r1, #1
 8001460:	d107      	bne.n	8001472 <HAL_ADC_Init+0x152>
 8001462:	2d00      	cmp	r5, #0
 8001464:	d14f      	bne.n	8001506 <HAL_ADC_Init+0x1e6>
 8001466:	6a61      	ldr	r1, [r4, #36]	@ 0x24
 8001468:	3901      	subs	r1, #1
 800146a:	ea42 4141 	orr.w	r1, r2, r1, lsl #17
 800146e:	f441 3280 	orr.w	r2, r1, #65536	@ 0x10000
 8001472:	6aa1      	ldr	r1, [r4, #40]	@ 0x28
 8001474:	2901      	cmp	r1, #1
 8001476:	d015      	beq.n	80014a4 <HAL_ADC_Init+0x184>
 8001478:	4d35      	ldr	r5, [pc, #212]	@ (8001550 <HAL_ADC_Init+0x230>)
 800147a:	42ab      	cmp	r3, r5
 800147c:	d003      	beq.n	8001486 <HAL_ADC_Init+0x166>
 800147e:	f505 7580 	add.w	r5, r5, #256	@ 0x100
 8001482:	42ab      	cmp	r3, r5
 8001484:	d10a      	bne.n	800149c <HAL_ADC_Init+0x17c>
 8001486:	f5b1 7f30 	cmp.w	r1, #704	@ 0x2c0
 800148a:	d047      	beq.n	800151c <HAL_ADC_Init+0x1fc>
 800148c:	f5b1 7f80 	cmp.w	r1, #256	@ 0x100
 8001490:	d047      	beq.n	8001522 <HAL_ADC_Init+0x202>
 8001492:	f5b1 7fe0 	cmp.w	r1, #448	@ 0x1c0
 8001496:	bf08      	it	eq
 8001498:	f44f 7180 	moveq.w	r1, #256	@ 0x100
 800149c:	6ae5      	ldr	r5, [r4, #44]	@ 0x2c
 800149e:	4315      	orrs	r5, r2
 80014a0:	ea45 0201 	orr.w	r2, r5, r1
 80014a4:	6899      	ldr	r1, [r3, #8]
 80014a6:	f011 0f0c 	tst.w	r1, #12
 80014aa:	d10c      	bne.n	80014c6 <HAL_ADC_Init+0x1a6>
 80014ac:	68d9      	ldr	r1, [r3, #12]
 80014ae:	f421 4180 	bic.w	r1, r1, #16384	@ 0x4000
 80014b2:	f021 0102 	bic.w	r1, r1, #2
 80014b6:	60d9      	str	r1, [r3, #12]
 80014b8:	f894 1030 	ldrb.w	r1, [r4, #48]	@ 0x30
 80014bc:	7e25      	ldrb	r5, [r4, #24]
 80014be:	0049      	lsls	r1, r1, #1
 80014c0:	ea41 3185 	orr.w	r1, r1, r5, lsl #14
 80014c4:	430a      	orrs	r2, r1
 80014c6:	68dd      	ldr	r5, [r3, #12]
 80014c8:	4922      	ldr	r1, [pc, #136]	@ (8001554 <HAL_ADC_Init+0x234>)
 80014ca:	4029      	ands	r1, r5
 80014cc:	4311      	orrs	r1, r2
 80014ce:	6922      	ldr	r2, [r4, #16]
 80014d0:	60d9      	str	r1, [r3, #12]
 80014d2:	2a01      	cmp	r2, #1
 80014d4:	bf05      	ittet	eq
 80014d6:	6b19      	ldreq	r1, [r3, #48]	@ 0x30
 80014d8:	69e2      	ldreq	r2, [r4, #28]
 80014da:	6b1a      	ldrne	r2, [r3, #48]	@ 0x30
 80014dc:	f102 32ff 	addeq.w	r2, r2, #4294967295	@ 0xffffffff
 80014e0:	bf06      	itte	eq
 80014e2:	f021 010f 	biceq.w	r1, r1, #15
 80014e6:	430a      	orreq	r2, r1
 80014e8:	f022 020f 	bicne.w	r2, r2, #15
 80014ec:	631a      	str	r2, [r3, #48]	@ 0x30
 80014ee:	2300      	movs	r3, #0
 80014f0:	6463      	str	r3, [r4, #68]	@ 0x44
 80014f2:	6c23      	ldr	r3, [r4, #64]	@ 0x40
 80014f4:	f023 0303 	bic.w	r3, r3, #3
 80014f8:	f043 0301 	orr.w	r3, r3, #1
 80014fc:	6423      	str	r3, [r4, #64]	@ 0x40
 80014fe:	b003      	add	sp, #12
 8001500:	bd30      	pop	{r4, r5, pc}
 8001502:	460a      	mov	r2, r1
 8001504:	e74d      	b.n	80013a2 <HAL_ADC_Init+0x82>
 8001506:	6c21      	ldr	r1, [r4, #64]	@ 0x40
 8001508:	f021 0122 	bic.w	r1, r1, #34	@ 0x22
 800150c:	f041 0120 	orr.w	r1, r1, #32
 8001510:	6421      	str	r1, [r4, #64]	@ 0x40
 8001512:	6c61      	ldr	r1, [r4, #68]	@ 0x44
 8001514:	f041 0101 	orr.w	r1, r1, #1
 8001518:	6461      	str	r1, [r4, #68]	@ 0x44
 800151a:	e7aa      	b.n	8001472 <HAL_ADC_Init+0x152>
 800151c:	f44f 71e0 	mov.w	r1, #448	@ 0x1c0
 8001520:	e7bc      	b.n	800149c <HAL_ADC_Init+0x17c>
 8001522:	f44f 7130 	mov.w	r1, #704	@ 0x2c0
 8001526:	e7b9      	b.n	800149c <HAL_ADC_Init+0x17c>
 8001528:	6c23      	ldr	r3, [r4, #64]	@ 0x40
 800152a:	f023 0312 	bic.w	r3, r3, #18
 800152e:	f043 0310 	orr.w	r3, r3, #16
 8001532:	6423      	str	r3, [r4, #64]	@ 0x40
 8001534:	2001      	movs	r0, #1
 8001536:	e7e2      	b.n	80014fe <HAL_ADC_Init+0x1de>
 8001538:	50000100 	.word	0x50000100
 800153c:	50000500 	.word	0x50000500
 8001540:	50000700 	.word	0x50000700
 8001544:	20000000 	.word	0x20000000
 8001548:	000f4240 	.word	0x000f4240
 800154c:	50000300 	.word	0x50000300
 8001550:	50000400 	.word	0x50000400
 8001554:	fff0c007 	.word	0xfff0c007

08001558 <HAL_ADC_Start_DMA>:
 8001558:	e92d 41d8 	stmdb	sp!, {r3, r4, r6, r7, r8, lr}
 800155c:	6803      	ldr	r3, [r0, #0]
 800155e:	4690      	mov	r8, r2
 8001560:	689a      	ldr	r2, [r3, #8]
 8001562:	0752      	lsls	r2, r2, #29
 8001564:	4604      	mov	r4, r0
 8001566:	460f      	mov	r7, r1
 8001568:	f100 808e 	bmi.w	8001688 <HAL_ADC_Start_DMA+0x130>
 800156c:	f890 203c 	ldrb.w	r2, [r0, #60]	@ 0x3c
 8001570:	2a01      	cmp	r2, #1
 8001572:	f000 8089 	beq.w	8001688 <HAL_ADC_Start_DMA+0x130>
 8001576:	2201      	movs	r2, #1
 8001578:	f1b3 4fa0 	cmp.w	r3, #1342177280	@ 0x50000000
 800157c:	f880 203c 	strb.w	r2, [r0, #60]	@ 0x3c
 8001580:	d002      	beq.n	8001588 <HAL_ADC_Start_DMA+0x30>
 8001582:	4a42      	ldr	r2, [pc, #264]	@ (800168c <HAL_ADC_Start_DMA+0x134>)
 8001584:	4293      	cmp	r3, r2
 8001586:	d15a      	bne.n	800163e <HAL_ADC_Start_DMA+0xe6>
 8001588:	4b41      	ldr	r3, [pc, #260]	@ (8001690 <HAL_ADC_Start_DMA+0x138>)
 800158a:	689b      	ldr	r3, [r3, #8]
 800158c:	f013 0f1f 	tst.w	r3, #31
 8001590:	bf0c      	ite	eq
 8001592:	2301      	moveq	r3, #1
 8001594:	2300      	movne	r3, #0
 8001596:	2b00      	cmp	r3, #0
 8001598:	d072      	beq.n	8001680 <HAL_ADC_Start_DMA+0x128>
 800159a:	4620      	mov	r0, r4
 800159c:	f7ff fe5e 	bl	800125c <ADC_Enable>
 80015a0:	4606      	mov	r6, r0
 80015a2:	2800      	cmp	r0, #0
 80015a4:	d168      	bne.n	8001678 <HAL_ADC_Start_DMA+0x120>
 80015a6:	6c20      	ldr	r0, [r4, #64]	@ 0x40
 80015a8:	6821      	ldr	r1, [r4, #0]
 80015aa:	f420 6070 	bic.w	r0, r0, #3840	@ 0xf00
 80015ae:	f020 0001 	bic.w	r0, r0, #1
 80015b2:	f440 7080 	orr.w	r0, r0, #256	@ 0x100
 80015b6:	f1b1 4fa0 	cmp.w	r1, #1342177280	@ 0x50000000
 80015ba:	6420      	str	r0, [r4, #64]	@ 0x40
 80015bc:	d002      	beq.n	80015c4 <HAL_ADC_Start_DMA+0x6c>
 80015be:	4b33      	ldr	r3, [pc, #204]	@ (800168c <HAL_ADC_Start_DMA+0x134>)
 80015c0:	4299      	cmp	r1, r3
 80015c2:	d13e      	bne.n	8001642 <HAL_ADC_Start_DMA+0xea>
 80015c4:	4b32      	ldr	r3, [pc, #200]	@ (8001690 <HAL_ADC_Start_DMA+0x138>)
 80015c6:	689b      	ldr	r3, [r3, #8]
 80015c8:	06db      	lsls	r3, r3, #27
 80015ca:	d002      	beq.n	80015d2 <HAL_ADC_Start_DMA+0x7a>
 80015cc:	f1b1 4fa0 	cmp.w	r1, #1342177280	@ 0x50000000
 80015d0:	d13e      	bne.n	8001650 <HAL_ADC_Start_DMA+0xf8>
 80015d2:	6c23      	ldr	r3, [r4, #64]	@ 0x40
 80015d4:	f423 1380 	bic.w	r3, r3, #1048576	@ 0x100000
 80015d8:	6423      	str	r3, [r4, #64]	@ 0x40
 80015da:	68cb      	ldr	r3, [r1, #12]
 80015dc:	019a      	lsls	r2, r3, #6
 80015de:	d505      	bpl.n	80015ec <HAL_ADC_Start_DMA+0x94>
 80015e0:	6c23      	ldr	r3, [r4, #64]	@ 0x40
 80015e2:	f423 5340 	bic.w	r3, r3, #12288	@ 0x3000
 80015e6:	f443 5380 	orr.w	r3, r3, #4096	@ 0x1000
 80015ea:	6423      	str	r3, [r4, #64]	@ 0x40
 80015ec:	6c23      	ldr	r3, [r4, #64]	@ 0x40
 80015ee:	6ba0      	ldr	r0, [r4, #56]	@ 0x38
 80015f0:	f413 5380 	ands.w	r3, r3, #4096	@ 0x1000
 80015f4:	bf1c      	itt	ne
 80015f6:	6c63      	ldrne	r3, [r4, #68]	@ 0x44
 80015f8:	f023 0306 	bicne.w	r3, r3, #6
 80015fc:	6463      	str	r3, [r4, #68]	@ 0x44
 80015fe:	2300      	movs	r3, #0
 8001600:	f884 303c 	strb.w	r3, [r4, #60]	@ 0x3c
 8001604:	4b23      	ldr	r3, [pc, #140]	@ (8001694 <HAL_ADC_Start_DMA+0x13c>)
 8001606:	6283      	str	r3, [r0, #40]	@ 0x28
 8001608:	4b23      	ldr	r3, [pc, #140]	@ (8001698 <HAL_ADC_Start_DMA+0x140>)
 800160a:	62c3      	str	r3, [r0, #44]	@ 0x2c
 800160c:	4b23      	ldr	r3, [pc, #140]	@ (800169c <HAL_ADC_Start_DMA+0x144>)
 800160e:	6303      	str	r3, [r0, #48]	@ 0x30
 8001610:	231c      	movs	r3, #28
 8001612:	600b      	str	r3, [r1, #0]
 8001614:	684b      	ldr	r3, [r1, #4]
 8001616:	f043 0310 	orr.w	r3, r3, #16
 800161a:	604b      	str	r3, [r1, #4]
 800161c:	68cb      	ldr	r3, [r1, #12]
 800161e:	f043 0301 	orr.w	r3, r3, #1
 8001622:	60cb      	str	r3, [r1, #12]
 8001624:	463a      	mov	r2, r7
 8001626:	4643      	mov	r3, r8
 8001628:	3140      	adds	r1, #64	@ 0x40
 800162a:	f000 fd21 	bl	8002070 <HAL_DMA_Start_IT>
 800162e:	6822      	ldr	r2, [r4, #0]
 8001630:	6893      	ldr	r3, [r2, #8]
 8001632:	f043 0304 	orr.w	r3, r3, #4
 8001636:	6093      	str	r3, [r2, #8]
 8001638:	4630      	mov	r0, r6
 800163a:	e8bd 81d8 	ldmia.w	sp!, {r3, r4, r6, r7, r8, pc}
 800163e:	4b18      	ldr	r3, [pc, #96]	@ (80016a0 <HAL_ADC_Start_DMA+0x148>)
 8001640:	e7a3      	b.n	800158a <HAL_ADC_Start_DMA+0x32>
 8001642:	4b17      	ldr	r3, [pc, #92]	@ (80016a0 <HAL_ADC_Start_DMA+0x148>)
 8001644:	689b      	ldr	r3, [r3, #8]
 8001646:	06d8      	lsls	r0, r3, #27
 8001648:	d0c3      	beq.n	80015d2 <HAL_ADC_Start_DMA+0x7a>
 800164a:	4b16      	ldr	r3, [pc, #88]	@ (80016a4 <HAL_ADC_Start_DMA+0x14c>)
 800164c:	4299      	cmp	r1, r3
 800164e:	e7bf      	b.n	80015d0 <HAL_ADC_Start_DMA+0x78>
 8001650:	6c23      	ldr	r3, [r4, #64]	@ 0x40
 8001652:	f443 1380 	orr.w	r3, r3, #1048576	@ 0x100000
 8001656:	6423      	str	r3, [r4, #64]	@ 0x40
 8001658:	4b0c      	ldr	r3, [pc, #48]	@ (800168c <HAL_ADC_Start_DMA+0x134>)
 800165a:	4299      	cmp	r1, r3
 800165c:	bf14      	ite	ne
 800165e:	4b11      	ldrne	r3, [pc, #68]	@ (80016a4 <HAL_ADC_Start_DMA+0x14c>)
 8001660:	f04f 43a0 	moveq.w	r3, #1342177280	@ 0x50000000
 8001664:	68db      	ldr	r3, [r3, #12]
 8001666:	019b      	lsls	r3, r3, #6
 8001668:	bf41      	itttt	mi
 800166a:	6c20      	ldrmi	r0, [r4, #64]	@ 0x40
 800166c:	f420 5040 	bicmi.w	r0, r0, #12288	@ 0x3000
 8001670:	f440 5080 	orrmi.w	r0, r0, #4096	@ 0x1000
 8001674:	6420      	strmi	r0, [r4, #64]	@ 0x40
 8001676:	e7b9      	b.n	80015ec <HAL_ADC_Start_DMA+0x94>
 8001678:	2300      	movs	r3, #0
 800167a:	f884 303c 	strb.w	r3, [r4, #60]	@ 0x3c
 800167e:	e7db      	b.n	8001638 <HAL_ADC_Start_DMA+0xe0>
 8001680:	f884 303c 	strb.w	r3, [r4, #60]	@ 0x3c
 8001684:	2601      	movs	r6, #1
 8001686:	e7d7      	b.n	8001638 <HAL_ADC_Start_DMA+0xe0>
 8001688:	2602      	movs	r6, #2
 800168a:	e7d5      	b.n	8001638 <HAL_ADC_Start_DMA+0xe0>
 800168c:	50000100 	.word	0x50000100
 8001690:	50000300 	.word	0x50000300
 8001694:	080012dd 	.word	0x080012dd
 8001698:	080012d7 	.word	0x080012d7
 800169c:	080012c1 	.word	0x080012c1
 80016a0:	50000700 	.word	0x50000700
 80016a4:	50000400 	.word	0x50000400

080016a8 <HAL_ADC_Stop_DMA>:
 80016a8:	b538      	push	{r3, r4, r5, lr}
 80016aa:	f890 303c 	ldrb.w	r3, [r0, #60]	@ 0x3c
 80016ae:	2b01      	cmp	r3, #1
 80016b0:	4605      	mov	r5, r0
 80016b2:	d035      	beq.n	8001720 <HAL_ADC_Stop_DMA+0x78>
 80016b4:	2301      	movs	r3, #1
 80016b6:	f880 303c 	strb.w	r3, [r0, #60]	@ 0x3c
 80016ba:	216c      	movs	r1, #108	@ 0x6c
 80016bc:	f7ff fd76 	bl	80011ac <ADC_ConversionStop>
 80016c0:	4604      	mov	r4, r0
 80016c2:	b9e0      	cbnz	r0, 80016fe <HAL_ADC_Stop_DMA+0x56>
 80016c4:	682a      	ldr	r2, [r5, #0]
 80016c6:	6ba8      	ldr	r0, [r5, #56]	@ 0x38
 80016c8:	68d3      	ldr	r3, [r2, #12]
 80016ca:	f023 0301 	bic.w	r3, r3, #1
 80016ce:	60d3      	str	r3, [r2, #12]
 80016d0:	f890 3021 	ldrb.w	r3, [r0, #33]	@ 0x21
 80016d4:	2b02      	cmp	r3, #2
 80016d6:	d107      	bne.n	80016e8 <HAL_ADC_Stop_DMA+0x40>
 80016d8:	f000 fd05 	bl	80020e6 <HAL_DMA_Abort>
 80016dc:	4604      	mov	r4, r0
 80016de:	b118      	cbz	r0, 80016e8 <HAL_ADC_Stop_DMA+0x40>
 80016e0:	6c2b      	ldr	r3, [r5, #64]	@ 0x40
 80016e2:	f043 0340 	orr.w	r3, r3, #64	@ 0x40
 80016e6:	642b      	str	r3, [r5, #64]	@ 0x40
 80016e8:	682a      	ldr	r2, [r5, #0]
 80016ea:	6853      	ldr	r3, [r2, #4]
 80016ec:	f023 0310 	bic.w	r3, r3, #16
 80016f0:	6053      	str	r3, [r2, #4]
 80016f2:	4628      	mov	r0, r5
 80016f4:	b944      	cbnz	r4, 8001708 <HAL_ADC_Stop_DMA+0x60>
 80016f6:	f7ff fd26 	bl	8001146 <ADC_Disable>
 80016fa:	4604      	mov	r4, r0
 80016fc:	b138      	cbz	r0, 800170e <HAL_ADC_Stop_DMA+0x66>
 80016fe:	2300      	movs	r3, #0
 8001700:	f885 303c 	strb.w	r3, [r5, #60]	@ 0x3c
 8001704:	4620      	mov	r0, r4
 8001706:	bd38      	pop	{r3, r4, r5, pc}
 8001708:	f7ff fd1d 	bl	8001146 <ADC_Disable>
 800170c:	e7f7      	b.n	80016fe <HAL_ADC_Stop_DMA+0x56>
 800170e:	6c2b      	ldr	r3, [r5, #64]	@ 0x40
 8001710:	f423 5388 	bic.w	r3, r3, #4352	@ 0x1100
 8001714:	f023 0301 	bic.w	r3, r3, #1
 8001718:	f043 0301 	orr.w	r3, r3, #1
 800171c:	642b      	str	r3, [r5, #64]	@ 0x40
 800171e:	e7ee      	b.n	80016fe <HAL_ADC_Stop_DMA+0x56>
 8001720:	2402      	movs	r4, #2
 8001722:	e7ef      	b.n	8001704 <HAL_ADC_Stop_DMA+0x5c>

08001724 <HAL_ADCEx_InjectedConvCpltCallback>:
 8001724:	4770      	bx	lr

08001726 <HAL_ADCEx_InjectedQueueOverflowCallback>:
 8001726:	4770      	bx	lr

08001728 <HAL_ADCEx_LevelOutOfWindow2Callback>:
 8001728:	4770      	bx	lr

0800172a <HAL_ADCEx_LevelOutOfWindow3Callback>:
 800172a:	4770      	bx	lr

0800172c <HAL_ADC_IRQHandler>:
 800172c:	6803      	ldr	r3, [r0, #0]
 800172e:	b570      	push	{r4, r5, r6, lr}
 8001730:	681d      	ldr	r5, [r3, #0]
 8001732:	685e      	ldr	r6, [r3, #4]
 8001734:	076a      	lsls	r2, r5, #29
 8001736:	4604      	mov	r4, r0
 8001738:	d501      	bpl.n	800173e <HAL_ADC_IRQHandler+0x12>
 800173a:	0770      	lsls	r0, r6, #29
 800173c:	d403      	bmi.n	8001746 <HAL_ADC_IRQHandler+0x1a>
 800173e:	0729      	lsls	r1, r5, #28
 8001740:	d53c      	bpl.n	80017bc <HAL_ADC_IRQHandler+0x90>
 8001742:	0732      	lsls	r2, r6, #28
 8001744:	d53a      	bpl.n	80017bc <HAL_ADC_IRQHandler+0x90>
 8001746:	6c22      	ldr	r2, [r4, #64]	@ 0x40
 8001748:	06d0      	lsls	r0, r2, #27
 800174a:	bf5e      	ittt	pl
 800174c:	6c22      	ldrpl	r2, [r4, #64]	@ 0x40
 800174e:	f442 7200 	orrpl.w	r2, r2, #512	@ 0x200
 8001752:	6422      	strpl	r2, [r4, #64]	@ 0x40
 8001754:	f1b3 4fa0 	cmp.w	r3, #1342177280	@ 0x50000000
 8001758:	d003      	beq.n	8001762 <HAL_ADC_IRQHandler+0x36>
 800175a:	4a90      	ldr	r2, [pc, #576]	@ (800199c <HAL_ADC_IRQHandler+0x270>)
 800175c:	4293      	cmp	r3, r2
 800175e:	f040 80f0 	bne.w	8001942 <HAL_ADC_IRQHandler+0x216>
 8001762:	4a8f      	ldr	r2, [pc, #572]	@ (80019a0 <HAL_ADC_IRQHandler+0x274>)
 8001764:	6891      	ldr	r1, [r2, #8]
 8001766:	06c9      	lsls	r1, r1, #27
 8001768:	d005      	beq.n	8001776 <HAL_ADC_IRQHandler+0x4a>
 800176a:	6891      	ldr	r1, [r2, #8]
 800176c:	f001 011f 	and.w	r1, r1, #31
 8001770:	2905      	cmp	r1, #5
 8001772:	f040 80fb 	bne.w	800196c <HAL_ADC_IRQHandler+0x240>
 8001776:	68da      	ldr	r2, [r3, #12]
 8001778:	68d9      	ldr	r1, [r3, #12]
 800177a:	f402 5200 	and.w	r2, r2, #8192	@ 0x2000
 800177e:	f401 6140 	and.w	r1, r1, #3072	@ 0xc00
 8001782:	4311      	orrs	r1, r2
 8001784:	d114      	bne.n	80017b0 <HAL_ADC_IRQHandler+0x84>
 8001786:	0729      	lsls	r1, r5, #28
 8001788:	d512      	bpl.n	80017b0 <HAL_ADC_IRQHandler+0x84>
 800178a:	689a      	ldr	r2, [r3, #8]
 800178c:	0752      	lsls	r2, r2, #29
 800178e:	f100 80fb 	bmi.w	8001988 <HAL_ADC_IRQHandler+0x25c>
 8001792:	685a      	ldr	r2, [r3, #4]
 8001794:	f022 020c 	bic.w	r2, r2, #12
 8001798:	605a      	str	r2, [r3, #4]
 800179a:	6c23      	ldr	r3, [r4, #64]	@ 0x40
 800179c:	f423 7380 	bic.w	r3, r3, #256	@ 0x100
 80017a0:	6423      	str	r3, [r4, #64]	@ 0x40
 80017a2:	6c23      	ldr	r3, [r4, #64]	@ 0x40
 80017a4:	04d8      	lsls	r0, r3, #19
 80017a6:	d403      	bmi.n	80017b0 <HAL_ADC_IRQHandler+0x84>
 80017a8:	6c23      	ldr	r3, [r4, #64]	@ 0x40
 80017aa:	f043 0301 	orr.w	r3, r3, #1
 80017ae:	6423      	str	r3, [r4, #64]	@ 0x40
 80017b0:	4620      	mov	r0, r4
 80017b2:	f7ff f923 	bl	80009fc <HAL_ADC_ConvCpltCallback>
 80017b6:	6823      	ldr	r3, [r4, #0]
 80017b8:	220c      	movs	r2, #12
 80017ba:	601a      	str	r2, [r3, #0]
 80017bc:	06a9      	lsls	r1, r5, #26
 80017be:	d501      	bpl.n	80017c4 <HAL_ADC_IRQHandler+0x98>
 80017c0:	06b2      	lsls	r2, r6, #26
 80017c2:	d403      	bmi.n	80017cc <HAL_ADC_IRQHandler+0xa0>
 80017c4:	066b      	lsls	r3, r5, #25
 80017c6:	d554      	bpl.n	8001872 <HAL_ADC_IRQHandler+0x146>
 80017c8:	0670      	lsls	r0, r6, #25
 80017ca:	d552      	bpl.n	8001872 <HAL_ADC_IRQHandler+0x146>
 80017cc:	6c23      	ldr	r3, [r4, #64]	@ 0x40
 80017ce:	f443 5300 	orr.w	r3, r3, #8192	@ 0x2000
 80017d2:	6423      	str	r3, [r4, #64]	@ 0x40
 80017d4:	6823      	ldr	r3, [r4, #0]
 80017d6:	f1b3 4fa0 	cmp.w	r3, #1342177280	@ 0x50000000
 80017da:	d003      	beq.n	80017e4 <HAL_ADC_IRQHandler+0xb8>
 80017dc:	4a6f      	ldr	r2, [pc, #444]	@ (800199c <HAL_ADC_IRQHandler+0x270>)
 80017de:	4293      	cmp	r3, r2
 80017e0:	f040 80e4 	bne.w	80019ac <HAL_ADC_IRQHandler+0x280>
 80017e4:	4a6e      	ldr	r2, [pc, #440]	@ (80019a0 <HAL_ADC_IRQHandler+0x274>)
 80017e6:	6891      	ldr	r1, [r2, #8]
 80017e8:	06c9      	lsls	r1, r1, #27
 80017ea:	d005      	beq.n	80017f8 <HAL_ADC_IRQHandler+0xcc>
 80017ec:	6891      	ldr	r1, [r2, #8]
 80017ee:	f001 011f 	and.w	r1, r1, #31
 80017f2:	2905      	cmp	r1, #5
 80017f4:	f040 80ef 	bne.w	80019d6 <HAL_ADC_IRQHandler+0x2aa>
 80017f8:	68da      	ldr	r2, [r3, #12]
 80017fa:	6cd9      	ldr	r1, [r3, #76]	@ 0x4c
 80017fc:	f011 0fc0 	tst.w	r1, #192	@ 0xc0
 8001800:	d131      	bne.n	8001866 <HAL_ADC_IRQHandler+0x13a>
 8001802:	0191      	lsls	r1, r2, #6
 8001804:	d506      	bpl.n	8001814 <HAL_ADC_IRQHandler+0xe8>
 8001806:	68d9      	ldr	r1, [r3, #12]
 8001808:	f402 5200 	and.w	r2, r2, #8192	@ 0x2000
 800180c:	f401 6140 	and.w	r1, r1, #3072	@ 0xc00
 8001810:	4311      	orrs	r1, r2
 8001812:	d128      	bne.n	8001866 <HAL_ADC_IRQHandler+0x13a>
 8001814:	0668      	lsls	r0, r5, #25
 8001816:	d526      	bpl.n	8001866 <HAL_ADC_IRQHandler+0x13a>
 8001818:	f1b3 4fa0 	cmp.w	r3, #1342177280	@ 0x50000000
 800181c:	d003      	beq.n	8001826 <HAL_ADC_IRQHandler+0xfa>
 800181e:	4a5f      	ldr	r2, [pc, #380]	@ (800199c <HAL_ADC_IRQHandler+0x270>)
 8001820:	4293      	cmp	r3, r2
 8001822:	f040 80e6 	bne.w	80019f2 <HAL_ADC_IRQHandler+0x2c6>
 8001826:	4a5e      	ldr	r2, [pc, #376]	@ (80019a0 <HAL_ADC_IRQHandler+0x274>)
 8001828:	6891      	ldr	r1, [r2, #8]
 800182a:	06c9      	lsls	r1, r1, #27
 800182c:	d005      	beq.n	800183a <HAL_ADC_IRQHandler+0x10e>
 800182e:	6891      	ldr	r1, [r2, #8]
 8001830:	f001 011f 	and.w	r1, r1, #31
 8001834:	2906      	cmp	r1, #6
 8001836:	f040 80f1 	bne.w	8001a1c <HAL_ADC_IRQHandler+0x2f0>
 800183a:	68da      	ldr	r2, [r3, #12]
 800183c:	0291      	lsls	r1, r2, #10
 800183e:	d412      	bmi.n	8001866 <HAL_ADC_IRQHandler+0x13a>
 8001840:	689a      	ldr	r2, [r3, #8]
 8001842:	0712      	lsls	r2, r2, #28
 8001844:	f100 80f8 	bmi.w	8001a38 <HAL_ADC_IRQHandler+0x30c>
 8001848:	685a      	ldr	r2, [r3, #4]
 800184a:	f022 0260 	bic.w	r2, r2, #96	@ 0x60
 800184e:	605a      	str	r2, [r3, #4]
 8001850:	6c23      	ldr	r3, [r4, #64]	@ 0x40
 8001852:	f423 5380 	bic.w	r3, r3, #4096	@ 0x1000
 8001856:	6423      	str	r3, [r4, #64]	@ 0x40
 8001858:	6c23      	ldr	r3, [r4, #64]	@ 0x40
 800185a:	05d8      	lsls	r0, r3, #23
 800185c:	d403      	bmi.n	8001866 <HAL_ADC_IRQHandler+0x13a>
 800185e:	6c23      	ldr	r3, [r4, #64]	@ 0x40
 8001860:	f043 0301 	orr.w	r3, r3, #1
 8001864:	6423      	str	r3, [r4, #64]	@ 0x40
 8001866:	4620      	mov	r0, r4
 8001868:	f7ff ff5c 	bl	8001724 <HAL_ADCEx_InjectedConvCpltCallback>
 800186c:	6823      	ldr	r3, [r4, #0]
 800186e:	2260      	movs	r2, #96	@ 0x60
 8001870:	601a      	str	r2, [r3, #0]
 8001872:	0629      	lsls	r1, r5, #24
 8001874:	d50b      	bpl.n	800188e <HAL_ADC_IRQHandler+0x162>
 8001876:	0632      	lsls	r2, r6, #24
 8001878:	d509      	bpl.n	800188e <HAL_ADC_IRQHandler+0x162>
 800187a:	6c23      	ldr	r3, [r4, #64]	@ 0x40
 800187c:	f443 3380 	orr.w	r3, r3, #65536	@ 0x10000
 8001880:	6423      	str	r3, [r4, #64]	@ 0x40
 8001882:	4620      	mov	r0, r4
 8001884:	f7ff fc5d 	bl	8001142 <HAL_ADC_LevelOutOfWindowCallback>
 8001888:	6823      	ldr	r3, [r4, #0]
 800188a:	2280      	movs	r2, #128	@ 0x80
 800188c:	601a      	str	r2, [r3, #0]
 800188e:	05eb      	lsls	r3, r5, #23
 8001890:	d50c      	bpl.n	80018ac <HAL_ADC_IRQHandler+0x180>
 8001892:	05f0      	lsls	r0, r6, #23
 8001894:	d50a      	bpl.n	80018ac <HAL_ADC_IRQHandler+0x180>
 8001896:	6c23      	ldr	r3, [r4, #64]	@ 0x40
 8001898:	f443 3300 	orr.w	r3, r3, #131072	@ 0x20000
 800189c:	6423      	str	r3, [r4, #64]	@ 0x40
 800189e:	4620      	mov	r0, r4
 80018a0:	f7ff ff42 	bl	8001728 <HAL_ADCEx_LevelOutOfWindow2Callback>
 80018a4:	6823      	ldr	r3, [r4, #0]
 80018a6:	f44f 7280 	mov.w	r2, #256	@ 0x100
 80018aa:	601a      	str	r2, [r3, #0]
 80018ac:	05a9      	lsls	r1, r5, #22
 80018ae:	d50c      	bpl.n	80018ca <HAL_ADC_IRQHandler+0x19e>
 80018b0:	05b2      	lsls	r2, r6, #22
 80018b2:	d50a      	bpl.n	80018ca <HAL_ADC_IRQHandler+0x19e>
 80018b4:	6c23      	ldr	r3, [r4, #64]	@ 0x40
 80018b6:	f443 2380 	orr.w	r3, r3, #262144	@ 0x40000
 80018ba:	6423      	str	r3, [r4, #64]	@ 0x40
 80018bc:	4620      	mov	r0, r4
 80018be:	f7ff ff34 	bl	800172a <HAL_ADCEx_LevelOutOfWindow3Callback>
 80018c2:	6823      	ldr	r3, [r4, #0]
 80018c4:	f44f 7200 	mov.w	r2, #512	@ 0x200
 80018c8:	601a      	str	r2, [r3, #0]
 80018ca:	06eb      	lsls	r3, r5, #27
 80018cc:	d525      	bpl.n	800191a <HAL_ADC_IRQHandler+0x1ee>
 80018ce:	06f0      	lsls	r0, r6, #27
 80018d0:	d523      	bpl.n	800191a <HAL_ADC_IRQHandler+0x1ee>
 80018d2:	6b63      	ldr	r3, [r4, #52]	@ 0x34
 80018d4:	2b01      	cmp	r3, #1
 80018d6:	d012      	beq.n	80018fe <HAL_ADC_IRQHandler+0x1d2>
 80018d8:	6822      	ldr	r2, [r4, #0]
 80018da:	f1b2 4fa0 	cmp.w	r2, #1342177280	@ 0x50000000
 80018de:	f000 80b4 	beq.w	8001a4a <HAL_ADC_IRQHandler+0x31e>
 80018e2:	482e      	ldr	r0, [pc, #184]	@ (800199c <HAL_ADC_IRQHandler+0x270>)
 80018e4:	4b2e      	ldr	r3, [pc, #184]	@ (80019a0 <HAL_ADC_IRQHandler+0x274>)
 80018e6:	492f      	ldr	r1, [pc, #188]	@ (80019a4 <HAL_ADC_IRQHandler+0x278>)
 80018e8:	4282      	cmp	r2, r0
 80018ea:	bf18      	it	ne
 80018ec:	460b      	movne	r3, r1
 80018ee:	6899      	ldr	r1, [r3, #8]
 80018f0:	06c9      	lsls	r1, r1, #27
 80018f2:	f040 80ac 	bne.w	8001a4e <HAL_ADC_IRQHandler+0x322>
 80018f6:	68d3      	ldr	r3, [r2, #12]
 80018f8:	f013 0f01 	tst.w	r3, #1
 80018fc:	d00a      	beq.n	8001914 <HAL_ADC_IRQHandler+0x1e8>
 80018fe:	6c23      	ldr	r3, [r4, #64]	@ 0x40
 8001900:	f443 6380 	orr.w	r3, r3, #1024	@ 0x400
 8001904:	6423      	str	r3, [r4, #64]	@ 0x40
 8001906:	6c63      	ldr	r3, [r4, #68]	@ 0x44
 8001908:	f043 0302 	orr.w	r3, r3, #2
 800190c:	6463      	str	r3, [r4, #68]	@ 0x44
 800190e:	4620      	mov	r0, r4
 8001910:	f7ff fc18 	bl	8001144 <HAL_ADC_ErrorCallback>
 8001914:	6823      	ldr	r3, [r4, #0]
 8001916:	2210      	movs	r2, #16
 8001918:	601a      	str	r2, [r3, #0]
 800191a:	056a      	lsls	r2, r5, #21
 800191c:	d510      	bpl.n	8001940 <HAL_ADC_IRQHandler+0x214>
 800191e:	0573      	lsls	r3, r6, #21
 8001920:	d50e      	bpl.n	8001940 <HAL_ADC_IRQHandler+0x214>
 8001922:	6c23      	ldr	r3, [r4, #64]	@ 0x40
 8001924:	f443 4380 	orr.w	r3, r3, #16384	@ 0x4000
 8001928:	6423      	str	r3, [r4, #64]	@ 0x40
 800192a:	6c63      	ldr	r3, [r4, #68]	@ 0x44
 800192c:	f043 0308 	orr.w	r3, r3, #8
 8001930:	6463      	str	r3, [r4, #68]	@ 0x44
 8001932:	6823      	ldr	r3, [r4, #0]
 8001934:	f44f 6280 	mov.w	r2, #1024	@ 0x400
 8001938:	601a      	str	r2, [r3, #0]
 800193a:	4620      	mov	r0, r4
 800193c:	f7ff fef3 	bl	8001726 <HAL_ADCEx_InjectedQueueOverflowCallback>
 8001940:	bd70      	pop	{r4, r5, r6, pc}
 8001942:	4a18      	ldr	r2, [pc, #96]	@ (80019a4 <HAL_ADC_IRQHandler+0x278>)
 8001944:	6891      	ldr	r1, [r2, #8]
 8001946:	06c8      	lsls	r0, r1, #27
 8001948:	f43f af15 	beq.w	8001776 <HAL_ADC_IRQHandler+0x4a>
 800194c:	6891      	ldr	r1, [r2, #8]
 800194e:	f001 011f 	and.w	r1, r1, #31
 8001952:	2905      	cmp	r1, #5
 8001954:	f43f af0f 	beq.w	8001776 <HAL_ADC_IRQHandler+0x4a>
 8001958:	6892      	ldr	r2, [r2, #8]
 800195a:	f002 021f 	and.w	r2, r2, #31
 800195e:	2a09      	cmp	r2, #9
 8001960:	f43f af09 	beq.w	8001776 <HAL_ADC_IRQHandler+0x4a>
 8001964:	4a10      	ldr	r2, [pc, #64]	@ (80019a8 <HAL_ADC_IRQHandler+0x27c>)
 8001966:	4293      	cmp	r3, r2
 8001968:	d10c      	bne.n	8001984 <HAL_ADC_IRQHandler+0x258>
 800196a:	e704      	b.n	8001776 <HAL_ADC_IRQHandler+0x4a>
 800196c:	6892      	ldr	r2, [r2, #8]
 800196e:	f002 021f 	and.w	r2, r2, #31
 8001972:	2a09      	cmp	r2, #9
 8001974:	f43f aeff 	beq.w	8001776 <HAL_ADC_IRQHandler+0x4a>
 8001978:	f1b3 4fa0 	cmp.w	r3, #1342177280	@ 0x50000000
 800197c:	f43f aefb 	beq.w	8001776 <HAL_ADC_IRQHandler+0x4a>
 8001980:	f04f 42a0 	mov.w	r2, #1342177280	@ 0x50000000
 8001984:	68d2      	ldr	r2, [r2, #12]
 8001986:	e6f7      	b.n	8001778 <HAL_ADC_IRQHandler+0x4c>
 8001988:	6c23      	ldr	r3, [r4, #64]	@ 0x40
 800198a:	f043 0310 	orr.w	r3, r3, #16
 800198e:	6423      	str	r3, [r4, #64]	@ 0x40
 8001990:	6c63      	ldr	r3, [r4, #68]	@ 0x44
 8001992:	f043 0301 	orr.w	r3, r3, #1
 8001996:	6463      	str	r3, [r4, #68]	@ 0x44
 8001998:	e70a      	b.n	80017b0 <HAL_ADC_IRQHandler+0x84>
 800199a:	bf00      	nop
 800199c:	50000100 	.word	0x50000100
 80019a0:	50000300 	.word	0x50000300
 80019a4:	50000700 	.word	0x50000700
 80019a8:	50000400 	.word	0x50000400
 80019ac:	4a2a      	ldr	r2, [pc, #168]	@ (8001a58 <HAL_ADC_IRQHandler+0x32c>)
 80019ae:	6891      	ldr	r1, [r2, #8]
 80019b0:	06c8      	lsls	r0, r1, #27
 80019b2:	f43f af21 	beq.w	80017f8 <HAL_ADC_IRQHandler+0xcc>
 80019b6:	6891      	ldr	r1, [r2, #8]
 80019b8:	f001 011f 	and.w	r1, r1, #31
 80019bc:	2905      	cmp	r1, #5
 80019be:	f43f af1b 	beq.w	80017f8 <HAL_ADC_IRQHandler+0xcc>
 80019c2:	6892      	ldr	r2, [r2, #8]
 80019c4:	f002 021f 	and.w	r2, r2, #31
 80019c8:	2a09      	cmp	r2, #9
 80019ca:	f43f af15 	beq.w	80017f8 <HAL_ADC_IRQHandler+0xcc>
 80019ce:	4a23      	ldr	r2, [pc, #140]	@ (8001a5c <HAL_ADC_IRQHandler+0x330>)
 80019d0:	4293      	cmp	r3, r2
 80019d2:	d10c      	bne.n	80019ee <HAL_ADC_IRQHandler+0x2c2>
 80019d4:	e710      	b.n	80017f8 <HAL_ADC_IRQHandler+0xcc>
 80019d6:	6892      	ldr	r2, [r2, #8]
 80019d8:	f002 021f 	and.w	r2, r2, #31
 80019dc:	2a09      	cmp	r2, #9
 80019de:	f43f af0b 	beq.w	80017f8 <HAL_ADC_IRQHandler+0xcc>
 80019e2:	f1b3 4fa0 	cmp.w	r3, #1342177280	@ 0x50000000
 80019e6:	f43f af07 	beq.w	80017f8 <HAL_ADC_IRQHandler+0xcc>
 80019ea:	f04f 42a0 	mov.w	r2, #1342177280	@ 0x50000000
 80019ee:	68d2      	ldr	r2, [r2, #12]
 80019f0:	e703      	b.n	80017fa <HAL_ADC_IRQHandler+0xce>
 80019f2:	4a19      	ldr	r2, [pc, #100]	@ (8001a58 <HAL_ADC_IRQHandler+0x32c>)
 80019f4:	6891      	ldr	r1, [r2, #8]
 80019f6:	06c8      	lsls	r0, r1, #27
 80019f8:	f43f af1f 	beq.w	800183a <HAL_ADC_IRQHandler+0x10e>
 80019fc:	6891      	ldr	r1, [r2, #8]
 80019fe:	f001 011f 	and.w	r1, r1, #31
 8001a02:	2906      	cmp	r1, #6
 8001a04:	f43f af19 	beq.w	800183a <HAL_ADC_IRQHandler+0x10e>
 8001a08:	6892      	ldr	r2, [r2, #8]
 8001a0a:	f002 021f 	and.w	r2, r2, #31
 8001a0e:	2a07      	cmp	r2, #7
 8001a10:	f43f af13 	beq.w	800183a <HAL_ADC_IRQHandler+0x10e>
 8001a14:	4a11      	ldr	r2, [pc, #68]	@ (8001a5c <HAL_ADC_IRQHandler+0x330>)
 8001a16:	4293      	cmp	r3, r2
 8001a18:	d10c      	bne.n	8001a34 <HAL_ADC_IRQHandler+0x308>
 8001a1a:	e70e      	b.n	800183a <HAL_ADC_IRQHandler+0x10e>
 8001a1c:	6892      	ldr	r2, [r2, #8]
 8001a1e:	f002 021f 	and.w	r2, r2, #31
 8001a22:	2a07      	cmp	r2, #7
 8001a24:	f43f af09 	beq.w	800183a <HAL_ADC_IRQHandler+0x10e>
 8001a28:	f1b3 4fa0 	cmp.w	r3, #1342177280	@ 0x50000000
 8001a2c:	f43f af05 	beq.w	800183a <HAL_ADC_IRQHandler+0x10e>
 8001a30:	f04f 42a0 	mov.w	r2, #1342177280	@ 0x50000000
 8001a34:	68d2      	ldr	r2, [r2, #12]
 8001a36:	e701      	b.n	800183c <HAL_ADC_IRQHandler+0x110>
 8001a38:	6c23      	ldr	r3, [r4, #64]	@ 0x40
 8001a3a:	f043 0310 	orr.w	r3, r3, #16
 8001a3e:	6423      	str	r3, [r4, #64]	@ 0x40
 8001a40:	6c63      	ldr	r3, [r4, #68]	@ 0x44
 8001a42:	f043 0301 	orr.w	r3, r3, #1
 8001a46:	6463      	str	r3, [r4, #68]	@ 0x44
 8001a48:	e70d      	b.n	8001866 <HAL_ADC_IRQHandler+0x13a>
 8001a4a:	4b05      	ldr	r3, [pc, #20]	@ (8001a60 <HAL_ADC_IRQHandler+0x334>)
 8001a4c:	e74f      	b.n	80018ee <HAL_ADC_IRQHandler+0x1c2>
 8001a4e:	689b      	ldr	r3, [r3, #8]
 8001a50:	f413 4f40 	tst.w	r3, #49152	@ 0xc000
 8001a54:	e752      	b.n	80018fc <HAL_ADC_IRQHandler+0x1d0>
 8001a56:	bf00      	nop
 8001a58:	50000700 	.word	0x50000700
 8001a5c:	50000400 	.word	0x50000400
 8001a60:	50000300 	.word	0x50000300

08001a64 <HAL_ADC_ConfigChannel>:
 8001a64:	b5f7      	push	{r0, r1, r2, r4, r5, r6, r7, lr}
 8001a66:	2300      	movs	r3, #0
 8001a68:	9301      	str	r3, [sp, #4]
 8001a6a:	f890 303c 	ldrb.w	r3, [r0, #60]	@ 0x3c
 8001a6e:	2b01      	cmp	r3, #1
 8001a70:	4605      	mov	r5, r0
 8001a72:	f000 815a 	beq.w	8001d2a <HAL_ADC_ConfigChannel+0x2c6>
 8001a76:	2301      	movs	r3, #1
 8001a78:	f880 303c 	strb.w	r3, [r0, #60]	@ 0x3c
 8001a7c:	6803      	ldr	r3, [r0, #0]
 8001a7e:	689a      	ldr	r2, [r3, #8]
 8001a80:	0757      	lsls	r7, r2, #29
 8001a82:	f100 814c 	bmi.w	8001d1e <HAL_ADC_ConfigChannel+0x2ba>
 8001a86:	6848      	ldr	r0, [r1, #4]
 8001a88:	680c      	ldr	r4, [r1, #0]
 8001a8a:	2206      	movs	r2, #6
 8001a8c:	2804      	cmp	r0, #4
 8001a8e:	fb00 f202 	mul.w	r2, r0, r2
 8001a92:	d82a      	bhi.n	8001aea <HAL_ADC_ConfigChannel+0x86>
 8001a94:	6b18      	ldr	r0, [r3, #48]	@ 0x30
 8001a96:	261f      	movs	r6, #31
 8001a98:	4096      	lsls	r6, r2
 8001a9a:	ea20 0006 	bic.w	r0, r0, r6
 8001a9e:	fa04 f202 	lsl.w	r2, r4, r2
 8001aa2:	4302      	orrs	r2, r0
 8001aa4:	631a      	str	r2, [r3, #48]	@ 0x30
 8001aa6:	689a      	ldr	r2, [r3, #8]
 8001aa8:	f012 0f0c 	tst.w	r2, #12
 8001aac:	d152      	bne.n	8001b54 <HAL_ADC_ConfigChannel+0xf0>
 8001aae:	2c09      	cmp	r4, #9
 8001ab0:	688a      	ldr	r2, [r1, #8]
 8001ab2:	eb04 0044 	add.w	r0, r4, r4, lsl #1
 8001ab6:	f04f 0607 	mov.w	r6, #7
 8001aba:	d93b      	bls.n	8001b34 <HAL_ADC_ConfigChannel+0xd0>
 8001abc:	699f      	ldr	r7, [r3, #24]
 8001abe:	381e      	subs	r0, #30
 8001ac0:	4086      	lsls	r6, r0
 8001ac2:	ea27 0606 	bic.w	r6, r7, r6
 8001ac6:	4082      	lsls	r2, r0
 8001ac8:	4332      	orrs	r2, r6
 8001aca:	619a      	str	r2, [r3, #24]
 8001acc:	68da      	ldr	r2, [r3, #12]
 8001ace:	694e      	ldr	r6, [r1, #20]
 8001ad0:	f3c2 02c1 	ubfx	r2, r2, #3, #2
 8001ad4:	0052      	lsls	r2, r2, #1
 8001ad6:	4096      	lsls	r6, r2
 8001ad8:	690a      	ldr	r2, [r1, #16]
 8001ada:	3a01      	subs	r2, #1
 8001adc:	06a0      	lsls	r0, r4, #26
 8001ade:	2a03      	cmp	r2, #3
 8001ae0:	d861      	bhi.n	8001ba6 <HAL_ADC_ConfigChannel+0x142>
 8001ae2:	e8df f002 	tbb	[pc, r2]
 8001ae6:	452f      	.short	0x452f
 8001ae8:	574e      	.short	0x574e
 8001aea:	2809      	cmp	r0, #9
 8001aec:	d80a      	bhi.n	8001b04 <HAL_ADC_ConfigChannel+0xa0>
 8001aee:	6b58      	ldr	r0, [r3, #52]	@ 0x34
 8001af0:	3a1e      	subs	r2, #30
 8001af2:	261f      	movs	r6, #31
 8001af4:	4096      	lsls	r6, r2
 8001af6:	ea20 0006 	bic.w	r0, r0, r6
 8001afa:	fa04 f202 	lsl.w	r2, r4, r2
 8001afe:	4302      	orrs	r2, r0
 8001b00:	635a      	str	r2, [r3, #52]	@ 0x34
 8001b02:	e7d0      	b.n	8001aa6 <HAL_ADC_ConfigChannel+0x42>
 8001b04:	280e      	cmp	r0, #14
 8001b06:	f04f 001f 	mov.w	r0, #31
 8001b0a:	d809      	bhi.n	8001b20 <HAL_ADC_ConfigChannel+0xbc>
 8001b0c:	6b9e      	ldr	r6, [r3, #56]	@ 0x38
 8001b0e:	3a3c      	subs	r2, #60	@ 0x3c
 8001b10:	4090      	lsls	r0, r2
 8001b12:	ea26 0000 	bic.w	r0, r6, r0
 8001b16:	fa04 f202 	lsl.w	r2, r4, r2
 8001b1a:	4302      	orrs	r2, r0
 8001b1c:	639a      	str	r2, [r3, #56]	@ 0x38
 8001b1e:	e7c2      	b.n	8001aa6 <HAL_ADC_ConfigChannel+0x42>
 8001b20:	6bde      	ldr	r6, [r3, #60]	@ 0x3c
 8001b22:	3a5a      	subs	r2, #90	@ 0x5a
 8001b24:	4090      	lsls	r0, r2
 8001b26:	ea26 0000 	bic.w	r0, r6, r0
 8001b2a:	fa04 f202 	lsl.w	r2, r4, r2
 8001b2e:	4302      	orrs	r2, r0
 8001b30:	63da      	str	r2, [r3, #60]	@ 0x3c
 8001b32:	e7b8      	b.n	8001aa6 <HAL_ADC_ConfigChannel+0x42>
 8001b34:	695f      	ldr	r7, [r3, #20]
 8001b36:	4086      	lsls	r6, r0
 8001b38:	ea27 0606 	bic.w	r6, r7, r6
 8001b3c:	4082      	lsls	r2, r0
 8001b3e:	4332      	orrs	r2, r6
 8001b40:	615a      	str	r2, [r3, #20]
 8001b42:	e7c3      	b.n	8001acc <HAL_ADC_ConfigChannel+0x68>
 8001b44:	6e1f      	ldr	r7, [r3, #96]	@ 0x60
 8001b46:	4a7a      	ldr	r2, [pc, #488]	@ (8001d30 <HAL_ADC_ConfigChannel+0x2cc>)
 8001b48:	403a      	ands	r2, r7
 8001b4a:	4302      	orrs	r2, r0
 8001b4c:	4332      	orrs	r2, r6
 8001b4e:	f042 4200 	orr.w	r2, r2, #2147483648	@ 0x80000000
 8001b52:	661a      	str	r2, [r3, #96]	@ 0x60
 8001b54:	689a      	ldr	r2, [r3, #8]
 8001b56:	f002 0203 	and.w	r2, r2, #3
 8001b5a:	2a01      	cmp	r2, #1
 8001b5c:	d147      	bne.n	8001bee <HAL_ADC_ConfigChannel+0x18a>
 8001b5e:	681a      	ldr	r2, [r3, #0]
 8001b60:	07d6      	lsls	r6, r2, #31
 8001b62:	d544      	bpl.n	8001bee <HAL_ADC_ConfigChannel+0x18a>
 8001b64:	2000      	movs	r0, #0
 8001b66:	2300      	movs	r3, #0
 8001b68:	f885 303c 	strb.w	r3, [r5, #60]	@ 0x3c
 8001b6c:	b003      	add	sp, #12
 8001b6e:	bdf0      	pop	{r4, r5, r6, r7, pc}
 8001b70:	6e5f      	ldr	r7, [r3, #100]	@ 0x64
 8001b72:	4a6f      	ldr	r2, [pc, #444]	@ (8001d30 <HAL_ADC_ConfigChannel+0x2cc>)
 8001b74:	403a      	ands	r2, r7
 8001b76:	4302      	orrs	r2, r0
 8001b78:	4332      	orrs	r2, r6
 8001b7a:	f042 4200 	orr.w	r2, r2, #2147483648	@ 0x80000000
 8001b7e:	665a      	str	r2, [r3, #100]	@ 0x64
 8001b80:	e7e8      	b.n	8001b54 <HAL_ADC_ConfigChannel+0xf0>
 8001b82:	6e9f      	ldr	r7, [r3, #104]	@ 0x68
 8001b84:	4a6a      	ldr	r2, [pc, #424]	@ (8001d30 <HAL_ADC_ConfigChannel+0x2cc>)
 8001b86:	403a      	ands	r2, r7
 8001b88:	4302      	orrs	r2, r0
 8001b8a:	4332      	orrs	r2, r6
 8001b8c:	f042 4200 	orr.w	r2, r2, #2147483648	@ 0x80000000
 8001b90:	669a      	str	r2, [r3, #104]	@ 0x68
 8001b92:	e7df      	b.n	8001b54 <HAL_ADC_ConfigChannel+0xf0>
 8001b94:	6edf      	ldr	r7, [r3, #108]	@ 0x6c
 8001b96:	4a66      	ldr	r2, [pc, #408]	@ (8001d30 <HAL_ADC_ConfigChannel+0x2cc>)
 8001b98:	403a      	ands	r2, r7
 8001b9a:	4302      	orrs	r2, r0
 8001b9c:	4332      	orrs	r2, r6
 8001b9e:	f042 4200 	orr.w	r2, r2, #2147483648	@ 0x80000000
 8001ba2:	66da      	str	r2, [r3, #108]	@ 0x6c
 8001ba4:	e7d6      	b.n	8001b54 <HAL_ADC_ConfigChannel+0xf0>
 8001ba6:	6e1a      	ldr	r2, [r3, #96]	@ 0x60
 8001ba8:	f002 42f8 	and.w	r2, r2, #2080374784	@ 0x7c000000
 8001bac:	4282      	cmp	r2, r0
 8001bae:	bf02      	ittt	eq
 8001bb0:	6e1a      	ldreq	r2, [r3, #96]	@ 0x60
 8001bb2:	f022 4200 	biceq.w	r2, r2, #2147483648	@ 0x80000000
 8001bb6:	661a      	streq	r2, [r3, #96]	@ 0x60
 8001bb8:	6e5a      	ldr	r2, [r3, #100]	@ 0x64
 8001bba:	f002 42f8 	and.w	r2, r2, #2080374784	@ 0x7c000000
 8001bbe:	4282      	cmp	r2, r0
 8001bc0:	bf02      	ittt	eq
 8001bc2:	6e5a      	ldreq	r2, [r3, #100]	@ 0x64
 8001bc4:	f022 4200 	biceq.w	r2, r2, #2147483648	@ 0x80000000
 8001bc8:	665a      	streq	r2, [r3, #100]	@ 0x64
 8001bca:	6e9a      	ldr	r2, [r3, #104]	@ 0x68
 8001bcc:	f002 42f8 	and.w	r2, r2, #2080374784	@ 0x7c000000
 8001bd0:	4282      	cmp	r2, r0
 8001bd2:	bf02      	ittt	eq
 8001bd4:	6e9a      	ldreq	r2, [r3, #104]	@ 0x68
 8001bd6:	f022 4200 	biceq.w	r2, r2, #2147483648	@ 0x80000000
 8001bda:	669a      	streq	r2, [r3, #104]	@ 0x68
 8001bdc:	6eda      	ldr	r2, [r3, #108]	@ 0x6c
 8001bde:	f002 42f8 	and.w	r2, r2, #2080374784	@ 0x7c000000
 8001be2:	4282      	cmp	r2, r0
 8001be4:	d1b6      	bne.n	8001b54 <HAL_ADC_ConfigChannel+0xf0>
 8001be6:	6eda      	ldr	r2, [r3, #108]	@ 0x6c
 8001be8:	f022 4200 	bic.w	r2, r2, #2147483648	@ 0x80000000
 8001bec:	e7d9      	b.n	8001ba2 <HAL_ADC_ConfigChannel+0x13e>
 8001bee:	68c8      	ldr	r0, [r1, #12]
 8001bf0:	2201      	movs	r2, #1
 8001bf2:	2801      	cmp	r0, #1
 8001bf4:	fa02 f204 	lsl.w	r2, r2, r4
 8001bf8:	d046      	beq.n	8001c88 <HAL_ADC_ConfigChannel+0x224>
 8001bfa:	f8d3 10b0 	ldr.w	r1, [r3, #176]	@ 0xb0
 8001bfe:	ea21 0202 	bic.w	r2, r1, r2
 8001c02:	f8c3 20b0 	str.w	r2, [r3, #176]	@ 0xb0
 8001c06:	f1b3 4fa0 	cmp.w	r3, #1342177280	@ 0x50000000
 8001c0a:	d162      	bne.n	8001cd2 <HAL_ADC_ConfigChannel+0x26e>
 8001c0c:	4949      	ldr	r1, [pc, #292]	@ (8001d34 <HAL_ADC_ConfigChannel+0x2d0>)
 8001c0e:	2c10      	cmp	r4, #16
 8001c10:	d164      	bne.n	8001cdc <HAL_ADC_ConfigChannel+0x278>
 8001c12:	688a      	ldr	r2, [r1, #8]
 8001c14:	f412 0f00 	tst.w	r2, #8388608	@ 0x800000
 8001c18:	d1a4      	bne.n	8001b64 <HAL_ADC_ConfigChannel+0x100>
 8001c1a:	f1b3 4fa0 	cmp.w	r3, #1342177280	@ 0x50000000
 8001c1e:	4a46      	ldr	r2, [pc, #280]	@ (8001d38 <HAL_ADC_ConfigChannel+0x2d4>)
 8001c20:	d009      	beq.n	8001c36 <HAL_ADC_ConfigChannel+0x1d2>
 8001c22:	4293      	cmp	r3, r2
 8001c24:	d067      	beq.n	8001cf6 <HAL_ADC_ConfigChannel+0x292>
 8001c26:	f502 7240 	add.w	r2, r2, #768	@ 0x300
 8001c2a:	4293      	cmp	r3, r2
 8001c2c:	4843      	ldr	r0, [pc, #268]	@ (8001d3c <HAL_ADC_ConfigChannel+0x2d8>)
 8001c2e:	d065      	beq.n	8001cfc <HAL_ADC_ConfigChannel+0x298>
 8001c30:	4283      	cmp	r3, r0
 8001c32:	bf18      	it	ne
 8001c34:	2200      	movne	r2, #0
 8001c36:	6898      	ldr	r0, [r3, #8]
 8001c38:	f000 0003 	and.w	r0, r0, #3
 8001c3c:	2801      	cmp	r0, #1
 8001c3e:	d102      	bne.n	8001c46 <HAL_ADC_ConfigChannel+0x1e2>
 8001c40:	6818      	ldr	r0, [r3, #0]
 8001c42:	07c0      	lsls	r0, r0, #31
 8001c44:	d46b      	bmi.n	8001d1e <HAL_ADC_ConfigChannel+0x2ba>
 8001c46:	b13a      	cbz	r2, 8001c58 <HAL_ADC_ConfigChannel+0x1f4>
 8001c48:	6890      	ldr	r0, [r2, #8]
 8001c4a:	f000 0003 	and.w	r0, r0, #3
 8001c4e:	2801      	cmp	r0, #1
 8001c50:	d102      	bne.n	8001c58 <HAL_ADC_ConfigChannel+0x1f4>
 8001c52:	6812      	ldr	r2, [r2, #0]
 8001c54:	07d2      	lsls	r2, r2, #31
 8001c56:	d462      	bmi.n	8001d1e <HAL_ADC_ConfigChannel+0x2ba>
 8001c58:	2c10      	cmp	r4, #16
 8001c5a:	d151      	bne.n	8001d00 <HAL_ADC_ConfigChannel+0x29c>
 8001c5c:	f1b3 4fa0 	cmp.w	r3, #1342177280	@ 0x50000000
 8001c60:	d180      	bne.n	8001b64 <HAL_ADC_ConfigChannel+0x100>
 8001c62:	688b      	ldr	r3, [r1, #8]
 8001c64:	4a36      	ldr	r2, [pc, #216]	@ (8001d40 <HAL_ADC_ConfigChannel+0x2dc>)
 8001c66:	f443 0300 	orr.w	r3, r3, #8388608	@ 0x800000
 8001c6a:	608b      	str	r3, [r1, #8]
 8001c6c:	4b35      	ldr	r3, [pc, #212]	@ (8001d44 <HAL_ADC_ConfigChannel+0x2e0>)
 8001c6e:	681b      	ldr	r3, [r3, #0]
 8001c70:	fbb3 f3f2 	udiv	r3, r3, r2
 8001c74:	220a      	movs	r2, #10
 8001c76:	4353      	muls	r3, r2
 8001c78:	9301      	str	r3, [sp, #4]
 8001c7a:	9b01      	ldr	r3, [sp, #4]
 8001c7c:	2b00      	cmp	r3, #0
 8001c7e:	f43f af71 	beq.w	8001b64 <HAL_ADC_ConfigChannel+0x100>
 8001c82:	9b01      	ldr	r3, [sp, #4]
 8001c84:	3b01      	subs	r3, #1
 8001c86:	e7f7      	b.n	8001c78 <HAL_ADC_ConfigChannel+0x214>
 8001c88:	f8d3 00b0 	ldr.w	r0, [r3, #176]	@ 0xb0
 8001c8c:	2c09      	cmp	r4, #9
 8001c8e:	ea42 0200 	orr.w	r2, r2, r0
 8001c92:	f8c3 20b0 	str.w	r2, [r3, #176]	@ 0xb0
 8001c96:	6888      	ldr	r0, [r1, #8]
 8001c98:	d90c      	bls.n	8001cb4 <HAL_ADC_ConfigChannel+0x250>
 8001c9a:	eb04 0244 	add.w	r2, r4, r4, lsl #1
 8001c9e:	6999      	ldr	r1, [r3, #24]
 8001ca0:	3a1b      	subs	r2, #27
 8001ca2:	2607      	movs	r6, #7
 8001ca4:	4096      	lsls	r6, r2
 8001ca6:	ea21 0106 	bic.w	r1, r1, r6
 8001caa:	fa00 f202 	lsl.w	r2, r0, r2
 8001cae:	430a      	orrs	r2, r1
 8001cb0:	619a      	str	r2, [r3, #24]
 8001cb2:	e7a8      	b.n	8001c06 <HAL_ADC_ConfigChannel+0x1a2>
 8001cb4:	1c61      	adds	r1, r4, #1
 8001cb6:	695a      	ldr	r2, [r3, #20]
 8001cb8:	eb01 0141 	add.w	r1, r1, r1, lsl #1
 8001cbc:	2607      	movs	r6, #7
 8001cbe:	408e      	lsls	r6, r1
 8001cc0:	ea22 0206 	bic.w	r2, r2, r6
 8001cc4:	4088      	lsls	r0, r1
 8001cc6:	4302      	orrs	r2, r0
 8001cc8:	f1b3 4fa0 	cmp.w	r3, #1342177280	@ 0x50000000
 8001ccc:	615a      	str	r2, [r3, #20]
 8001cce:	f43f af49 	beq.w	8001b64 <HAL_ADC_ConfigChannel+0x100>
 8001cd2:	4a19      	ldr	r2, [pc, #100]	@ (8001d38 <HAL_ADC_ConfigChannel+0x2d4>)
 8001cd4:	4293      	cmp	r3, r2
 8001cd6:	d099      	beq.n	8001c0c <HAL_ADC_ConfigChannel+0x1a8>
 8001cd8:	491b      	ldr	r1, [pc, #108]	@ (8001d48 <HAL_ADC_ConfigChannel+0x2e4>)
 8001cda:	e798      	b.n	8001c0e <HAL_ADC_ConfigChannel+0x1aa>
 8001cdc:	2c11      	cmp	r4, #17
 8001cde:	d103      	bne.n	8001ce8 <HAL_ADC_ConfigChannel+0x284>
 8001ce0:	688a      	ldr	r2, [r1, #8]
 8001ce2:	f012 7f80 	tst.w	r2, #16777216	@ 0x1000000
 8001ce6:	e797      	b.n	8001c18 <HAL_ADC_ConfigChannel+0x1b4>
 8001ce8:	2c12      	cmp	r4, #18
 8001cea:	f47f af3b 	bne.w	8001b64 <HAL_ADC_ConfigChannel+0x100>
 8001cee:	688a      	ldr	r2, [r1, #8]
 8001cf0:	f412 0f80 	tst.w	r2, #4194304	@ 0x400000
 8001cf4:	e790      	b.n	8001c18 <HAL_ADC_ConfigChannel+0x1b4>
 8001cf6:	f04f 42a0 	mov.w	r2, #1342177280	@ 0x50000000
 8001cfa:	e79c      	b.n	8001c36 <HAL_ADC_ConfigChannel+0x1d2>
 8001cfc:	4602      	mov	r2, r0
 8001cfe:	e79a      	b.n	8001c36 <HAL_ADC_ConfigChannel+0x1d2>
 8001d00:	2c11      	cmp	r4, #17
 8001d02:	d108      	bne.n	8001d16 <HAL_ADC_ConfigChannel+0x2b2>
 8001d04:	f1b3 4fa0 	cmp.w	r3, #1342177280	@ 0x50000000
 8001d08:	f47f af2c 	bne.w	8001b64 <HAL_ADC_ConfigChannel+0x100>
 8001d0c:	688b      	ldr	r3, [r1, #8]
 8001d0e:	f043 7380 	orr.w	r3, r3, #16777216	@ 0x1000000
 8001d12:	608b      	str	r3, [r1, #8]
 8001d14:	e726      	b.n	8001b64 <HAL_ADC_ConfigChannel+0x100>
 8001d16:	688b      	ldr	r3, [r1, #8]
 8001d18:	f443 0380 	orr.w	r3, r3, #4194304	@ 0x400000
 8001d1c:	e7f9      	b.n	8001d12 <HAL_ADC_ConfigChannel+0x2ae>
 8001d1e:	6c2b      	ldr	r3, [r5, #64]	@ 0x40
 8001d20:	f043 0320 	orr.w	r3, r3, #32
 8001d24:	642b      	str	r3, [r5, #64]	@ 0x40
 8001d26:	2001      	movs	r0, #1
 8001d28:	e71d      	b.n	8001b66 <HAL_ADC_ConfigChannel+0x102>
 8001d2a:	2002      	movs	r0, #2
 8001d2c:	e71e      	b.n	8001b6c <HAL_ADC_ConfigChannel+0x108>
 8001d2e:	bf00      	nop
 8001d30:	83fff000 	.word	0x83fff000
 8001d34:	50000300 	.word	0x50000300
 8001d38:	50000100 	.word	0x50000100
 8001d3c:	50000500 	.word	0x50000500
 8001d40:	000f4240 	.word	0x000f4240
 8001d44:	20000000 	.word	0x20000000
 8001d48:	50000700 	.word	0x50000700

08001d4c <HAL_ADCEx_MultiModeConfigChannel>:
 8001d4c:	b5f0      	push	{r4, r5, r6, r7, lr}
 8001d4e:	6804      	ldr	r4, [r0, #0]
 8001d50:	4b3c      	ldr	r3, [pc, #240]	@ (8001e44 <HAL_ADCEx_MultiModeConfigChannel+0xf8>)
 8001d52:	f1b4 4fa0 	cmp.w	r4, #1342177280	@ 0x50000000
 8001d56:	4605      	mov	r5, r0
 8001d58:	d009      	beq.n	8001d6e <HAL_ADCEx_MultiModeConfigChannel+0x22>
 8001d5a:	429c      	cmp	r4, r3
 8001d5c:	d047      	beq.n	8001dee <HAL_ADCEx_MultiModeConfigChannel+0xa2>
 8001d5e:	4a3a      	ldr	r2, [pc, #232]	@ (8001e48 <HAL_ADCEx_MultiModeConfigChannel+0xfc>)
 8001d60:	4294      	cmp	r4, r2
 8001d62:	f503 6380 	add.w	r3, r3, #1024	@ 0x400
 8001d66:	d002      	beq.n	8001d6e <HAL_ADCEx_MultiModeConfigChannel+0x22>
 8001d68:	429c      	cmp	r4, r3
 8001d6a:	d166      	bne.n	8001e3a <HAL_ADCEx_MultiModeConfigChannel+0xee>
 8001d6c:	4613      	mov	r3, r2
 8001d6e:	f895 203c 	ldrb.w	r2, [r5, #60]	@ 0x3c
 8001d72:	2a01      	cmp	r2, #1
 8001d74:	d063      	beq.n	8001e3e <HAL_ADCEx_MultiModeConfigChannel+0xf2>
 8001d76:	2201      	movs	r2, #1
 8001d78:	f885 203c 	strb.w	r2, [r5, #60]	@ 0x3c
 8001d7c:	68a2      	ldr	r2, [r4, #8]
 8001d7e:	0752      	lsls	r2, r2, #29
 8001d80:	d455      	bmi.n	8001e2e <HAL_ADCEx_MultiModeConfigChannel+0xe2>
 8001d82:	689a      	ldr	r2, [r3, #8]
 8001d84:	0757      	lsls	r7, r2, #29
 8001d86:	d452      	bmi.n	8001e2e <HAL_ADCEx_MultiModeConfigChannel+0xe2>
 8001d88:	f1b4 4fa0 	cmp.w	r4, #1342177280	@ 0x50000000
 8001d8c:	d032      	beq.n	8001df4 <HAL_ADCEx_MultiModeConfigChannel+0xa8>
 8001d8e:	4e2d      	ldr	r6, [pc, #180]	@ (8001e44 <HAL_ADCEx_MultiModeConfigChannel+0xf8>)
 8001d90:	4a2e      	ldr	r2, [pc, #184]	@ (8001e4c <HAL_ADCEx_MultiModeConfigChannel+0x100>)
 8001d92:	482f      	ldr	r0, [pc, #188]	@ (8001e50 <HAL_ADCEx_MultiModeConfigChannel+0x104>)
 8001d94:	42b4      	cmp	r4, r6
 8001d96:	bf18      	it	ne
 8001d98:	4602      	movne	r2, r0
 8001d9a:	6808      	ldr	r0, [r1, #0]
 8001d9c:	b360      	cbz	r0, 8001df8 <HAL_ADCEx_MultiModeConfigChannel+0xac>
 8001d9e:	6897      	ldr	r7, [r2, #8]
 8001da0:	f895 c030 	ldrb.w	ip, [r5, #48]	@ 0x30
 8001da4:	684e      	ldr	r6, [r1, #4]
 8001da6:	f427 4760 	bic.w	r7, r7, #57344	@ 0xe000
 8001daa:	ea46 364c 	orr.w	r6, r6, ip, lsl #13
 8001dae:	433e      	orrs	r6, r7
 8001db0:	6096      	str	r6, [r2, #8]
 8001db2:	68a6      	ldr	r6, [r4, #8]
 8001db4:	f006 0603 	and.w	r6, r6, #3
 8001db8:	2e01      	cmp	r6, #1
 8001dba:	d102      	bne.n	8001dc2 <HAL_ADCEx_MultiModeConfigChannel+0x76>
 8001dbc:	6824      	ldr	r4, [r4, #0]
 8001dbe:	07e6      	lsls	r6, r4, #31
 8001dc0:	d410      	bmi.n	8001de4 <HAL_ADCEx_MultiModeConfigChannel+0x98>
 8001dc2:	689c      	ldr	r4, [r3, #8]
 8001dc4:	f004 0403 	and.w	r4, r4, #3
 8001dc8:	2c01      	cmp	r4, #1
 8001dca:	d102      	bne.n	8001dd2 <HAL_ADCEx_MultiModeConfigChannel+0x86>
 8001dcc:	681b      	ldr	r3, [r3, #0]
 8001dce:	07dc      	lsls	r4, r3, #31
 8001dd0:	d408      	bmi.n	8001de4 <HAL_ADCEx_MultiModeConfigChannel+0x98>
 8001dd2:	6893      	ldr	r3, [r2, #8]
 8001dd4:	6889      	ldr	r1, [r1, #8]
 8001dd6:	f423 6371 	bic.w	r3, r3, #3856	@ 0xf10
 8001dda:	4308      	orrs	r0, r1
 8001ddc:	f023 030f 	bic.w	r3, r3, #15
 8001de0:	4318      	orrs	r0, r3
 8001de2:	6090      	str	r0, [r2, #8]
 8001de4:	2000      	movs	r0, #0
 8001de6:	2300      	movs	r3, #0
 8001de8:	f885 303c 	strb.w	r3, [r5, #60]	@ 0x3c
 8001dec:	bdf0      	pop	{r4, r5, r6, r7, pc}
 8001dee:	f04f 43a0 	mov.w	r3, #1342177280	@ 0x50000000
 8001df2:	e7bc      	b.n	8001d6e <HAL_ADCEx_MultiModeConfigChannel+0x22>
 8001df4:	4a15      	ldr	r2, [pc, #84]	@ (8001e4c <HAL_ADCEx_MultiModeConfigChannel+0x100>)
 8001df6:	e7d0      	b.n	8001d9a <HAL_ADCEx_MultiModeConfigChannel+0x4e>
 8001df8:	6891      	ldr	r1, [r2, #8]
 8001dfa:	f421 4160 	bic.w	r1, r1, #57344	@ 0xe000
 8001dfe:	6091      	str	r1, [r2, #8]
 8001e00:	68a1      	ldr	r1, [r4, #8]
 8001e02:	f001 0103 	and.w	r1, r1, #3
 8001e06:	2901      	cmp	r1, #1
 8001e08:	d102      	bne.n	8001e10 <HAL_ADCEx_MultiModeConfigChannel+0xc4>
 8001e0a:	6821      	ldr	r1, [r4, #0]
 8001e0c:	07c9      	lsls	r1, r1, #31
 8001e0e:	d4e9      	bmi.n	8001de4 <HAL_ADCEx_MultiModeConfigChannel+0x98>
 8001e10:	6899      	ldr	r1, [r3, #8]
 8001e12:	f001 0103 	and.w	r1, r1, #3
 8001e16:	2901      	cmp	r1, #1
 8001e18:	d102      	bne.n	8001e20 <HAL_ADCEx_MultiModeConfigChannel+0xd4>
 8001e1a:	681b      	ldr	r3, [r3, #0]
 8001e1c:	07db      	lsls	r3, r3, #31
 8001e1e:	d4e1      	bmi.n	8001de4 <HAL_ADCEx_MultiModeConfigChannel+0x98>
 8001e20:	6893      	ldr	r3, [r2, #8]
 8001e22:	f423 6371 	bic.w	r3, r3, #3856	@ 0xf10
 8001e26:	f023 030f 	bic.w	r3, r3, #15
 8001e2a:	6093      	str	r3, [r2, #8]
 8001e2c:	e7da      	b.n	8001de4 <HAL_ADCEx_MultiModeConfigChannel+0x98>
 8001e2e:	6c2b      	ldr	r3, [r5, #64]	@ 0x40
 8001e30:	f043 0320 	orr.w	r3, r3, #32
 8001e34:	642b      	str	r3, [r5, #64]	@ 0x40
 8001e36:	2001      	movs	r0, #1
 8001e38:	e7d5      	b.n	8001de6 <HAL_ADCEx_MultiModeConfigChannel+0x9a>
 8001e3a:	2001      	movs	r0, #1
 8001e3c:	e7d6      	b.n	8001dec <HAL_ADCEx_MultiModeConfigChannel+0xa0>
 8001e3e:	2002      	movs	r0, #2
 8001e40:	e7d4      	b.n	8001dec <HAL_ADCEx_MultiModeConfigChannel+0xa0>
 8001e42:	bf00      	nop
 8001e44:	50000100 	.word	0x50000100
 8001e48:	50000400 	.word	0x50000400
 8001e4c:	50000300 	.word	0x50000300
 8001e50:	50000700 	.word	0x50000700

08001e54 <HAL_COMP_Init>:
 8001e54:	b530      	push	{r4, r5, lr}
 8001e56:	b085      	sub	sp, #20
 8001e58:	2300      	movs	r3, #0
 8001e5a:	9301      	str	r3, [sp, #4]
 8001e5c:	4604      	mov	r4, r0
 8001e5e:	2800      	cmp	r0, #0
 8001e60:	d06e      	beq.n	8001f40 <HAL_COMP_Init+0xec>
 8001e62:	f890 5029 	ldrb.w	r5, [r0, #41]	@ 0x29
 8001e66:	f015 0510 	ands.w	r5, r5, #16
 8001e6a:	d169      	bne.n	8001f40 <HAL_COMP_Init+0xec>
 8001e6c:	f103 4380 	add.w	r3, r3, #1073741824	@ 0x40000000
 8001e70:	f503 3304 	add.w	r3, r3, #135168	@ 0x21000
 8001e74:	699a      	ldr	r2, [r3, #24]
 8001e76:	f042 0201 	orr.w	r2, r2, #1
 8001e7a:	619a      	str	r2, [r3, #24]
 8001e7c:	699b      	ldr	r3, [r3, #24]
 8001e7e:	f003 0301 	and.w	r3, r3, #1
 8001e82:	9302      	str	r3, [sp, #8]
 8001e84:	9b02      	ldr	r3, [sp, #8]
 8001e86:	f7fe ff0f 	bl	8000ca8 <HAL_COMP_MspInit>
 8001e8a:	6822      	ldr	r2, [r4, #0]
 8001e8c:	6811      	ldr	r1, [r2, #0]
 8001e8e:	f894 3029 	ldrb.w	r3, [r4, #41]	@ 0x29
 8001e92:	b90b      	cbnz	r3, 8001e98 <HAL_COMP_Init+0x44>
 8001e94:	f884 5028 	strb.w	r5, [r4, #40]	@ 0x28
 8001e98:	2300      	movs	r3, #0
 8001e9a:	9303      	str	r3, [sp, #12]
 8001e9c:	6813      	ldr	r3, [r2, #0]
 8001e9e:	9303      	str	r3, [sp, #12]
 8001ea0:	9b03      	ldr	r3, [sp, #12]
 8001ea2:	6860      	ldr	r0, [r4, #4]
 8001ea4:	f023 0370 	bic.w	r3, r3, #112	@ 0x70
 8001ea8:	4303      	orrs	r3, r0
 8001eaa:	9303      	str	r3, [sp, #12]
 8001eac:	9b03      	ldr	r3, [sp, #12]
 8001eae:	68a0      	ldr	r0, [r4, #8]
 8001eb0:	f023 0382 	bic.w	r3, r3, #130	@ 0x82
 8001eb4:	4303      	orrs	r3, r0
 8001eb6:	9303      	str	r3, [sp, #12]
 8001eb8:	9b03      	ldr	r3, [sp, #12]
 8001eba:	69a0      	ldr	r0, [r4, #24]
 8001ebc:	f423 2340 	bic.w	r3, r3, #786432	@ 0xc0000
 8001ec0:	4303      	orrs	r3, r0
 8001ec2:	9303      	str	r3, [sp, #12]
 8001ec4:	9803      	ldr	r0, [sp, #12]
 8001ec6:	68e3      	ldr	r3, [r4, #12]
 8001ec8:	f420 5070 	bic.w	r0, r0, #15360	@ 0x3c00
 8001ecc:	f403 5370 	and.w	r3, r3, #15360	@ 0x3c00
 8001ed0:	4303      	orrs	r3, r0
 8001ed2:	9303      	str	r3, [sp, #12]
 8001ed4:	9b03      	ldr	r3, [sp, #12]
 8001ed6:	6920      	ldr	r0, [r4, #16]
 8001ed8:	f423 4300 	bic.w	r3, r3, #32768	@ 0x8000
 8001edc:	4303      	orrs	r3, r0
 8001ede:	9303      	str	r3, [sp, #12]
 8001ee0:	9b03      	ldr	r3, [sp, #12]
 8001ee2:	6960      	ldr	r0, [r4, #20]
 8001ee4:	f423 3340 	bic.w	r3, r3, #196608	@ 0x30000
 8001ee8:	4303      	orrs	r3, r0
 8001eea:	9303      	str	r3, [sp, #12]
 8001eec:	9b03      	ldr	r3, [sp, #12]
 8001eee:	69e0      	ldr	r0, [r4, #28]
 8001ef0:	f023 030c 	bic.w	r3, r3, #12
 8001ef4:	4303      	orrs	r3, r0
 8001ef6:	9303      	str	r3, [sp, #12]
 8001ef8:	9b03      	ldr	r3, [sp, #12]
 8001efa:	6a20      	ldr	r0, [r4, #32]
 8001efc:	f423 7300 	bic.w	r3, r3, #512	@ 0x200
 8001f00:	4303      	orrs	r3, r0
 8001f02:	9303      	str	r3, [sp, #12]
 8001f04:	9b03      	ldr	r3, [sp, #12]
 8001f06:	6013      	str	r3, [r2, #0]
 8001f08:	6813      	ldr	r3, [r2, #0]
 8001f0a:	f013 0f30 	tst.w	r3, #48	@ 0x30
 8001f0e:	d105      	bne.n	8001f1c <HAL_COMP_Init+0xc8>
 8001f10:	2301      	movs	r3, #1
 8001f12:	f884 3029 	strb.w	r3, [r4, #41]	@ 0x29
 8001f16:	4628      	mov	r0, r5
 8001f18:	b005      	add	sp, #20
 8001f1a:	bd30      	pop	{r4, r5, pc}
 8001f1c:	f011 0f30 	tst.w	r1, #48	@ 0x30
 8001f20:	d1f6      	bne.n	8001f10 <HAL_COMP_Init+0xbc>
 8001f22:	4b08      	ldr	r3, [pc, #32]	@ (8001f44 <HAL_COMP_Init+0xf0>)
 8001f24:	681a      	ldr	r2, [r3, #0]
 8001f26:	4b08      	ldr	r3, [pc, #32]	@ (8001f48 <HAL_COMP_Init+0xf4>)
 8001f28:	fbb2 f2f3 	udiv	r2, r2, r3
 8001f2c:	2314      	movs	r3, #20
 8001f2e:	fb02 3303 	mla	r3, r2, r3, r3
 8001f32:	9301      	str	r3, [sp, #4]
 8001f34:	9b01      	ldr	r3, [sp, #4]
 8001f36:	2b00      	cmp	r3, #0
 8001f38:	d0ea      	beq.n	8001f10 <HAL_COMP_Init+0xbc>
 8001f3a:	9b01      	ldr	r3, [sp, #4]
 8001f3c:	3b01      	subs	r3, #1
 8001f3e:	e7f8      	b.n	8001f32 <HAL_COMP_Init+0xde>
 8001f40:	2501      	movs	r5, #1
 8001f42:	e7e8      	b.n	8001f16 <HAL_COMP_Init+0xc2>
 8001f44:	20000000 	.word	0x20000000
 8001f48:	00030d40 	.word	0x00030d40

08001f4c <HAL_NVIC_SetPriorityGrouping>:
 8001f4c:	4907      	ldr	r1, [pc, #28]	@ (8001f6c <HAL_NVIC_SetPriorityGrouping+0x20>)
 8001f4e:	68ca      	ldr	r2, [r1, #12]
 8001f50:	f422 62e0 	bic.w	r2, r2, #1792	@ 0x700
 8001f54:	0203      	lsls	r3, r0, #8
 8001f56:	0412      	lsls	r2, r2, #16
 8001f58:	f403 63e0 	and.w	r3, r3, #1792	@ 0x700
 8001f5c:	0c12      	lsrs	r2, r2, #16
 8001f5e:	4313      	orrs	r3, r2
 8001f60:	f043 63bf 	orr.w	r3, r3, #100139008	@ 0x5f80000
 8001f64:	f443 3300 	orr.w	r3, r3, #131072	@ 0x20000
 8001f68:	60cb      	str	r3, [r1, #12]
 8001f6a:	4770      	bx	lr
 8001f6c:	e000ed00 	.word	0xe000ed00

08001f70 <HAL_NVIC_SetPriority>:
 8001f70:	4b16      	ldr	r3, [pc, #88]	@ (8001fcc <HAL_NVIC_SetPriority+0x5c>)
 8001f72:	b530      	push	{r4, r5, lr}
 8001f74:	68dc      	ldr	r4, [r3, #12]
 8001f76:	f3c4 2402 	ubfx	r4, r4, #8, #3
 8001f7a:	f1c4 0307 	rsb	r3, r4, #7
 8001f7e:	1d25      	adds	r5, r4, #4
 8001f80:	2b04      	cmp	r3, #4
 8001f82:	bf28      	it	cs
 8001f84:	2304      	movcs	r3, #4
 8001f86:	2d06      	cmp	r5, #6
 8001f88:	f04f 35ff 	mov.w	r5, #4294967295	@ 0xffffffff
 8001f8c:	bf8c      	ite	hi
 8001f8e:	3c03      	subhi	r4, #3
 8001f90:	2400      	movls	r4, #0
 8001f92:	fa05 f303 	lsl.w	r3, r5, r3
 8001f96:	ea21 0303 	bic.w	r3, r1, r3
 8001f9a:	40a5      	lsls	r5, r4
 8001f9c:	ea22 0205 	bic.w	r2, r2, r5
 8001fa0:	40a3      	lsls	r3, r4
 8001fa2:	2800      	cmp	r0, #0
 8001fa4:	ea43 0302 	orr.w	r3, r3, r2
 8001fa8:	bfac      	ite	ge
 8001faa:	f100 4060 	addge.w	r0, r0, #3758096384	@ 0xe0000000
 8001fae:	4a08      	ldrlt	r2, [pc, #32]	@ (8001fd0 <HAL_NVIC_SetPriority+0x60>)
 8001fb0:	ea4f 1303 	mov.w	r3, r3, lsl #4
 8001fb4:	bfb8      	it	lt
 8001fb6:	f000 000f 	andlt.w	r0, r0, #15
 8001fba:	b2db      	uxtb	r3, r3
 8001fbc:	bfaa      	itet	ge
 8001fbe:	f500 4061 	addge.w	r0, r0, #57600	@ 0xe100
 8001fc2:	5413      	strblt	r3, [r2, r0]
 8001fc4:	f880 3300 	strbge.w	r3, [r0, #768]	@ 0x300
 8001fc8:	bd30      	pop	{r4, r5, pc}
 8001fca:	bf00      	nop
 8001fcc:	e000ed00 	.word	0xe000ed00
 8001fd0:	e000ed14 	.word	0xe000ed14

08001fd4 <HAL_NVIC_EnableIRQ>:
 8001fd4:	2800      	cmp	r0, #0
 8001fd6:	db07      	blt.n	8001fe8 <HAL_NVIC_EnableIRQ+0x14>
 8001fd8:	0941      	lsrs	r1, r0, #5
 8001fda:	4a04      	ldr	r2, [pc, #16]	@ (8001fec <HAL_NVIC_EnableIRQ+0x18>)
 8001fdc:	f000 001f 	and.w	r0, r0, #31
 8001fe0:	2301      	movs	r3, #1
 8001fe2:	4083      	lsls	r3, r0
 8001fe4:	f842 3021 	str.w	r3, [r2, r1, lsl #2]
 8001fe8:	4770      	bx	lr
 8001fea:	bf00      	nop
 8001fec:	e000e100 	.word	0xe000e100

08001ff0 <DMA_CalcBaseAndBitshift>:
 8001ff0:	6802      	ldr	r2, [r0, #0]
 8001ff2:	4b0a      	ldr	r3, [pc, #40]	@ (800201c <DMA_CalcBaseAndBitshift+0x2c>)
 8001ff4:	429a      	cmp	r2, r3
 8001ff6:	f04f 0114 	mov.w	r1, #20
 8001ffa:	d808      	bhi.n	800200e <DMA_CalcBaseAndBitshift+0x1e>
 8001ffc:	4b08      	ldr	r3, [pc, #32]	@ (8002020 <DMA_CalcBaseAndBitshift+0x30>)
 8001ffe:	4413      	add	r3, r2
 8002000:	4a08      	ldr	r2, [pc, #32]	@ (8002024 <DMA_CalcBaseAndBitshift+0x34>)
 8002002:	fbb3 f3f1 	udiv	r3, r3, r1
 8002006:	009b      	lsls	r3, r3, #2
 8002008:	e9c0 230f 	strd	r2, r3, [r0, #60]	@ 0x3c
 800200c:	4770      	bx	lr
 800200e:	4b06      	ldr	r3, [pc, #24]	@ (8002028 <DMA_CalcBaseAndBitshift+0x38>)
 8002010:	4413      	add	r3, r2
 8002012:	4a06      	ldr	r2, [pc, #24]	@ (800202c <DMA_CalcBaseAndBitshift+0x3c>)
 8002014:	fbb3 f3f1 	udiv	r3, r3, r1
 8002018:	009b      	lsls	r3, r3, #2
 800201a:	e7f5      	b.n	8002008 <DMA_CalcBaseAndBitshift+0x18>
 800201c:	40020407 	.word	0x40020407
 8002020:	bffdfff8 	.word	0xbffdfff8
 8002024:	40020000 	.word	0x40020000
 8002028:	bffdfbf8 	.word	0xbffdfbf8
 800202c:	40020400 	.word	0x40020400

08002030 <HAL_DMA_Init>:
 8002030:	b538      	push	{r3, r4, r5, lr}
 8002032:	4604      	mov	r4, r0
 8002034:	b1d0      	cbz	r0, 800206c <HAL_DMA_Init+0x3c>
 8002036:	e9d0 3501 	ldrd	r3, r5, [r0, #4]
 800203a:	432b      	orrs	r3, r5
 800203c:	68c5      	ldr	r5, [r0, #12]
 800203e:	6801      	ldr	r1, [r0, #0]
 8002040:	432b      	orrs	r3, r5
 8002042:	6905      	ldr	r5, [r0, #16]
 8002044:	680a      	ldr	r2, [r1, #0]
 8002046:	432b      	orrs	r3, r5
 8002048:	6945      	ldr	r5, [r0, #20]
 800204a:	432b      	orrs	r3, r5
 800204c:	6985      	ldr	r5, [r0, #24]
 800204e:	432b      	orrs	r3, r5
 8002050:	69c5      	ldr	r5, [r0, #28]
 8002052:	f36f 120d 	bfc	r2, #4, #10
 8002056:	432b      	orrs	r3, r5
 8002058:	4313      	orrs	r3, r2
 800205a:	600b      	str	r3, [r1, #0]
 800205c:	f7ff ffc8 	bl	8001ff0 <DMA_CalcBaseAndBitshift>
 8002060:	2000      	movs	r0, #0
 8002062:	f44f 7380 	mov.w	r3, #256	@ 0x100
 8002066:	63a0      	str	r0, [r4, #56]	@ 0x38
 8002068:	8423      	strh	r3, [r4, #32]
 800206a:	bd38      	pop	{r3, r4, r5, pc}
 800206c:	2001      	movs	r0, #1
 800206e:	e7fc      	b.n	800206a <HAL_DMA_Init+0x3a>

08002070 <HAL_DMA_Start_IT>:
 8002070:	b5f0      	push	{r4, r5, r6, r7, lr}
 8002072:	f890 4020 	ldrb.w	r4, [r0, #32]
 8002076:	2c01      	cmp	r4, #1
 8002078:	d033      	beq.n	80020e2 <HAL_DMA_Start_IT+0x72>
 800207a:	f890 5021 	ldrb.w	r5, [r0, #33]	@ 0x21
 800207e:	2401      	movs	r4, #1
 8002080:	42a5      	cmp	r5, r4
 8002082:	f880 4020 	strb.w	r4, [r0, #32]
 8002086:	f04f 0400 	mov.w	r4, #0
 800208a:	d128      	bne.n	80020de <HAL_DMA_Start_IT+0x6e>
 800208c:	6384      	str	r4, [r0, #56]	@ 0x38
 800208e:	2602      	movs	r6, #2
 8002090:	6804      	ldr	r4, [r0, #0]
 8002092:	f880 6021 	strb.w	r6, [r0, #33]	@ 0x21
 8002096:	6826      	ldr	r6, [r4, #0]
 8002098:	f026 0601 	bic.w	r6, r6, #1
 800209c:	6026      	str	r6, [r4, #0]
 800209e:	e9d0 670f 	ldrd	r6, r7, [r0, #60]	@ 0x3c
 80020a2:	40bd      	lsls	r5, r7
 80020a4:	6075      	str	r5, [r6, #4]
 80020a6:	6063      	str	r3, [r4, #4]
 80020a8:	6843      	ldr	r3, [r0, #4]
 80020aa:	2b10      	cmp	r3, #16
 80020ac:	6ac3      	ldr	r3, [r0, #44]	@ 0x2c
 80020ae:	bf0b      	itete	eq
 80020b0:	60a2      	streq	r2, [r4, #8]
 80020b2:	60a1      	strne	r1, [r4, #8]
 80020b4:	60e1      	streq	r1, [r4, #12]
 80020b6:	60e2      	strne	r2, [r4, #12]
 80020b8:	b14b      	cbz	r3, 80020ce <HAL_DMA_Start_IT+0x5e>
 80020ba:	6823      	ldr	r3, [r4, #0]
 80020bc:	f043 030e 	orr.w	r3, r3, #14
 80020c0:	6023      	str	r3, [r4, #0]
 80020c2:	6823      	ldr	r3, [r4, #0]
 80020c4:	f043 0301 	orr.w	r3, r3, #1
 80020c8:	6023      	str	r3, [r4, #0]
 80020ca:	2000      	movs	r0, #0
 80020cc:	bdf0      	pop	{r4, r5, r6, r7, pc}
 80020ce:	6823      	ldr	r3, [r4, #0]
 80020d0:	f043 030a 	orr.w	r3, r3, #10
 80020d4:	6023      	str	r3, [r4, #0]
 80020d6:	6823      	ldr	r3, [r4, #0]
 80020d8:	f023 0304 	bic.w	r3, r3, #4
 80020dc:	e7f0      	b.n	80020c0 <HAL_DMA_Start_IT+0x50>
 80020de:	f880 4020 	strb.w	r4, [r0, #32]
 80020e2:	2002      	movs	r0, #2
 80020e4:	e7f2      	b.n	80020cc <HAL_DMA_Start_IT+0x5c>

080020e6 <HAL_DMA_Abort>:
 80020e6:	b140      	cbz	r0, 80020fa <HAL_DMA_Abort+0x14>
 80020e8:	f890 3021 	ldrb.w	r3, [r0, #33]	@ 0x21
 80020ec:	2b02      	cmp	r3, #2
 80020ee:	d006      	beq.n	80020fe <HAL_DMA_Abort+0x18>
 80020f0:	2304      	movs	r3, #4
 80020f2:	6383      	str	r3, [r0, #56]	@ 0x38
 80020f4:	2300      	movs	r3, #0
 80020f6:	f880 3020 	strb.w	r3, [r0, #32]
 80020fa:	2001      	movs	r0, #1
 80020fc:	4770      	bx	lr
 80020fe:	6803      	ldr	r3, [r0, #0]
 8002100:	681a      	ldr	r2, [r3, #0]
 8002102:	f022 020e 	bic.w	r2, r2, #14
 8002106:	601a      	str	r2, [r3, #0]
 8002108:	681a      	ldr	r2, [r3, #0]
 800210a:	f022 0201 	bic.w	r2, r2, #1
 800210e:	601a      	str	r2, [r3, #0]
 8002110:	e9d0 210f 	ldrd	r2, r1, [r0, #60]	@ 0x3c
 8002114:	2301      	movs	r3, #1
 8002116:	408b      	lsls	r3, r1
 8002118:	6053      	str	r3, [r2, #4]
 800211a:	f44f 7380 	mov.w	r3, #256	@ 0x100
 800211e:	8403      	strh	r3, [r0, #32]
 8002120:	2000      	movs	r0, #0
 8002122:	4770      	bx	lr

08002124 <HAL_DMA_IRQHandler>:
 8002124:	6bc1      	ldr	r1, [r0, #60]	@ 0x3c
 8002126:	6c02      	ldr	r2, [r0, #64]	@ 0x40
 8002128:	6803      	ldr	r3, [r0, #0]
 800212a:	b470      	push	{r4, r5, r6}
 800212c:	680e      	ldr	r6, [r1, #0]
 800212e:	681d      	ldr	r5, [r3, #0]
 8002130:	2404      	movs	r4, #4
 8002132:	4094      	lsls	r4, r2
 8002134:	4234      	tst	r4, r6
 8002136:	d00e      	beq.n	8002156 <HAL_DMA_IRQHandler+0x32>
 8002138:	f015 0f04 	tst.w	r5, #4
 800213c:	d00b      	beq.n	8002156 <HAL_DMA_IRQHandler+0x32>
 800213e:	681a      	ldr	r2, [r3, #0]
 8002140:	0692      	lsls	r2, r2, #26
 8002142:	bf5e      	ittt	pl
 8002144:	681a      	ldrpl	r2, [r3, #0]
 8002146:	f022 0204 	bicpl.w	r2, r2, #4
 800214a:	601a      	strpl	r2, [r3, #0]
 800214c:	6ac3      	ldr	r3, [r0, #44]	@ 0x2c
 800214e:	604c      	str	r4, [r1, #4]
 8002150:	b363      	cbz	r3, 80021ac <HAL_DMA_IRQHandler+0x88>
 8002152:	bc70      	pop	{r4, r5, r6}
 8002154:	4718      	bx	r3
 8002156:	2402      	movs	r4, #2
 8002158:	4094      	lsls	r4, r2
 800215a:	4234      	tst	r4, r6
 800215c:	d012      	beq.n	8002184 <HAL_DMA_IRQHandler+0x60>
 800215e:	f015 0f02 	tst.w	r5, #2
 8002162:	d00f      	beq.n	8002184 <HAL_DMA_IRQHandler+0x60>
 8002164:	681a      	ldr	r2, [r3, #0]
 8002166:	0695      	lsls	r5, r2, #26
 8002168:	d406      	bmi.n	8002178 <HAL_DMA_IRQHandler+0x54>
 800216a:	681a      	ldr	r2, [r3, #0]
 800216c:	f022 020a 	bic.w	r2, r2, #10
 8002170:	601a      	str	r2, [r3, #0]
 8002172:	2301      	movs	r3, #1
 8002174:	f880 3021 	strb.w	r3, [r0, #33]	@ 0x21
 8002178:	2300      	movs	r3, #0
 800217a:	604c      	str	r4, [r1, #4]
 800217c:	f880 3020 	strb.w	r3, [r0, #32]
 8002180:	6a83      	ldr	r3, [r0, #40]	@ 0x28
 8002182:	e7e5      	b.n	8002150 <HAL_DMA_IRQHandler+0x2c>
 8002184:	2408      	movs	r4, #8
 8002186:	4094      	lsls	r4, r2
 8002188:	4234      	tst	r4, r6
 800218a:	d00f      	beq.n	80021ac <HAL_DMA_IRQHandler+0x88>
 800218c:	072c      	lsls	r4, r5, #28
 800218e:	d50d      	bpl.n	80021ac <HAL_DMA_IRQHandler+0x88>
 8002190:	681c      	ldr	r4, [r3, #0]
 8002192:	f024 040e 	bic.w	r4, r4, #14
 8002196:	601c      	str	r4, [r3, #0]
 8002198:	2301      	movs	r3, #1
 800219a:	fa03 f202 	lsl.w	r2, r3, r2
 800219e:	604a      	str	r2, [r1, #4]
 80021a0:	6383      	str	r3, [r0, #56]	@ 0x38
 80021a2:	f44f 7380 	mov.w	r3, #256	@ 0x100
 80021a6:	8403      	strh	r3, [r0, #32]
 80021a8:	6b03      	ldr	r3, [r0, #48]	@ 0x30
 80021aa:	e7d1      	b.n	8002150 <HAL_DMA_IRQHandler+0x2c>
 80021ac:	bc70      	pop	{r4, r5, r6}
 80021ae:	4770      	bx	lr

080021b0 <HAL_GPIO_Init>:
 80021b0:	e92d 4ff7 	stmdb	sp!, {r0, r1, r2, r4, r5, r6, r7, r8, r9, sl, fp, lr}
 80021b4:	f8df 917c 	ldr.w	r9, [pc, #380]	@ 8002334 <HAL_GPIO_Init+0x184>
 80021b8:	4c5c      	ldr	r4, [pc, #368]	@ (800232c <HAL_GPIO_Init+0x17c>)
 80021ba:	2300      	movs	r3, #0
 80021bc:	680a      	ldr	r2, [r1, #0]
 80021be:	fa32 f503 	lsrs.w	r5, r2, r3
 80021c2:	d102      	bne.n	80021ca <HAL_GPIO_Init+0x1a>
 80021c4:	b003      	add	sp, #12
 80021c6:	e8bd 8ff0 	ldmia.w	sp!, {r4, r5, r6, r7, r8, r9, sl, fp, pc}
 80021ca:	2501      	movs	r5, #1
 80021cc:	fa05 f803 	lsl.w	r8, r5, r3
 80021d0:	ea18 0202 	ands.w	r2, r8, r2
 80021d4:	f000 80a0 	beq.w	8002318 <HAL_GPIO_Init+0x168>
 80021d8:	684e      	ldr	r6, [r1, #4]
 80021da:	2703      	movs	r7, #3
 80021dc:	f006 0503 	and.w	r5, r6, #3
 80021e0:	ea4f 0e43 	mov.w	lr, r3, lsl #1
 80021e4:	fa07 fc0e 	lsl.w	ip, r7, lr
 80021e8:	1e6f      	subs	r7, r5, #1
 80021ea:	2f01      	cmp	r7, #1
 80021ec:	ea6f 0c0c 	mvn.w	ip, ip
 80021f0:	d834      	bhi.n	800225c <HAL_GPIO_Init+0xac>
 80021f2:	6887      	ldr	r7, [r0, #8]
 80021f4:	ea07 0a0c 	and.w	sl, r7, ip
 80021f8:	68cf      	ldr	r7, [r1, #12]
 80021fa:	fa07 f70e 	lsl.w	r7, r7, lr
 80021fe:	ea47 070a 	orr.w	r7, r7, sl
 8002202:	6087      	str	r7, [r0, #8]
 8002204:	6847      	ldr	r7, [r0, #4]
 8002206:	ea27 0808 	bic.w	r8, r7, r8
 800220a:	f3c6 1700 	ubfx	r7, r6, #4, #1
 800220e:	409f      	lsls	r7, r3
 8002210:	ea47 0708 	orr.w	r7, r7, r8
 8002214:	6047      	str	r7, [r0, #4]
 8002216:	68c7      	ldr	r7, [r0, #12]
 8002218:	ea07 080c 	and.w	r8, r7, ip
 800221c:	688f      	ldr	r7, [r1, #8]
 800221e:	fa07 f70e 	lsl.w	r7, r7, lr
 8002222:	ea47 0708 	orr.w	r7, r7, r8
 8002226:	2d02      	cmp	r5, #2
 8002228:	60c7      	str	r7, [r0, #12]
 800222a:	d119      	bne.n	8002260 <HAL_GPIO_Init+0xb0>
 800222c:	ea4f 08d3 	mov.w	r8, r3, lsr #3
 8002230:	eb00 0888 	add.w	r8, r0, r8, lsl #2
 8002234:	f003 0a07 	and.w	sl, r3, #7
 8002238:	f8d8 7020 	ldr.w	r7, [r8, #32]
 800223c:	ea4f 0a8a 	mov.w	sl, sl, lsl #2
 8002240:	f04f 0b0f 	mov.w	fp, #15
 8002244:	fa0b fb0a 	lsl.w	fp, fp, sl
 8002248:	ea27 0b0b 	bic.w	fp, r7, fp
 800224c:	690f      	ldr	r7, [r1, #16]
 800224e:	fa07 f70a 	lsl.w	r7, r7, sl
 8002252:	ea47 070b 	orr.w	r7, r7, fp
 8002256:	f8c8 7020 	str.w	r7, [r8, #32]
 800225a:	e001      	b.n	8002260 <HAL_GPIO_Init+0xb0>
 800225c:	2d03      	cmp	r5, #3
 800225e:	d1da      	bne.n	8002216 <HAL_GPIO_Init+0x66>
 8002260:	6807      	ldr	r7, [r0, #0]
 8002262:	fa05 f50e 	lsl.w	r5, r5, lr
 8002266:	ea07 070c 	and.w	r7, r7, ip
 800226a:	433d      	orrs	r5, r7
 800226c:	f416 3f40 	tst.w	r6, #196608	@ 0x30000
 8002270:	6005      	str	r5, [r0, #0]
 8002272:	d051      	beq.n	8002318 <HAL_GPIO_Init+0x168>
 8002274:	f8d9 5018 	ldr.w	r5, [r9, #24]
 8002278:	f045 0501 	orr.w	r5, r5, #1
 800227c:	f8c9 5018 	str.w	r5, [r9, #24]
 8002280:	f8d9 5018 	ldr.w	r5, [r9, #24]
 8002284:	f023 0703 	bic.w	r7, r3, #3
 8002288:	f107 4780 	add.w	r7, r7, #1073741824	@ 0x40000000
 800228c:	f005 0501 	and.w	r5, r5, #1
 8002290:	f507 3780 	add.w	r7, r7, #65536	@ 0x10000
 8002294:	9501      	str	r5, [sp, #4]
 8002296:	f003 0c03 	and.w	ip, r3, #3
 800229a:	9d01      	ldr	r5, [sp, #4]
 800229c:	68bd      	ldr	r5, [r7, #8]
 800229e:	ea4f 0c8c 	mov.w	ip, ip, lsl #2
 80022a2:	f04f 0e0f 	mov.w	lr, #15
 80022a6:	fa0e fe0c 	lsl.w	lr, lr, ip
 80022aa:	f1b0 4f90 	cmp.w	r0, #1207959552	@ 0x48000000
 80022ae:	ea25 0e0e 	bic.w	lr, r5, lr
 80022b2:	d033      	beq.n	800231c <HAL_GPIO_Init+0x16c>
 80022b4:	4d1e      	ldr	r5, [pc, #120]	@ (8002330 <HAL_GPIO_Init+0x180>)
 80022b6:	42a8      	cmp	r0, r5
 80022b8:	d032      	beq.n	8002320 <HAL_GPIO_Init+0x170>
 80022ba:	f505 6580 	add.w	r5, r5, #1024	@ 0x400
 80022be:	42a8      	cmp	r0, r5
 80022c0:	d030      	beq.n	8002324 <HAL_GPIO_Init+0x174>
 80022c2:	f505 6580 	add.w	r5, r5, #1024	@ 0x400
 80022c6:	42a8      	cmp	r0, r5
 80022c8:	d02e      	beq.n	8002328 <HAL_GPIO_Init+0x178>
 80022ca:	f505 6580 	add.w	r5, r5, #1024	@ 0x400
 80022ce:	42a8      	cmp	r0, r5
 80022d0:	bf14      	ite	ne
 80022d2:	2505      	movne	r5, #5
 80022d4:	2504      	moveq	r5, #4
 80022d6:	fa05 f50c 	lsl.w	r5, r5, ip
 80022da:	ea45 050e 	orr.w	r5, r5, lr
 80022de:	60bd      	str	r5, [r7, #8]
 80022e0:	68a5      	ldr	r5, [r4, #8]
 80022e2:	43d7      	mvns	r7, r2
 80022e4:	f416 1f80 	tst.w	r6, #1048576	@ 0x100000
 80022e8:	bf0c      	ite	eq
 80022ea:	403d      	andeq	r5, r7
 80022ec:	4315      	orrne	r5, r2
 80022ee:	60a5      	str	r5, [r4, #8]
 80022f0:	68e5      	ldr	r5, [r4, #12]
 80022f2:	f416 1f00 	tst.w	r6, #2097152	@ 0x200000
 80022f6:	bf0c      	ite	eq
 80022f8:	403d      	andeq	r5, r7
 80022fa:	4315      	orrne	r5, r2
 80022fc:	60e5      	str	r5, [r4, #12]
 80022fe:	6865      	ldr	r5, [r4, #4]
 8002300:	f416 3f00 	tst.w	r6, #131072	@ 0x20000
 8002304:	bf0c      	ite	eq
 8002306:	403d      	andeq	r5, r7
 8002308:	4315      	orrne	r5, r2
 800230a:	6065      	str	r5, [r4, #4]
 800230c:	6825      	ldr	r5, [r4, #0]
 800230e:	03f6      	lsls	r6, r6, #15
 8002310:	bf54      	ite	pl
 8002312:	403d      	andpl	r5, r7
 8002314:	4315      	orrmi	r5, r2
 8002316:	6025      	str	r5, [r4, #0]
 8002318:	3301      	adds	r3, #1
 800231a:	e74f      	b.n	80021bc <HAL_GPIO_Init+0xc>
 800231c:	2500      	movs	r5, #0
 800231e:	e7da      	b.n	80022d6 <HAL_GPIO_Init+0x126>
 8002320:	2501      	movs	r5, #1
 8002322:	e7d8      	b.n	80022d6 <HAL_GPIO_Init+0x126>
 8002324:	2502      	movs	r5, #2
 8002326:	e7d6      	b.n	80022d6 <HAL_GPIO_Init+0x126>
 8002328:	2503      	movs	r5, #3
 800232a:	e7d4      	b.n	80022d6 <HAL_GPIO_Init+0x126>
 800232c:	40010400 	.word	0x40010400
 8002330:	48000400 	.word	0x48000400
 8002334:	40021000 	.word	0x40021000

08002338 <HAL_GPIO_WritePin>:
 8002338:	b10a      	cbz	r2, 800233e <HAL_GPIO_WritePin+0x6>
 800233a:	6181      	str	r1, [r0, #24]
 800233c:	4770      	bx	lr
 800233e:	6281      	str	r1, [r0, #40]	@ 0x28
 8002340:	4770      	bx	lr

08002342 <HAL_GPIO_TogglePin>:
 8002342:	6943      	ldr	r3, [r0, #20]
 8002344:	ea01 0203 	and.w	r2, r1, r3
 8002348:	ea21 0103 	bic.w	r1, r1, r3
 800234c:	ea41 4102 	orr.w	r1, r1, r2, lsl #16
 8002350:	6181      	str	r1, [r0, #24]
 8002352:	4770      	bx	lr

08002354 <HAL_I2C_Init>:
 8002354:	b510      	push	{r4, lr}
 8002356:	4604      	mov	r4, r0
 8002358:	2800      	cmp	r0, #0
 800235a:	d04e      	beq.n	80023fa <HAL_I2C_Init+0xa6>
 800235c:	f890 3041 	ldrb.w	r3, [r0, #65]	@ 0x41
 8002360:	f003 02ff 	and.w	r2, r3, #255	@ 0xff
 8002364:	b91b      	cbnz	r3, 800236e <HAL_I2C_Init+0x1a>
 8002366:	f880 2040 	strb.w	r2, [r0, #64]	@ 0x40
 800236a:	f7fe fd21 	bl	8000db0 <HAL_I2C_MspInit>
 800236e:	2324      	movs	r3, #36	@ 0x24
 8002370:	f884 3041 	strb.w	r3, [r4, #65]	@ 0x41
 8002374:	6823      	ldr	r3, [r4, #0]
 8002376:	681a      	ldr	r2, [r3, #0]
 8002378:	f022 0201 	bic.w	r2, r2, #1
 800237c:	601a      	str	r2, [r3, #0]
 800237e:	6862      	ldr	r2, [r4, #4]
 8002380:	f022 6270 	bic.w	r2, r2, #251658240	@ 0xf000000
 8002384:	611a      	str	r2, [r3, #16]
 8002386:	689a      	ldr	r2, [r3, #8]
 8002388:	f422 4200 	bic.w	r2, r2, #32768	@ 0x8000
 800238c:	609a      	str	r2, [r3, #8]
 800238e:	e9d4 2102 	ldrd	r2, r1, [r4, #8]
 8002392:	2901      	cmp	r1, #1
 8002394:	d106      	bne.n	80023a4 <HAL_I2C_Init+0x50>
 8002396:	f442 4200 	orr.w	r2, r2, #32768	@ 0x8000
 800239a:	609a      	str	r2, [r3, #8]
 800239c:	685a      	ldr	r2, [r3, #4]
 800239e:	f422 6200 	bic.w	r2, r2, #2048	@ 0x800
 80023a2:	e007      	b.n	80023b4 <HAL_I2C_Init+0x60>
 80023a4:	f442 4204 	orr.w	r2, r2, #33792	@ 0x8400
 80023a8:	2902      	cmp	r1, #2
 80023aa:	609a      	str	r2, [r3, #8]
 80023ac:	d1f6      	bne.n	800239c <HAL_I2C_Init+0x48>
 80023ae:	685a      	ldr	r2, [r3, #4]
 80023b0:	f442 6200 	orr.w	r2, r2, #2048	@ 0x800
 80023b4:	605a      	str	r2, [r3, #4]
 80023b6:	685a      	ldr	r2, [r3, #4]
 80023b8:	f042 7200 	orr.w	r2, r2, #33554432	@ 0x2000000
 80023bc:	f442 4200 	orr.w	r2, r2, #32768	@ 0x8000
 80023c0:	605a      	str	r2, [r3, #4]
 80023c2:	68da      	ldr	r2, [r3, #12]
 80023c4:	f422 4200 	bic.w	r2, r2, #32768	@ 0x8000
 80023c8:	60da      	str	r2, [r3, #12]
 80023ca:	e9d4 2104 	ldrd	r2, r1, [r4, #16]
 80023ce:	430a      	orrs	r2, r1
 80023d0:	69a1      	ldr	r1, [r4, #24]
 80023d2:	ea42 2201 	orr.w	r2, r2, r1, lsl #8
 80023d6:	60da      	str	r2, [r3, #12]
 80023d8:	e9d4 2107 	ldrd	r2, r1, [r4, #28]
 80023dc:	430a      	orrs	r2, r1
 80023de:	601a      	str	r2, [r3, #0]
 80023e0:	681a      	ldr	r2, [r3, #0]
 80023e2:	f042 0201 	orr.w	r2, r2, #1
 80023e6:	601a      	str	r2, [r3, #0]
 80023e8:	2000      	movs	r0, #0
 80023ea:	2320      	movs	r3, #32
 80023ec:	6460      	str	r0, [r4, #68]	@ 0x44
 80023ee:	f884 3041 	strb.w	r3, [r4, #65]	@ 0x41
 80023f2:	6320      	str	r0, [r4, #48]	@ 0x30
 80023f4:	f884 0042 	strb.w	r0, [r4, #66]	@ 0x42
 80023f8:	bd10      	pop	{r4, pc}
 80023fa:	2001      	movs	r0, #1
 80023fc:	e7fc      	b.n	80023f8 <HAL_I2C_Init+0xa4>

080023fe <HAL_I2CEx_ConfigAnalogFilter>:
 80023fe:	b510      	push	{r4, lr}
 8002400:	f890 2041 	ldrb.w	r2, [r0, #65]	@ 0x41
 8002404:	2a20      	cmp	r2, #32
 8002406:	4603      	mov	r3, r0
 8002408:	b2d4      	uxtb	r4, r2
 800240a:	d11c      	bne.n	8002446 <HAL_I2CEx_ConfigAnalogFilter+0x48>
 800240c:	f890 2040 	ldrb.w	r2, [r0, #64]	@ 0x40
 8002410:	2a01      	cmp	r2, #1
 8002412:	d018      	beq.n	8002446 <HAL_I2CEx_ConfigAnalogFilter+0x48>
 8002414:	2224      	movs	r2, #36	@ 0x24
 8002416:	f880 2041 	strb.w	r2, [r0, #65]	@ 0x41
 800241a:	6802      	ldr	r2, [r0, #0]
 800241c:	6810      	ldr	r0, [r2, #0]
 800241e:	f020 0001 	bic.w	r0, r0, #1
 8002422:	6010      	str	r0, [r2, #0]
 8002424:	6810      	ldr	r0, [r2, #0]
 8002426:	f420 5080 	bic.w	r0, r0, #4096	@ 0x1000
 800242a:	6010      	str	r0, [r2, #0]
 800242c:	6810      	ldr	r0, [r2, #0]
 800242e:	4301      	orrs	r1, r0
 8002430:	6011      	str	r1, [r2, #0]
 8002432:	6811      	ldr	r1, [r2, #0]
 8002434:	2000      	movs	r0, #0
 8002436:	f041 0101 	orr.w	r1, r1, #1
 800243a:	6011      	str	r1, [r2, #0]
 800243c:	f883 4041 	strb.w	r4, [r3, #65]	@ 0x41
 8002440:	f883 0040 	strb.w	r0, [r3, #64]	@ 0x40
 8002444:	bd10      	pop	{r4, pc}
 8002446:	2002      	movs	r0, #2
 8002448:	e7fc      	b.n	8002444 <HAL_I2CEx_ConfigAnalogFilter+0x46>

0800244a <HAL_I2CEx_ConfigDigitalFilter>:
 800244a:	b510      	push	{r4, lr}
 800244c:	f890 2041 	ldrb.w	r2, [r0, #65]	@ 0x41
 8002450:	2a20      	cmp	r2, #32
 8002452:	4603      	mov	r3, r0
 8002454:	b2d4      	uxtb	r4, r2
 8002456:	d11b      	bne.n	8002490 <HAL_I2CEx_ConfigDigitalFilter+0x46>
 8002458:	f890 2040 	ldrb.w	r2, [r0, #64]	@ 0x40
 800245c:	2a01      	cmp	r2, #1
 800245e:	d017      	beq.n	8002490 <HAL_I2CEx_ConfigDigitalFilter+0x46>
 8002460:	2224      	movs	r2, #36	@ 0x24
 8002462:	f880 2041 	strb.w	r2, [r0, #65]	@ 0x41
 8002466:	6802      	ldr	r2, [r0, #0]
 8002468:	6810      	ldr	r0, [r2, #0]
 800246a:	f020 0001 	bic.w	r0, r0, #1
 800246e:	6010      	str	r0, [r2, #0]
 8002470:	6810      	ldr	r0, [r2, #0]
 8002472:	f420 6070 	bic.w	r0, r0, #3840	@ 0xf00
 8002476:	ea40 2101 	orr.w	r1, r0, r1, lsl #8
 800247a:	6011      	str	r1, [r2, #0]
 800247c:	6811      	ldr	r1, [r2, #0]
 800247e:	2000      	movs	r0, #0
 8002480:	f041 0101 	orr.w	r1, r1, #1
 8002484:	6011      	str	r1, [r2, #0]
 8002486:	f883 4041 	strb.w	r4, [r3, #65]	@ 0x41
 800248a:	f883 0040 	strb.w	r0, [r3, #64]	@ 0x40
 800248e:	bd10      	pop	{r4, pc}
 8002490:	2002      	movs	r0, #2
 8002492:	e7fc      	b.n	800248e <HAL_I2CEx_ConfigDigitalFilter+0x44>

08002494 <HAL_PCD_Init>:
 8002494:	b570      	push	{r4, r5, r6, lr}
 8002496:	4604      	mov	r4, r0
 8002498:	2800      	cmp	r0, #0
 800249a:	d045      	beq.n	8002528 <HAL_PCD_Init+0x94>
 800249c:	f890 3291 	ldrb.w	r3, [r0, #657]	@ 0x291
 80024a0:	f003 02ff 	and.w	r2, r3, #255	@ 0xff
 80024a4:	b91b      	cbnz	r3, 80024ae <HAL_PCD_Init+0x1a>
 80024a6:	f880 2290 	strb.w	r2, [r0, #656]	@ 0x290
 80024aa:	f7fe fd37 	bl	8000f1c <HAL_PCD_MspInit>
 80024ae:	2303      	movs	r3, #3
 80024b0:	f884 3291 	strb.w	r3, [r4, #657]	@ 0x291
 80024b4:	6820      	ldr	r0, [r4, #0]
 80024b6:	f001 fcd0 	bl	8003e5a <USB_DisableGlobalInt>
 80024ba:	2200      	movs	r2, #0
 80024bc:	7925      	ldrb	r5, [r4, #4]
 80024be:	f104 0310 	add.w	r3, r4, #16
 80024c2:	4611      	mov	r1, r2
 80024c4:	2601      	movs	r6, #1
 80024c6:	b2d0      	uxtb	r0, r2
 80024c8:	4285      	cmp	r5, r0
 80024ca:	f103 0328 	add.w	r3, r3, #40	@ 0x28
 80024ce:	d813      	bhi.n	80024f8 <HAL_PCD_Init+0x64>
 80024d0:	2100      	movs	r1, #0
 80024d2:	f504 73a8 	add.w	r3, r4, #336	@ 0x150
 80024d6:	460a      	mov	r2, r1
 80024d8:	b2c8      	uxtb	r0, r1
 80024da:	4285      	cmp	r5, r0
 80024dc:	f103 0328 	add.w	r3, r3, #40	@ 0x28
 80024e0:	d816      	bhi.n	8002510 <HAL_PCD_Init+0x7c>
 80024e2:	e9d4 1201 	ldrd	r1, r2, [r4, #4]
 80024e6:	6820      	ldr	r0, [r4, #0]
 80024e8:	f001 fcc1 	bl	8003e6e <USB_DevInit>
 80024ec:	2000      	movs	r0, #0
 80024ee:	2301      	movs	r3, #1
 80024f0:	7320      	strb	r0, [r4, #12]
 80024f2:	f884 3291 	strb.w	r3, [r4, #657]	@ 0x291
 80024f6:	bd70      	pop	{r4, r5, r6, pc}
 80024f8:	e943 1106 	strd	r1, r1, [r3, #-24]
 80024fc:	f803 6c27 	strb.w	r6, [r3, #-39]
 8002500:	f803 0c28 	strb.w	r0, [r3, #-40]
 8002504:	f803 1c25 	strb.w	r1, [r3, #-37]
 8002508:	f843 1c10 	str.w	r1, [r3, #-16]
 800250c:	3201      	adds	r2, #1
 800250e:	e7da      	b.n	80024c6 <HAL_PCD_Init+0x32>
 8002510:	e943 2206 	strd	r2, r2, [r3, #-24]
 8002514:	f803 2c27 	strb.w	r2, [r3, #-39]
 8002518:	f803 0c28 	strb.w	r0, [r3, #-40]
 800251c:	f803 2c25 	strb.w	r2, [r3, #-37]
 8002520:	f843 2c10 	str.w	r2, [r3, #-16]
 8002524:	3101      	adds	r1, #1
 8002526:	e7d7      	b.n	80024d8 <HAL_PCD_Init+0x44>
 8002528:	2001      	movs	r0, #1
 800252a:	e7e4      	b.n	80024f6 <HAL_PCD_Init+0x62>

0800252c <HAL_RCC_OscConfig>:
 800252c:	e92d 47f3 	stmdb	sp!, {r0, r1, r4, r5, r6, r7, r8, r9, sl, lr}
 8002530:	4605      	mov	r5, r0
 8002532:	2800      	cmp	r0, #0
 8002534:	d033      	beq.n	800259e <HAL_RCC_OscConfig+0x72>
 8002536:	6803      	ldr	r3, [r0, #0]
 8002538:	07da      	lsls	r2, r3, #31
 800253a:	d411      	bmi.n	8002560 <HAL_RCC_OscConfig+0x34>
 800253c:	682b      	ldr	r3, [r5, #0]
 800253e:	079b      	lsls	r3, r3, #30
 8002540:	f100 8081 	bmi.w	8002646 <HAL_RCC_OscConfig+0x11a>
 8002544:	682b      	ldr	r3, [r5, #0]
 8002546:	071c      	lsls	r4, r3, #28
 8002548:	f100 80eb 	bmi.w	8002722 <HAL_RCC_OscConfig+0x1f6>
 800254c:	682b      	ldr	r3, [r5, #0]
 800254e:	0758      	lsls	r0, r3, #29
 8002550:	f100 8130 	bmi.w	80027b4 <HAL_RCC_OscConfig+0x288>
 8002554:	69eb      	ldr	r3, [r5, #28]
 8002556:	2b00      	cmp	r3, #0
 8002558:	f040 81b5 	bne.w	80028c6 <HAL_RCC_OscConfig+0x39a>
 800255c:	2000      	movs	r0, #0
 800255e:	e047      	b.n	80025f0 <HAL_RCC_OscConfig+0xc4>
 8002560:	4cb0      	ldr	r4, [pc, #704]	@ (8002824 <HAL_RCC_OscConfig+0x2f8>)
 8002562:	6863      	ldr	r3, [r4, #4]
 8002564:	f003 030c 	and.w	r3, r3, #12
 8002568:	2b04      	cmp	r3, #4
 800256a:	d007      	beq.n	800257c <HAL_RCC_OscConfig+0x50>
 800256c:	6863      	ldr	r3, [r4, #4]
 800256e:	f003 030c 	and.w	r3, r3, #12
 8002572:	2b08      	cmp	r3, #8
 8002574:	d115      	bne.n	80025a2 <HAL_RCC_OscConfig+0x76>
 8002576:	6863      	ldr	r3, [r4, #4]
 8002578:	03df      	lsls	r7, r3, #15
 800257a:	d512      	bpl.n	80025a2 <HAL_RCC_OscConfig+0x76>
 800257c:	f44f 3300 	mov.w	r3, #131072	@ 0x20000
 8002580:	fa93 f2a3 	rbit	r2, r3
 8002584:	6821      	ldr	r1, [r4, #0]
 8002586:	fa93 f3a3 	rbit	r3, r3
 800258a:	2201      	movs	r2, #1
 800258c:	fab3 f383 	clz	r3, r3
 8002590:	fa02 f303 	lsl.w	r3, r2, r3
 8002594:	420b      	tst	r3, r1
 8002596:	d0d1      	beq.n	800253c <HAL_RCC_OscConfig+0x10>
 8002598:	686b      	ldr	r3, [r5, #4]
 800259a:	2b00      	cmp	r3, #0
 800259c:	d1ce      	bne.n	800253c <HAL_RCC_OscConfig+0x10>
 800259e:	2001      	movs	r0, #1
 80025a0:	e026      	b.n	80025f0 <HAL_RCC_OscConfig+0xc4>
 80025a2:	686a      	ldr	r2, [r5, #4]
 80025a4:	f5b2 3f80 	cmp.w	r2, #65536	@ 0x10000
 80025a8:	d125      	bne.n	80025f6 <HAL_RCC_OscConfig+0xca>
 80025aa:	6823      	ldr	r3, [r4, #0]
 80025ac:	f443 3380 	orr.w	r3, r3, #65536	@ 0x10000
 80025b0:	6023      	str	r3, [r4, #0]
 80025b2:	6ae3      	ldr	r3, [r4, #44]	@ 0x2c
 80025b4:	68a9      	ldr	r1, [r5, #8]
 80025b6:	f023 030f 	bic.w	r3, r3, #15
 80025ba:	430b      	orrs	r3, r1
 80025bc:	62e3      	str	r3, [r4, #44]	@ 0x2c
 80025be:	b352      	cbz	r2, 8002616 <HAL_RCC_OscConfig+0xea>
 80025c0:	f7fe fdb8 	bl	8001134 <HAL_GetTick>
 80025c4:	f44f 3700 	mov.w	r7, #131072	@ 0x20000
 80025c8:	4606      	mov	r6, r0
 80025ca:	f04f 0801 	mov.w	r8, #1
 80025ce:	fa97 f3a7 	rbit	r3, r7
 80025d2:	6822      	ldr	r2, [r4, #0]
 80025d4:	fa97 f3a7 	rbit	r3, r7
 80025d8:	fab3 f383 	clz	r3, r3
 80025dc:	fa08 f303 	lsl.w	r3, r8, r3
 80025e0:	4213      	tst	r3, r2
 80025e2:	d1ab      	bne.n	800253c <HAL_RCC_OscConfig+0x10>
 80025e4:	f7fe fda6 	bl	8001134 <HAL_GetTick>
 80025e8:	1b80      	subs	r0, r0, r6
 80025ea:	2864      	cmp	r0, #100	@ 0x64
 80025ec:	d9ef      	bls.n	80025ce <HAL_RCC_OscConfig+0xa2>
 80025ee:	2003      	movs	r0, #3
 80025f0:	b002      	add	sp, #8
 80025f2:	e8bd 87f0 	ldmia.w	sp!, {r4, r5, r6, r7, r8, r9, sl, pc}
 80025f6:	6823      	ldr	r3, [r4, #0]
 80025f8:	b932      	cbnz	r2, 8002608 <HAL_RCC_OscConfig+0xdc>
 80025fa:	f423 3380 	bic.w	r3, r3, #65536	@ 0x10000
 80025fe:	6023      	str	r3, [r4, #0]
 8002600:	6823      	ldr	r3, [r4, #0]
 8002602:	f423 2380 	bic.w	r3, r3, #262144	@ 0x40000
 8002606:	e7d3      	b.n	80025b0 <HAL_RCC_OscConfig+0x84>
 8002608:	f5b2 2fa0 	cmp.w	r2, #327680	@ 0x50000
 800260c:	d1f5      	bne.n	80025fa <HAL_RCC_OscConfig+0xce>
 800260e:	f443 2380 	orr.w	r3, r3, #262144	@ 0x40000
 8002612:	6023      	str	r3, [r4, #0]
 8002614:	e7c9      	b.n	80025aa <HAL_RCC_OscConfig+0x7e>
 8002616:	f7fe fd8d 	bl	8001134 <HAL_GetTick>
 800261a:	f44f 3700 	mov.w	r7, #131072	@ 0x20000
 800261e:	4606      	mov	r6, r0
 8002620:	f04f 0801 	mov.w	r8, #1
 8002624:	fa97 f3a7 	rbit	r3, r7
 8002628:	6822      	ldr	r2, [r4, #0]
 800262a:	fa97 f3a7 	rbit	r3, r7
 800262e:	fab3 f383 	clz	r3, r3
 8002632:	fa08 f303 	lsl.w	r3, r8, r3
 8002636:	4213      	tst	r3, r2
 8002638:	d080      	beq.n	800253c <HAL_RCC_OscConfig+0x10>
 800263a:	f7fe fd7b 	bl	8001134 <HAL_GetTick>
 800263e:	1b80      	subs	r0, r0, r6
 8002640:	2864      	cmp	r0, #100	@ 0x64
 8002642:	d9ef      	bls.n	8002624 <HAL_RCC_OscConfig+0xf8>
 8002644:	e7d3      	b.n	80025ee <HAL_RCC_OscConfig+0xc2>
 8002646:	4c77      	ldr	r4, [pc, #476]	@ (8002824 <HAL_RCC_OscConfig+0x2f8>)
 8002648:	6863      	ldr	r3, [r4, #4]
 800264a:	f013 0f0c 	tst.w	r3, #12
 800264e:	d007      	beq.n	8002660 <HAL_RCC_OscConfig+0x134>
 8002650:	6863      	ldr	r3, [r4, #4]
 8002652:	f003 030c 	and.w	r3, r3, #12
 8002656:	2b08      	cmp	r3, #8
 8002658:	d11f      	bne.n	800269a <HAL_RCC_OscConfig+0x16e>
 800265a:	6863      	ldr	r3, [r4, #4]
 800265c:	03de      	lsls	r6, r3, #15
 800265e:	d41c      	bmi.n	800269a <HAL_RCC_OscConfig+0x16e>
 8002660:	2302      	movs	r3, #2
 8002662:	fa93 f2a3 	rbit	r2, r3
 8002666:	6821      	ldr	r1, [r4, #0]
 8002668:	fa93 f3a3 	rbit	r3, r3
 800266c:	2201      	movs	r2, #1
 800266e:	fab3 f383 	clz	r3, r3
 8002672:	fa02 f303 	lsl.w	r3, r2, r3
 8002676:	420b      	tst	r3, r1
 8002678:	d002      	beq.n	8002680 <HAL_RCC_OscConfig+0x154>
 800267a:	692b      	ldr	r3, [r5, #16]
 800267c:	4293      	cmp	r3, r2
 800267e:	d18e      	bne.n	800259e <HAL_RCC_OscConfig+0x72>
 8002680:	6821      	ldr	r1, [r4, #0]
 8002682:	22f8      	movs	r2, #248	@ 0xf8
 8002684:	fa92 f2a2 	rbit	r2, r2
 8002688:	696b      	ldr	r3, [r5, #20]
 800268a:	fab2 f282 	clz	r2, r2
 800268e:	4093      	lsls	r3, r2
 8002690:	f021 02f8 	bic.w	r2, r1, #248	@ 0xf8
 8002694:	4313      	orrs	r3, r2
 8002696:	6023      	str	r3, [r4, #0]
 8002698:	e754      	b.n	8002544 <HAL_RCC_OscConfig+0x18>
 800269a:	692a      	ldr	r2, [r5, #16]
 800269c:	2601      	movs	r6, #1
 800269e:	b1fa      	cbz	r2, 80026e0 <HAL_RCC_OscConfig+0x1b4>
 80026a0:	fa96 f3a6 	rbit	r3, r6
 80026a4:	fab3 f383 	clz	r3, r3
 80026a8:	f103 5384 	add.w	r3, r3, #276824064	@ 0x10800000
 80026ac:	f503 1384 	add.w	r3, r3, #1081344	@ 0x108000
 80026b0:	009b      	lsls	r3, r3, #2
 80026b2:	f04f 0802 	mov.w	r8, #2
 80026b6:	601e      	str	r6, [r3, #0]
 80026b8:	f7fe fd3c 	bl	8001134 <HAL_GetTick>
 80026bc:	4607      	mov	r7, r0
 80026be:	fa98 f3a8 	rbit	r3, r8
 80026c2:	6822      	ldr	r2, [r4, #0]
 80026c4:	fa98 f3a8 	rbit	r3, r8
 80026c8:	fab3 f383 	clz	r3, r3
 80026cc:	fa06 f303 	lsl.w	r3, r6, r3
 80026d0:	4213      	tst	r3, r2
 80026d2:	d1d5      	bne.n	8002680 <HAL_RCC_OscConfig+0x154>
 80026d4:	f7fe fd2e 	bl	8001134 <HAL_GetTick>
 80026d8:	1bc0      	subs	r0, r0, r7
 80026da:	2802      	cmp	r0, #2
 80026dc:	d9ef      	bls.n	80026be <HAL_RCC_OscConfig+0x192>
 80026de:	e786      	b.n	80025ee <HAL_RCC_OscConfig+0xc2>
 80026e0:	fa96 f3a6 	rbit	r3, r6
 80026e4:	fab3 f383 	clz	r3, r3
 80026e8:	f103 5384 	add.w	r3, r3, #276824064	@ 0x10800000
 80026ec:	f503 1384 	add.w	r3, r3, #1081344	@ 0x108000
 80026f0:	009b      	lsls	r3, r3, #2
 80026f2:	f04f 0802 	mov.w	r8, #2
 80026f6:	601a      	str	r2, [r3, #0]
 80026f8:	f7fe fd1c 	bl	8001134 <HAL_GetTick>
 80026fc:	4607      	mov	r7, r0
 80026fe:	fa98 f3a8 	rbit	r3, r8
 8002702:	6822      	ldr	r2, [r4, #0]
 8002704:	fa98 f3a8 	rbit	r3, r8
 8002708:	fab3 f383 	clz	r3, r3
 800270c:	fa06 f303 	lsl.w	r3, r6, r3
 8002710:	4213      	tst	r3, r2
 8002712:	f43f af17 	beq.w	8002544 <HAL_RCC_OscConfig+0x18>
 8002716:	f7fe fd0d 	bl	8001134 <HAL_GetTick>
 800271a:	1bc0      	subs	r0, r0, r7
 800271c:	2802      	cmp	r0, #2
 800271e:	d9ee      	bls.n	80026fe <HAL_RCC_OscConfig+0x1d2>
 8002720:	e765      	b.n	80025ee <HAL_RCC_OscConfig+0xc2>
 8002722:	69aa      	ldr	r2, [r5, #24]
 8002724:	4e3f      	ldr	r6, [pc, #252]	@ (8002824 <HAL_RCC_OscConfig+0x2f8>)
 8002726:	4940      	ldr	r1, [pc, #256]	@ (8002828 <HAL_RCC_OscConfig+0x2fc>)
 8002728:	2401      	movs	r4, #1
 800272a:	b30a      	cbz	r2, 8002770 <HAL_RCC_OscConfig+0x244>
 800272c:	fa94 f3a4 	rbit	r3, r4
 8002730:	fab3 f383 	clz	r3, r3
 8002734:	440b      	add	r3, r1
 8002736:	009b      	lsls	r3, r3, #2
 8002738:	2702      	movs	r7, #2
 800273a:	601c      	str	r4, [r3, #0]
 800273c:	f7fe fcfa 	bl	8001134 <HAL_GetTick>
 8002740:	4680      	mov	r8, r0
 8002742:	fa97 f3a7 	rbit	r3, r7
 8002746:	fa97 f3a7 	rbit	r3, r7
 800274a:	fa97 f3a7 	rbit	r3, r7
 800274e:	6a72      	ldr	r2, [r6, #36]	@ 0x24
 8002750:	fa97 f3a7 	rbit	r3, r7
 8002754:	fab3 f383 	clz	r3, r3
 8002758:	fa04 f303 	lsl.w	r3, r4, r3
 800275c:	4213      	tst	r3, r2
 800275e:	f47f aef5 	bne.w	800254c <HAL_RCC_OscConfig+0x20>
 8002762:	f7fe fce7 	bl	8001134 <HAL_GetTick>
 8002766:	eba0 0008 	sub.w	r0, r0, r8
 800276a:	2802      	cmp	r0, #2
 800276c:	d9e9      	bls.n	8002742 <HAL_RCC_OscConfig+0x216>
 800276e:	e73e      	b.n	80025ee <HAL_RCC_OscConfig+0xc2>
 8002770:	fa94 f3a4 	rbit	r3, r4
 8002774:	fab3 f383 	clz	r3, r3
 8002778:	440b      	add	r3, r1
 800277a:	009b      	lsls	r3, r3, #2
 800277c:	2702      	movs	r7, #2
 800277e:	601a      	str	r2, [r3, #0]
 8002780:	f7fe fcd8 	bl	8001134 <HAL_GetTick>
 8002784:	4680      	mov	r8, r0
 8002786:	fa97 f3a7 	rbit	r3, r7
 800278a:	fa97 f3a7 	rbit	r3, r7
 800278e:	fa97 f3a7 	rbit	r3, r7
 8002792:	6a72      	ldr	r2, [r6, #36]	@ 0x24
 8002794:	fa97 f3a7 	rbit	r3, r7
 8002798:	fab3 f383 	clz	r3, r3
 800279c:	fa04 f303 	lsl.w	r3, r4, r3
 80027a0:	4213      	tst	r3, r2
 80027a2:	f43f aed3 	beq.w	800254c <HAL_RCC_OscConfig+0x20>
 80027a6:	f7fe fcc5 	bl	8001134 <HAL_GetTick>
 80027aa:	eba0 0008 	sub.w	r0, r0, r8
 80027ae:	2802      	cmp	r0, #2
 80027b0:	d9e9      	bls.n	8002786 <HAL_RCC_OscConfig+0x25a>
 80027b2:	e71c      	b.n	80025ee <HAL_RCC_OscConfig+0xc2>
 80027b4:	4c1b      	ldr	r4, [pc, #108]	@ (8002824 <HAL_RCC_OscConfig+0x2f8>)
 80027b6:	69e3      	ldr	r3, [r4, #28]
 80027b8:	00d9      	lsls	r1, r3, #3
 80027ba:	d431      	bmi.n	8002820 <HAL_RCC_OscConfig+0x2f4>
 80027bc:	69e3      	ldr	r3, [r4, #28]
 80027be:	f043 5380 	orr.w	r3, r3, #268435456	@ 0x10000000
 80027c2:	61e3      	str	r3, [r4, #28]
 80027c4:	69e3      	ldr	r3, [r4, #28]
 80027c6:	f003 5380 	and.w	r3, r3, #268435456	@ 0x10000000
 80027ca:	9301      	str	r3, [sp, #4]
 80027cc:	9b01      	ldr	r3, [sp, #4]
 80027ce:	2601      	movs	r6, #1
 80027d0:	4f16      	ldr	r7, [pc, #88]	@ (800282c <HAL_RCC_OscConfig+0x300>)
 80027d2:	683b      	ldr	r3, [r7, #0]
 80027d4:	05da      	lsls	r2, r3, #23
 80027d6:	d52b      	bpl.n	8002830 <HAL_RCC_OscConfig+0x304>
 80027d8:	68eb      	ldr	r3, [r5, #12]
 80027da:	2b01      	cmp	r3, #1
 80027dc:	d139      	bne.n	8002852 <HAL_RCC_OscConfig+0x326>
 80027de:	6a23      	ldr	r3, [r4, #32]
 80027e0:	f043 0301 	orr.w	r3, r3, #1
 80027e4:	6223      	str	r3, [r4, #32]
 80027e6:	f7fe fca5 	bl	8001134 <HAL_GetTick>
 80027ea:	2702      	movs	r7, #2
 80027ec:	4680      	mov	r8, r0
 80027ee:	f04f 0901 	mov.w	r9, #1
 80027f2:	f241 3a88 	movw	sl, #5000	@ 0x1388
 80027f6:	fa97 f3a7 	rbit	r3, r7
 80027fa:	fa97 f3a7 	rbit	r3, r7
 80027fe:	6a22      	ldr	r2, [r4, #32]
 8002800:	fa97 f3a7 	rbit	r3, r7
 8002804:	fab3 f383 	clz	r3, r3
 8002808:	fa09 f303 	lsl.w	r3, r9, r3
 800280c:	4213      	tst	r3, r2
 800280e:	d053      	beq.n	80028b8 <HAL_RCC_OscConfig+0x38c>
 8002810:	2e00      	cmp	r6, #0
 8002812:	f43f ae9f 	beq.w	8002554 <HAL_RCC_OscConfig+0x28>
 8002816:	69e3      	ldr	r3, [r4, #28]
 8002818:	f023 5380 	bic.w	r3, r3, #268435456	@ 0x10000000
 800281c:	61e3      	str	r3, [r4, #28]
 800281e:	e699      	b.n	8002554 <HAL_RCC_OscConfig+0x28>
 8002820:	2600      	movs	r6, #0
 8002822:	e7d5      	b.n	80027d0 <HAL_RCC_OscConfig+0x2a4>
 8002824:	40021000 	.word	0x40021000
 8002828:	10908120 	.word	0x10908120
 800282c:	40007000 	.word	0x40007000
 8002830:	683b      	ldr	r3, [r7, #0]
 8002832:	f443 7380 	orr.w	r3, r3, #256	@ 0x100
 8002836:	603b      	str	r3, [r7, #0]
 8002838:	f7fe fc7c 	bl	8001134 <HAL_GetTick>
 800283c:	4680      	mov	r8, r0
 800283e:	683b      	ldr	r3, [r7, #0]
 8002840:	05db      	lsls	r3, r3, #23
 8002842:	d4c9      	bmi.n	80027d8 <HAL_RCC_OscConfig+0x2ac>
 8002844:	f7fe fc76 	bl	8001134 <HAL_GetTick>
 8002848:	eba0 0008 	sub.w	r0, r0, r8
 800284c:	2864      	cmp	r0, #100	@ 0x64
 800284e:	d9f6      	bls.n	800283e <HAL_RCC_OscConfig+0x312>
 8002850:	e6cd      	b.n	80025ee <HAL_RCC_OscConfig+0xc2>
 8002852:	bb1b      	cbnz	r3, 800289c <HAL_RCC_OscConfig+0x370>
 8002854:	6a23      	ldr	r3, [r4, #32]
 8002856:	f023 0301 	bic.w	r3, r3, #1
 800285a:	6223      	str	r3, [r4, #32]
 800285c:	6a23      	ldr	r3, [r4, #32]
 800285e:	f023 0304 	bic.w	r3, r3, #4
 8002862:	6223      	str	r3, [r4, #32]
 8002864:	f7fe fc66 	bl	8001134 <HAL_GetTick>
 8002868:	2702      	movs	r7, #2
 800286a:	4680      	mov	r8, r0
 800286c:	f04f 0901 	mov.w	r9, #1
 8002870:	f241 3a88 	movw	sl, #5000	@ 0x1388
 8002874:	fa97 f3a7 	rbit	r3, r7
 8002878:	fa97 f3a7 	rbit	r3, r7
 800287c:	6a22      	ldr	r2, [r4, #32]
 800287e:	fa97 f3a7 	rbit	r3, r7
 8002882:	fab3 f383 	clz	r3, r3
 8002886:	fa09 f303 	lsl.w	r3, r9, r3
 800288a:	4213      	tst	r3, r2
 800288c:	d0c0      	beq.n	8002810 <HAL_RCC_OscConfig+0x2e4>
 800288e:	f7fe fc51 	bl	8001134 <HAL_GetTick>
 8002892:	eba0 0008 	sub.w	r0, r0, r8
 8002896:	4550      	cmp	r0, sl
 8002898:	d9ec      	bls.n	8002874 <HAL_RCC_OscConfig+0x348>
 800289a:	e6a8      	b.n	80025ee <HAL_RCC_OscConfig+0xc2>
 800289c:	2b05      	cmp	r3, #5
 800289e:	6a23      	ldr	r3, [r4, #32]
 80028a0:	d103      	bne.n	80028aa <HAL_RCC_OscConfig+0x37e>
 80028a2:	f043 0304 	orr.w	r3, r3, #4
 80028a6:	6223      	str	r3, [r4, #32]
 80028a8:	e799      	b.n	80027de <HAL_RCC_OscConfig+0x2b2>
 80028aa:	f023 0301 	bic.w	r3, r3, #1
 80028ae:	6223      	str	r3, [r4, #32]
 80028b0:	6a23      	ldr	r3, [r4, #32]
 80028b2:	f023 0304 	bic.w	r3, r3, #4
 80028b6:	e795      	b.n	80027e4 <HAL_RCC_OscConfig+0x2b8>
 80028b8:	f7fe fc3c 	bl	8001134 <HAL_GetTick>
 80028bc:	eba0 0008 	sub.w	r0, r0, r8
 80028c0:	4550      	cmp	r0, sl
 80028c2:	d998      	bls.n	80027f6 <HAL_RCC_OscConfig+0x2ca>
 80028c4:	e693      	b.n	80025ee <HAL_RCC_OscConfig+0xc2>
 80028c6:	4c46      	ldr	r4, [pc, #280]	@ (80029e0 <HAL_RCC_OscConfig+0x4b4>)
 80028c8:	6862      	ldr	r2, [r4, #4]
 80028ca:	f002 020c 	and.w	r2, r2, #12
 80028ce:	2a08      	cmp	r2, #8
 80028d0:	d074      	beq.n	80029bc <HAL_RCC_OscConfig+0x490>
 80028d2:	2b02      	cmp	r3, #2
 80028d4:	f04f 7380 	mov.w	r3, #16777216	@ 0x1000000
 80028d8:	d14d      	bne.n	8002976 <HAL_RCC_OscConfig+0x44a>
 80028da:	fa93 f3a3 	rbit	r3, r3
 80028de:	fab3 f383 	clz	r3, r3
 80028e2:	f103 5384 	add.w	r3, r3, #276824064	@ 0x10800000
 80028e6:	f503 1384 	add.w	r3, r3, #1081344	@ 0x108000
 80028ea:	009b      	lsls	r3, r3, #2
 80028ec:	2200      	movs	r2, #0
 80028ee:	601a      	str	r2, [r3, #0]
 80028f0:	f7fe fc20 	bl	8001134 <HAL_GetTick>
 80028f4:	f04f 7800 	mov.w	r8, #33554432	@ 0x2000000
 80028f8:	4607      	mov	r7, r0
 80028fa:	2601      	movs	r6, #1
 80028fc:	fa98 f3a8 	rbit	r3, r8
 8002900:	6822      	ldr	r2, [r4, #0]
 8002902:	fa98 f3a8 	rbit	r3, r8
 8002906:	fab3 f383 	clz	r3, r3
 800290a:	fa06 f303 	lsl.w	r3, r6, r3
 800290e:	4213      	tst	r3, r2
 8002910:	d12b      	bne.n	800296a <HAL_RCC_OscConfig+0x43e>
 8002912:	e9d5 1308 	ldrd	r1, r3, [r5, #32]
 8002916:	6862      	ldr	r2, [r4, #4]
 8002918:	430b      	orrs	r3, r1
 800291a:	f422 1274 	bic.w	r2, r2, #3997696	@ 0x3d0000
 800291e:	4313      	orrs	r3, r2
 8002920:	6063      	str	r3, [r4, #4]
 8002922:	f04f 7380 	mov.w	r3, #16777216	@ 0x1000000
 8002926:	fa93 f3a3 	rbit	r3, r3
 800292a:	fab3 f383 	clz	r3, r3
 800292e:	f103 5384 	add.w	r3, r3, #276824064	@ 0x10800000
 8002932:	f503 1384 	add.w	r3, r3, #1081344	@ 0x108000
 8002936:	009b      	lsls	r3, r3, #2
 8002938:	2701      	movs	r7, #1
 800293a:	601e      	str	r6, [r3, #0]
 800293c:	f7fe fbfa 	bl	8001134 <HAL_GetTick>
 8002940:	f04f 7600 	mov.w	r6, #33554432	@ 0x2000000
 8002944:	4605      	mov	r5, r0
 8002946:	fa96 f3a6 	rbit	r3, r6
 800294a:	6822      	ldr	r2, [r4, #0]
 800294c:	fa96 f3a6 	rbit	r3, r6
 8002950:	fab3 f383 	clz	r3, r3
 8002954:	fa07 f303 	lsl.w	r3, r7, r3
 8002958:	4213      	tst	r3, r2
 800295a:	f47f adff 	bne.w	800255c <HAL_RCC_OscConfig+0x30>
 800295e:	f7fe fbe9 	bl	8001134 <HAL_GetTick>
 8002962:	1b40      	subs	r0, r0, r5
 8002964:	2802      	cmp	r0, #2
 8002966:	d9ee      	bls.n	8002946 <HAL_RCC_OscConfig+0x41a>
 8002968:	e641      	b.n	80025ee <HAL_RCC_OscConfig+0xc2>
 800296a:	f7fe fbe3 	bl	8001134 <HAL_GetTick>
 800296e:	1bc0      	subs	r0, r0, r7
 8002970:	2802      	cmp	r0, #2
 8002972:	d9c3      	bls.n	80028fc <HAL_RCC_OscConfig+0x3d0>
 8002974:	e63b      	b.n	80025ee <HAL_RCC_OscConfig+0xc2>
 8002976:	fa93 f3a3 	rbit	r3, r3
 800297a:	fab3 f383 	clz	r3, r3
 800297e:	f103 5384 	add.w	r3, r3, #276824064	@ 0x10800000
 8002982:	f503 1384 	add.w	r3, r3, #1081344	@ 0x108000
 8002986:	009b      	lsls	r3, r3, #2
 8002988:	2200      	movs	r2, #0
 800298a:	601a      	str	r2, [r3, #0]
 800298c:	f7fe fbd2 	bl	8001134 <HAL_GetTick>
 8002990:	f04f 7600 	mov.w	r6, #33554432	@ 0x2000000
 8002994:	4605      	mov	r5, r0
 8002996:	2701      	movs	r7, #1
 8002998:	fa96 f3a6 	rbit	r3, r6
 800299c:	6822      	ldr	r2, [r4, #0]
 800299e:	fa96 f3a6 	rbit	r3, r6
 80029a2:	fab3 f383 	clz	r3, r3
 80029a6:	fa07 f303 	lsl.w	r3, r7, r3
 80029aa:	4213      	tst	r3, r2
 80029ac:	f43f add6 	beq.w	800255c <HAL_RCC_OscConfig+0x30>
 80029b0:	f7fe fbc0 	bl	8001134 <HAL_GetTick>
 80029b4:	1b40      	subs	r0, r0, r5
 80029b6:	2802      	cmp	r0, #2
 80029b8:	d9ee      	bls.n	8002998 <HAL_RCC_OscConfig+0x46c>
 80029ba:	e618      	b.n	80025ee <HAL_RCC_OscConfig+0xc2>
 80029bc:	2b01      	cmp	r3, #1
 80029be:	f43f adee 	beq.w	800259e <HAL_RCC_OscConfig+0x72>
 80029c2:	6860      	ldr	r0, [r4, #4]
 80029c4:	6a2b      	ldr	r3, [r5, #32]
 80029c6:	f400 3280 	and.w	r2, r0, #65536	@ 0x10000
 80029ca:	429a      	cmp	r2, r3
 80029cc:	f47f ade7 	bne.w	800259e <HAL_RCC_OscConfig+0x72>
 80029d0:	6a6b      	ldr	r3, [r5, #36]	@ 0x24
 80029d2:	f400 1070 	and.w	r0, r0, #3932160	@ 0x3c0000
 80029d6:	1ac0      	subs	r0, r0, r3
 80029d8:	bf18      	it	ne
 80029da:	2001      	movne	r0, #1
 80029dc:	e608      	b.n	80025f0 <HAL_RCC_OscConfig+0xc4>
 80029de:	bf00      	nop
 80029e0:	40021000 	.word	0x40021000

080029e4 <HAL_RCC_GetSysClockFreq>:
 80029e4:	4b0e      	ldr	r3, [pc, #56]	@ (8002a20 <HAL_RCC_GetSysClockFreq+0x3c>)
 80029e6:	685a      	ldr	r2, [r3, #4]
 80029e8:	f002 010c 	and.w	r1, r2, #12
 80029ec:	2904      	cmp	r1, #4
 80029ee:	d013      	beq.n	8002a18 <HAL_RCC_GetSysClockFreq+0x34>
 80029f0:	2908      	cmp	r1, #8
 80029f2:	d113      	bne.n	8002a1c <HAL_RCC_GetSysClockFreq+0x38>
 80029f4:	6adb      	ldr	r3, [r3, #44]	@ 0x2c
 80029f6:	480b      	ldr	r0, [pc, #44]	@ (8002a24 <HAL_RCC_GetSysClockFreq+0x40>)
 80029f8:	f3c2 4183 	ubfx	r1, r2, #18, #4
 80029fc:	03d2      	lsls	r2, r2, #15
 80029fe:	bf44      	itt	mi
 8002a00:	f003 030f 	andmi.w	r3, r3, #15
 8002a04:	4a08      	ldrmi	r2, [pc, #32]	@ (8002a28 <HAL_RCC_GetSysClockFreq+0x44>)
 8002a06:	5c40      	ldrb	r0, [r0, r1]
 8002a08:	bf49      	itett	mi
 8002a0a:	5cd2      	ldrbmi	r2, [r2, r3]
 8002a0c:	4b07      	ldrpl	r3, [pc, #28]	@ (8002a2c <HAL_RCC_GetSysClockFreq+0x48>)
 8002a0e:	4b08      	ldrmi	r3, [pc, #32]	@ (8002a30 <HAL_RCC_GetSysClockFreq+0x4c>)
 8002a10:	fbb3 f3f2 	udivmi	r3, r3, r2
 8002a14:	4358      	muls	r0, r3
 8002a16:	4770      	bx	lr
 8002a18:	4805      	ldr	r0, [pc, #20]	@ (8002a30 <HAL_RCC_GetSysClockFreq+0x4c>)
 8002a1a:	4770      	bx	lr
 8002a1c:	4805      	ldr	r0, [pc, #20]	@ (8002a34 <HAL_RCC_GetSysClockFreq+0x50>)
 8002a1e:	4770      	bx	lr
 8002a20:	40021000 	.word	0x40021000
 8002a24:	08005ba4 	.word	0x08005ba4
 8002a28:	08005b94 	.word	0x08005b94
 8002a2c:	003d0900 	.word	0x003d0900
 8002a30:	00f42400 	.word	0x00f42400
 8002a34:	007a1200 	.word	0x007a1200

08002a38 <HAL_RCC_ClockConfig>:
 8002a38:	e92d 41f0 	stmdb	sp!, {r4, r5, r6, r7, r8, lr}
 8002a3c:	460d      	mov	r5, r1
 8002a3e:	4604      	mov	r4, r0
 8002a40:	b910      	cbnz	r0, 8002a48 <HAL_RCC_ClockConfig+0x10>
 8002a42:	2001      	movs	r0, #1
 8002a44:	e8bd 81f0 	ldmia.w	sp!, {r4, r5, r6, r7, r8, pc}
 8002a48:	4a4a      	ldr	r2, [pc, #296]	@ (8002b74 <HAL_RCC_ClockConfig+0x13c>)
 8002a4a:	6813      	ldr	r3, [r2, #0]
 8002a4c:	f003 0307 	and.w	r3, r3, #7
 8002a50:	428b      	cmp	r3, r1
 8002a52:	d32e      	bcc.n	8002ab2 <HAL_RCC_ClockConfig+0x7a>
 8002a54:	6822      	ldr	r2, [r4, #0]
 8002a56:	0791      	lsls	r1, r2, #30
 8002a58:	d436      	bmi.n	8002ac8 <HAL_RCC_ClockConfig+0x90>
 8002a5a:	07d2      	lsls	r2, r2, #31
 8002a5c:	d43c      	bmi.n	8002ad8 <HAL_RCC_ClockConfig+0xa0>
 8002a5e:	4a45      	ldr	r2, [pc, #276]	@ (8002b74 <HAL_RCC_ClockConfig+0x13c>)
 8002a60:	6813      	ldr	r3, [r2, #0]
 8002a62:	f003 0307 	and.w	r3, r3, #7
 8002a66:	42ab      	cmp	r3, r5
 8002a68:	d870      	bhi.n	8002b4c <HAL_RCC_ClockConfig+0x114>
 8002a6a:	6822      	ldr	r2, [r4, #0]
 8002a6c:	4d42      	ldr	r5, [pc, #264]	@ (8002b78 <HAL_RCC_ClockConfig+0x140>)
 8002a6e:	f012 0f04 	tst.w	r2, #4
 8002a72:	d177      	bne.n	8002b64 <HAL_RCC_ClockConfig+0x12c>
 8002a74:	0713      	lsls	r3, r2, #28
 8002a76:	d506      	bpl.n	8002a86 <HAL_RCC_ClockConfig+0x4e>
 8002a78:	686b      	ldr	r3, [r5, #4]
 8002a7a:	6922      	ldr	r2, [r4, #16]
 8002a7c:	f423 5360 	bic.w	r3, r3, #14336	@ 0x3800
 8002a80:	ea43 03c2 	orr.w	r3, r3, r2, lsl #3
 8002a84:	606b      	str	r3, [r5, #4]
 8002a86:	f7ff ffad 	bl	80029e4 <HAL_RCC_GetSysClockFreq>
 8002a8a:	686b      	ldr	r3, [r5, #4]
 8002a8c:	22f0      	movs	r2, #240	@ 0xf0
 8002a8e:	fa92 f2a2 	rbit	r2, r2
 8002a92:	fab2 f282 	clz	r2, r2
 8002a96:	f003 03f0 	and.w	r3, r3, #240	@ 0xf0
 8002a9a:	40d3      	lsrs	r3, r2
 8002a9c:	4a37      	ldr	r2, [pc, #220]	@ (8002b7c <HAL_RCC_ClockConfig+0x144>)
 8002a9e:	5cd3      	ldrb	r3, [r2, r3]
 8002aa0:	40d8      	lsrs	r0, r3
 8002aa2:	4b37      	ldr	r3, [pc, #220]	@ (8002b80 <HAL_RCC_ClockConfig+0x148>)
 8002aa4:	6018      	str	r0, [r3, #0]
 8002aa6:	4b37      	ldr	r3, [pc, #220]	@ (8002b84 <HAL_RCC_ClockConfig+0x14c>)
 8002aa8:	6818      	ldr	r0, [r3, #0]
 8002aaa:	f7fe fa6b 	bl	8000f84 <HAL_InitTick>
 8002aae:	2000      	movs	r0, #0
 8002ab0:	e7c8      	b.n	8002a44 <HAL_RCC_ClockConfig+0xc>
 8002ab2:	6813      	ldr	r3, [r2, #0]
 8002ab4:	f023 0307 	bic.w	r3, r3, #7
 8002ab8:	430b      	orrs	r3, r1
 8002aba:	6013      	str	r3, [r2, #0]
 8002abc:	6813      	ldr	r3, [r2, #0]
 8002abe:	f003 0307 	and.w	r3, r3, #7
 8002ac2:	428b      	cmp	r3, r1
 8002ac4:	d1bd      	bne.n	8002a42 <HAL_RCC_ClockConfig+0xa>
 8002ac6:	e7c5      	b.n	8002a54 <HAL_RCC_ClockConfig+0x1c>
 8002ac8:	492b      	ldr	r1, [pc, #172]	@ (8002b78 <HAL_RCC_ClockConfig+0x140>)
 8002aca:	68a0      	ldr	r0, [r4, #8]
 8002acc:	684b      	ldr	r3, [r1, #4]
 8002ace:	f023 03f0 	bic.w	r3, r3, #240	@ 0xf0
 8002ad2:	4303      	orrs	r3, r0
 8002ad4:	604b      	str	r3, [r1, #4]
 8002ad6:	e7c0      	b.n	8002a5a <HAL_RCC_ClockConfig+0x22>
 8002ad8:	6862      	ldr	r2, [r4, #4]
 8002ada:	4e27      	ldr	r6, [pc, #156]	@ (8002b78 <HAL_RCC_ClockConfig+0x140>)
 8002adc:	2a01      	cmp	r2, #1
 8002ade:	d124      	bne.n	8002b2a <HAL_RCC_ClockConfig+0xf2>
 8002ae0:	f44f 3300 	mov.w	r3, #131072	@ 0x20000
 8002ae4:	fa93 f1a3 	rbit	r1, r3
 8002ae8:	6831      	ldr	r1, [r6, #0]
 8002aea:	fa93 f3a3 	rbit	r3, r3
 8002aee:	fab3 f383 	clz	r3, r3
 8002af2:	fa02 f303 	lsl.w	r3, r2, r3
 8002af6:	420b      	tst	r3, r1
 8002af8:	d0a3      	beq.n	8002a42 <HAL_RCC_ClockConfig+0xa>
 8002afa:	6873      	ldr	r3, [r6, #4]
 8002afc:	f023 0303 	bic.w	r3, r3, #3
 8002b00:	4313      	orrs	r3, r2
 8002b02:	6073      	str	r3, [r6, #4]
 8002b04:	f7fe fb16 	bl	8001134 <HAL_GetTick>
 8002b08:	f241 3888 	movw	r8, #5000	@ 0x1388
 8002b0c:	4607      	mov	r7, r0
 8002b0e:	6873      	ldr	r3, [r6, #4]
 8002b10:	6862      	ldr	r2, [r4, #4]
 8002b12:	f003 030c 	and.w	r3, r3, #12
 8002b16:	ebb3 0f82 	cmp.w	r3, r2, lsl #2
 8002b1a:	d0a0      	beq.n	8002a5e <HAL_RCC_ClockConfig+0x26>
 8002b1c:	f7fe fb0a 	bl	8001134 <HAL_GetTick>
 8002b20:	1bc0      	subs	r0, r0, r7
 8002b22:	4540      	cmp	r0, r8
 8002b24:	d9f3      	bls.n	8002b0e <HAL_RCC_ClockConfig+0xd6>
 8002b26:	2003      	movs	r0, #3
 8002b28:	e78c      	b.n	8002a44 <HAL_RCC_ClockConfig+0xc>
 8002b2a:	2a02      	cmp	r2, #2
 8002b2c:	bf0c      	ite	eq
 8002b2e:	f04f 7300 	moveq.w	r3, #33554432	@ 0x2000000
 8002b32:	2302      	movne	r3, #2
 8002b34:	fa93 f1a3 	rbit	r1, r3
 8002b38:	6830      	ldr	r0, [r6, #0]
 8002b3a:	fa93 f3a3 	rbit	r3, r3
 8002b3e:	2101      	movs	r1, #1
 8002b40:	fab3 f383 	clz	r3, r3
 8002b44:	fa01 f303 	lsl.w	r3, r1, r3
 8002b48:	4203      	tst	r3, r0
 8002b4a:	e7d5      	b.n	8002af8 <HAL_RCC_ClockConfig+0xc0>
 8002b4c:	6813      	ldr	r3, [r2, #0]
 8002b4e:	f023 0307 	bic.w	r3, r3, #7
 8002b52:	432b      	orrs	r3, r5
 8002b54:	6013      	str	r3, [r2, #0]
 8002b56:	6813      	ldr	r3, [r2, #0]
 8002b58:	f003 0307 	and.w	r3, r3, #7
 8002b5c:	42ab      	cmp	r3, r5
 8002b5e:	f47f af70 	bne.w	8002a42 <HAL_RCC_ClockConfig+0xa>
 8002b62:	e782      	b.n	8002a6a <HAL_RCC_ClockConfig+0x32>
 8002b64:	686b      	ldr	r3, [r5, #4]
 8002b66:	68e1      	ldr	r1, [r4, #12]
 8002b68:	f423 63e0 	bic.w	r3, r3, #1792	@ 0x700
 8002b6c:	430b      	orrs	r3, r1
 8002b6e:	606b      	str	r3, [r5, #4]
 8002b70:	e780      	b.n	8002a74 <HAL_RCC_ClockConfig+0x3c>
 8002b72:	bf00      	nop
 8002b74:	40022000 	.word	0x40022000
 8002b78:	40021000 	.word	0x40021000
 8002b7c:	08005b84 	.word	0x08005b84
 8002b80:	20000000 	.word	0x20000000
 8002b84:	20000008 	.word	0x20000008

08002b88 <HAL_RCC_GetPCLK2Freq>:
 8002b88:	4b08      	ldr	r3, [pc, #32]	@ (8002bac <HAL_RCC_GetPCLK2Freq+0x24>)
 8002b8a:	f44f 5260 	mov.w	r2, #14336	@ 0x3800
 8002b8e:	685b      	ldr	r3, [r3, #4]
 8002b90:	fa92 f2a2 	rbit	r2, r2
 8002b94:	fab2 f282 	clz	r2, r2
 8002b98:	f403 5360 	and.w	r3, r3, #14336	@ 0x3800
 8002b9c:	40d3      	lsrs	r3, r2
 8002b9e:	4a04      	ldr	r2, [pc, #16]	@ (8002bb0 <HAL_RCC_GetPCLK2Freq+0x28>)
 8002ba0:	5cd3      	ldrb	r3, [r2, r3]
 8002ba2:	4a04      	ldr	r2, [pc, #16]	@ (8002bb4 <HAL_RCC_GetPCLK2Freq+0x2c>)
 8002ba4:	6810      	ldr	r0, [r2, #0]
 8002ba6:	40d8      	lsrs	r0, r3
 8002ba8:	4770      	bx	lr
 8002baa:	bf00      	nop
 8002bac:	40021000 	.word	0x40021000
 8002bb0:	08005b7c 	.word	0x08005b7c
 8002bb4:	20000000 	.word	0x20000000

08002bb8 <HAL_RCC_GetClockConfig>:
 8002bb8:	230f      	movs	r3, #15
 8002bba:	6003      	str	r3, [r0, #0]
 8002bbc:	4b0b      	ldr	r3, [pc, #44]	@ (8002bec <HAL_RCC_GetClockConfig+0x34>)
 8002bbe:	685a      	ldr	r2, [r3, #4]
 8002bc0:	f002 0203 	and.w	r2, r2, #3
 8002bc4:	6042      	str	r2, [r0, #4]
 8002bc6:	685a      	ldr	r2, [r3, #4]
 8002bc8:	f002 02f0 	and.w	r2, r2, #240	@ 0xf0
 8002bcc:	6082      	str	r2, [r0, #8]
 8002bce:	685a      	ldr	r2, [r3, #4]
 8002bd0:	f402 62e0 	and.w	r2, r2, #1792	@ 0x700
 8002bd4:	60c2      	str	r2, [r0, #12]
 8002bd6:	685b      	ldr	r3, [r3, #4]
 8002bd8:	08db      	lsrs	r3, r3, #3
 8002bda:	f403 63e0 	and.w	r3, r3, #1792	@ 0x700
 8002bde:	6103      	str	r3, [r0, #16]
 8002be0:	4b03      	ldr	r3, [pc, #12]	@ (8002bf0 <HAL_RCC_GetClockConfig+0x38>)
 8002be2:	681b      	ldr	r3, [r3, #0]
 8002be4:	f003 0307 	and.w	r3, r3, #7
 8002be8:	600b      	str	r3, [r1, #0]
 8002bea:	4770      	bx	lr
 8002bec:	40021000 	.word	0x40021000
 8002bf0:	40022000 	.word	0x40022000

08002bf4 <HAL_RCCEx_PeriphCLKConfig>:
 8002bf4:	6803      	ldr	r3, [r0, #0]
 8002bf6:	e92d 47f3 	stmdb	sp!, {r0, r1, r4, r5, r6, r7, r8, r9, sl, lr}
 8002bfa:	03dd      	lsls	r5, r3, #15
 8002bfc:	4604      	mov	r4, r0
 8002bfe:	d524      	bpl.n	8002c4a <HAL_RCCEx_PeriphCLKConfig+0x56>
 8002c00:	4d78      	ldr	r5, [pc, #480]	@ (8002de4 <HAL_RCCEx_PeriphCLKConfig+0x1f0>)
 8002c02:	69eb      	ldr	r3, [r5, #28]
 8002c04:	00d8      	lsls	r0, r3, #3
 8002c06:	f100 8091 	bmi.w	8002d2c <HAL_RCCEx_PeriphCLKConfig+0x138>
 8002c0a:	69eb      	ldr	r3, [r5, #28]
 8002c0c:	f043 5380 	orr.w	r3, r3, #268435456	@ 0x10000000
 8002c10:	61eb      	str	r3, [r5, #28]
 8002c12:	69eb      	ldr	r3, [r5, #28]
 8002c14:	f003 5380 	and.w	r3, r3, #268435456	@ 0x10000000
 8002c18:	9301      	str	r3, [sp, #4]
 8002c1a:	9b01      	ldr	r3, [sp, #4]
 8002c1c:	2601      	movs	r6, #1
 8002c1e:	4f72      	ldr	r7, [pc, #456]	@ (8002de8 <HAL_RCCEx_PeriphCLKConfig+0x1f4>)
 8002c20:	683b      	ldr	r3, [r7, #0]
 8002c22:	05d9      	lsls	r1, r3, #23
 8002c24:	f140 8084 	bpl.w	8002d30 <HAL_RCCEx_PeriphCLKConfig+0x13c>
 8002c28:	6a2b      	ldr	r3, [r5, #32]
 8002c2a:	6862      	ldr	r2, [r4, #4]
 8002c2c:	f413 7340 	ands.w	r3, r3, #768	@ 0x300
 8002c30:	f040 8093 	bne.w	8002d5a <HAL_RCCEx_PeriphCLKConfig+0x166>
 8002c34:	6a2b      	ldr	r3, [r5, #32]
 8002c36:	6862      	ldr	r2, [r4, #4]
 8002c38:	f423 7340 	bic.w	r3, r3, #768	@ 0x300
 8002c3c:	4313      	orrs	r3, r2
 8002c3e:	622b      	str	r3, [r5, #32]
 8002c40:	b11e      	cbz	r6, 8002c4a <HAL_RCCEx_PeriphCLKConfig+0x56>
 8002c42:	69eb      	ldr	r3, [r5, #28]
 8002c44:	f023 5380 	bic.w	r3, r3, #268435456	@ 0x10000000
 8002c48:	61eb      	str	r3, [r5, #28]
 8002c4a:	6823      	ldr	r3, [r4, #0]
 8002c4c:	07df      	lsls	r7, r3, #31
 8002c4e:	d506      	bpl.n	8002c5e <HAL_RCCEx_PeriphCLKConfig+0x6a>
 8002c50:	4964      	ldr	r1, [pc, #400]	@ (8002de4 <HAL_RCCEx_PeriphCLKConfig+0x1f0>)
 8002c52:	68a0      	ldr	r0, [r4, #8]
 8002c54:	6b0a      	ldr	r2, [r1, #48]	@ 0x30
 8002c56:	f022 0203 	bic.w	r2, r2, #3
 8002c5a:	4302      	orrs	r2, r0
 8002c5c:	630a      	str	r2, [r1, #48]	@ 0x30
 8002c5e:	079e      	lsls	r6, r3, #30
 8002c60:	d506      	bpl.n	8002c70 <HAL_RCCEx_PeriphCLKConfig+0x7c>
 8002c62:	4960      	ldr	r1, [pc, #384]	@ (8002de4 <HAL_RCCEx_PeriphCLKConfig+0x1f0>)
 8002c64:	68e0      	ldr	r0, [r4, #12]
 8002c66:	6b0a      	ldr	r2, [r1, #48]	@ 0x30
 8002c68:	f422 3240 	bic.w	r2, r2, #196608	@ 0x30000
 8002c6c:	4302      	orrs	r2, r0
 8002c6e:	630a      	str	r2, [r1, #48]	@ 0x30
 8002c70:	075d      	lsls	r5, r3, #29
 8002c72:	d506      	bpl.n	8002c82 <HAL_RCCEx_PeriphCLKConfig+0x8e>
 8002c74:	495b      	ldr	r1, [pc, #364]	@ (8002de4 <HAL_RCCEx_PeriphCLKConfig+0x1f0>)
 8002c76:	6920      	ldr	r0, [r4, #16]
 8002c78:	6b0a      	ldr	r2, [r1, #48]	@ 0x30
 8002c7a:	f422 2240 	bic.w	r2, r2, #786432	@ 0xc0000
 8002c7e:	4302      	orrs	r2, r0
 8002c80:	630a      	str	r2, [r1, #48]	@ 0x30
 8002c82:	0698      	lsls	r0, r3, #26
 8002c84:	d506      	bpl.n	8002c94 <HAL_RCCEx_PeriphCLKConfig+0xa0>
 8002c86:	4957      	ldr	r1, [pc, #348]	@ (8002de4 <HAL_RCCEx_PeriphCLKConfig+0x1f0>)
 8002c88:	69e0      	ldr	r0, [r4, #28]
 8002c8a:	6b0a      	ldr	r2, [r1, #48]	@ 0x30
 8002c8c:	f022 0210 	bic.w	r2, r2, #16
 8002c90:	4302      	orrs	r2, r0
 8002c92:	630a      	str	r2, [r1, #48]	@ 0x30
 8002c94:	0399      	lsls	r1, r3, #14
 8002c96:	d506      	bpl.n	8002ca6 <HAL_RCCEx_PeriphCLKConfig+0xb2>
 8002c98:	4952      	ldr	r1, [pc, #328]	@ (8002de4 <HAL_RCCEx_PeriphCLKConfig+0x1f0>)
 8002c9a:	6ba0      	ldr	r0, [r4, #56]	@ 0x38
 8002c9c:	684a      	ldr	r2, [r1, #4]
 8002c9e:	f422 0280 	bic.w	r2, r2, #4194304	@ 0x400000
 8002ca2:	4302      	orrs	r2, r0
 8002ca4:	604a      	str	r2, [r1, #4]
 8002ca6:	065a      	lsls	r2, r3, #25
 8002ca8:	d506      	bpl.n	8002cb8 <HAL_RCCEx_PeriphCLKConfig+0xc4>
 8002caa:	494e      	ldr	r1, [pc, #312]	@ (8002de4 <HAL_RCCEx_PeriphCLKConfig+0x1f0>)
 8002cac:	6a20      	ldr	r0, [r4, #32]
 8002cae:	6b0a      	ldr	r2, [r1, #48]	@ 0x30
 8002cb0:	f022 0220 	bic.w	r2, r2, #32
 8002cb4:	4302      	orrs	r2, r0
 8002cb6:	630a      	str	r2, [r1, #48]	@ 0x30
 8002cb8:	071f      	lsls	r7, r3, #28
 8002cba:	d506      	bpl.n	8002cca <HAL_RCCEx_PeriphCLKConfig+0xd6>
 8002cbc:	4949      	ldr	r1, [pc, #292]	@ (8002de4 <HAL_RCCEx_PeriphCLKConfig+0x1f0>)
 8002cbe:	6960      	ldr	r0, [r4, #20]
 8002cc0:	6b0a      	ldr	r2, [r1, #48]	@ 0x30
 8002cc2:	f422 1240 	bic.w	r2, r2, #3145728	@ 0x300000
 8002cc6:	4302      	orrs	r2, r0
 8002cc8:	630a      	str	r2, [r1, #48]	@ 0x30
 8002cca:	06de      	lsls	r6, r3, #27
 8002ccc:	d506      	bpl.n	8002cdc <HAL_RCCEx_PeriphCLKConfig+0xe8>
 8002cce:	4945      	ldr	r1, [pc, #276]	@ (8002de4 <HAL_RCCEx_PeriphCLKConfig+0x1f0>)
 8002cd0:	69a0      	ldr	r0, [r4, #24]
 8002cd2:	6b0a      	ldr	r2, [r1, #48]	@ 0x30
 8002cd4:	f422 0240 	bic.w	r2, r2, #12582912	@ 0xc00000
 8002cd8:	4302      	orrs	r2, r0
 8002cda:	630a      	str	r2, [r1, #48]	@ 0x30
 8002cdc:	059d      	lsls	r5, r3, #22
 8002cde:	d506      	bpl.n	8002cee <HAL_RCCEx_PeriphCLKConfig+0xfa>
 8002ce0:	4940      	ldr	r1, [pc, #256]	@ (8002de4 <HAL_RCCEx_PeriphCLKConfig+0x1f0>)
 8002ce2:	6ae0      	ldr	r0, [r4, #44]	@ 0x2c
 8002ce4:	684a      	ldr	r2, [r1, #4]
 8002ce6:	f422 0200 	bic.w	r2, r2, #8388608	@ 0x800000
 8002cea:	4302      	orrs	r2, r0
 8002cec:	604a      	str	r2, [r1, #4]
 8002cee:	0618      	lsls	r0, r3, #24
 8002cf0:	d506      	bpl.n	8002d00 <HAL_RCCEx_PeriphCLKConfig+0x10c>
 8002cf2:	493c      	ldr	r1, [pc, #240]	@ (8002de4 <HAL_RCCEx_PeriphCLKConfig+0x1f0>)
 8002cf4:	6a60      	ldr	r0, [r4, #36]	@ 0x24
 8002cf6:	6aca      	ldr	r2, [r1, #44]	@ 0x2c
 8002cf8:	f422 72f8 	bic.w	r2, r2, #496	@ 0x1f0
 8002cfc:	4302      	orrs	r2, r0
 8002cfe:	62ca      	str	r2, [r1, #44]	@ 0x2c
 8002d00:	05d9      	lsls	r1, r3, #23
 8002d02:	d506      	bpl.n	8002d12 <HAL_RCCEx_PeriphCLKConfig+0x11e>
 8002d04:	4937      	ldr	r1, [pc, #220]	@ (8002de4 <HAL_RCCEx_PeriphCLKConfig+0x1f0>)
 8002d06:	6aa0      	ldr	r0, [r4, #40]	@ 0x28
 8002d08:	6aca      	ldr	r2, [r1, #44]	@ 0x2c
 8002d0a:	f422 5278 	bic.w	r2, r2, #15872	@ 0x3e00
 8002d0e:	4302      	orrs	r2, r0
 8002d10:	62ca      	str	r2, [r1, #44]	@ 0x2c
 8002d12:	04da      	lsls	r2, r3, #19
 8002d14:	d506      	bpl.n	8002d24 <HAL_RCCEx_PeriphCLKConfig+0x130>
 8002d16:	4933      	ldr	r1, [pc, #204]	@ (8002de4 <HAL_RCCEx_PeriphCLKConfig+0x1f0>)
 8002d18:	6b20      	ldr	r0, [r4, #48]	@ 0x30
 8002d1a:	6b0a      	ldr	r2, [r1, #48]	@ 0x30
 8002d1c:	f422 7280 	bic.w	r2, r2, #256	@ 0x100
 8002d20:	4302      	orrs	r2, r0
 8002d22:	630a      	str	r2, [r1, #48]	@ 0x30
 8002d24:	049b      	lsls	r3, r3, #18
 8002d26:	d454      	bmi.n	8002dd2 <HAL_RCCEx_PeriphCLKConfig+0x1de>
 8002d28:	2000      	movs	r0, #0
 8002d2a:	e013      	b.n	8002d54 <HAL_RCCEx_PeriphCLKConfig+0x160>
 8002d2c:	2600      	movs	r6, #0
 8002d2e:	e776      	b.n	8002c1e <HAL_RCCEx_PeriphCLKConfig+0x2a>
 8002d30:	683b      	ldr	r3, [r7, #0]
 8002d32:	f443 7380 	orr.w	r3, r3, #256	@ 0x100
 8002d36:	603b      	str	r3, [r7, #0]
 8002d38:	f7fe f9fc 	bl	8001134 <HAL_GetTick>
 8002d3c:	4680      	mov	r8, r0
 8002d3e:	683b      	ldr	r3, [r7, #0]
 8002d40:	05da      	lsls	r2, r3, #23
 8002d42:	f53f af71 	bmi.w	8002c28 <HAL_RCCEx_PeriphCLKConfig+0x34>
 8002d46:	f7fe f9f5 	bl	8001134 <HAL_GetTick>
 8002d4a:	eba0 0008 	sub.w	r0, r0, r8
 8002d4e:	2864      	cmp	r0, #100	@ 0x64
 8002d50:	d9f5      	bls.n	8002d3e <HAL_RCCEx_PeriphCLKConfig+0x14a>
 8002d52:	2003      	movs	r0, #3
 8002d54:	b002      	add	sp, #8
 8002d56:	e8bd 87f0 	ldmia.w	sp!, {r4, r5, r6, r7, r8, r9, sl, pc}
 8002d5a:	f402 7240 	and.w	r2, r2, #768	@ 0x300
 8002d5e:	429a      	cmp	r2, r3
 8002d60:	f43f af68 	beq.w	8002c34 <HAL_RCCEx_PeriphCLKConfig+0x40>
 8002d64:	6a29      	ldr	r1, [r5, #32]
 8002d66:	f44f 3380 	mov.w	r3, #65536	@ 0x10000
 8002d6a:	f421 7040 	bic.w	r0, r1, #768	@ 0x300
 8002d6e:	fa93 f2a3 	rbit	r2, r3
 8002d72:	f8df c078 	ldr.w	ip, [pc, #120]	@ 8002dec <HAL_RCCEx_PeriphCLKConfig+0x1f8>
 8002d76:	fab2 f282 	clz	r2, r2
 8002d7a:	4462      	add	r2, ip
 8002d7c:	0092      	lsls	r2, r2, #2
 8002d7e:	2701      	movs	r7, #1
 8002d80:	6017      	str	r7, [r2, #0]
 8002d82:	fa93 f3a3 	rbit	r3, r3
 8002d86:	fab3 f383 	clz	r3, r3
 8002d8a:	4463      	add	r3, ip
 8002d8c:	009b      	lsls	r3, r3, #2
 8002d8e:	2200      	movs	r2, #0
 8002d90:	601a      	str	r2, [r3, #0]
 8002d92:	07cb      	lsls	r3, r1, #31
 8002d94:	6228      	str	r0, [r5, #32]
 8002d96:	f57f af4d 	bpl.w	8002c34 <HAL_RCCEx_PeriphCLKConfig+0x40>
 8002d9a:	f7fe f9cb 	bl	8001134 <HAL_GetTick>
 8002d9e:	f04f 0802 	mov.w	r8, #2
 8002da2:	4681      	mov	r9, r0
 8002da4:	f241 3a88 	movw	sl, #5000	@ 0x1388
 8002da8:	fa98 f3a8 	rbit	r3, r8
 8002dac:	fa98 f3a8 	rbit	r3, r8
 8002db0:	6a2a      	ldr	r2, [r5, #32]
 8002db2:	fa98 f3a8 	rbit	r3, r8
 8002db6:	fab3 f383 	clz	r3, r3
 8002dba:	fa07 f303 	lsl.w	r3, r7, r3
 8002dbe:	4213      	tst	r3, r2
 8002dc0:	f47f af38 	bne.w	8002c34 <HAL_RCCEx_PeriphCLKConfig+0x40>
 8002dc4:	f7fe f9b6 	bl	8001134 <HAL_GetTick>
 8002dc8:	eba0 0009 	sub.w	r0, r0, r9
 8002dcc:	4550      	cmp	r0, sl
 8002dce:	d9eb      	bls.n	8002da8 <HAL_RCCEx_PeriphCLKConfig+0x1b4>
 8002dd0:	e7bf      	b.n	8002d52 <HAL_RCCEx_PeriphCLKConfig+0x15e>
 8002dd2:	4a04      	ldr	r2, [pc, #16]	@ (8002de4 <HAL_RCCEx_PeriphCLKConfig+0x1f0>)
 8002dd4:	6b61      	ldr	r1, [r4, #52]	@ 0x34
 8002dd6:	6b13      	ldr	r3, [r2, #48]	@ 0x30
 8002dd8:	f423 7300 	bic.w	r3, r3, #512	@ 0x200
 8002ddc:	430b      	orrs	r3, r1
 8002dde:	6313      	str	r3, [r2, #48]	@ 0x30
 8002de0:	e7a2      	b.n	8002d28 <HAL_RCCEx_PeriphCLKConfig+0x134>
 8002de2:	bf00      	nop
 8002de4:	40021000 	.word	0x40021000
 8002de8:	40007000 	.word	0x40007000
 8002dec:	10908100 	.word	0x10908100

08002df0 <SPI_WaitFlagStateUntilTimeout.constprop.0>:
 8002df0:	b5f7      	push	{r0, r1, r2, r4, r5, r6, r7, lr}
 8002df2:	460e      	mov	r6, r1
 8002df4:	4614      	mov	r4, r2
 8002df6:	4605      	mov	r5, r0
 8002df8:	f7fe f99c 	bl	8001134 <HAL_GetTick>
 8002dfc:	4434      	add	r4, r6
 8002dfe:	1a24      	subs	r4, r4, r0
 8002e00:	f7fe f998 	bl	8001134 <HAL_GetTick>
 8002e04:	4b22      	ldr	r3, [pc, #136]	@ (8002e90 <SPI_WaitFlagStateUntilTimeout.constprop.0+0xa0>)
 8002e06:	681b      	ldr	r3, [r3, #0]
 8002e08:	f3c3 33cb 	ubfx	r3, r3, #15, #12
 8002e0c:	4363      	muls	r3, r4
 8002e0e:	4607      	mov	r7, r0
 8002e10:	9301      	str	r3, [sp, #4]
 8002e12:	682a      	ldr	r2, [r5, #0]
 8002e14:	6890      	ldr	r0, [r2, #8]
 8002e16:	f010 0080 	ands.w	r0, r0, #128	@ 0x80
 8002e1a:	d02d      	beq.n	8002e78 <SPI_WaitFlagStateUntilTimeout.constprop.0+0x88>
 8002e1c:	1c73      	adds	r3, r6, #1
 8002e1e:	d0f9      	beq.n	8002e14 <SPI_WaitFlagStateUntilTimeout.constprop.0+0x24>
 8002e20:	f7fe f988 	bl	8001134 <HAL_GetTick>
 8002e24:	1bc0      	subs	r0, r0, r7
 8002e26:	42a0      	cmp	r0, r4
 8002e28:	d328      	bcc.n	8002e7c <SPI_WaitFlagStateUntilTimeout.constprop.0+0x8c>
 8002e2a:	682b      	ldr	r3, [r5, #0]
 8002e2c:	685a      	ldr	r2, [r3, #4]
 8002e2e:	f022 02e0 	bic.w	r2, r2, #224	@ 0xe0
 8002e32:	605a      	str	r2, [r3, #4]
 8002e34:	686a      	ldr	r2, [r5, #4]
 8002e36:	f5b2 7f82 	cmp.w	r2, #260	@ 0x104
 8002e3a:	d10a      	bne.n	8002e52 <SPI_WaitFlagStateUntilTimeout.constprop.0+0x62>
 8002e3c:	68aa      	ldr	r2, [r5, #8]
 8002e3e:	f5b2 4f00 	cmp.w	r2, #32768	@ 0x8000
 8002e42:	d002      	beq.n	8002e4a <SPI_WaitFlagStateUntilTimeout.constprop.0+0x5a>
 8002e44:	f5b2 6f80 	cmp.w	r2, #1024	@ 0x400
 8002e48:	d103      	bne.n	8002e52 <SPI_WaitFlagStateUntilTimeout.constprop.0+0x62>
 8002e4a:	681a      	ldr	r2, [r3, #0]
 8002e4c:	f022 0240 	bic.w	r2, r2, #64	@ 0x40
 8002e50:	601a      	str	r2, [r3, #0]
 8002e52:	6aaa      	ldr	r2, [r5, #40]	@ 0x28
 8002e54:	f5b2 5f00 	cmp.w	r2, #8192	@ 0x2000
 8002e58:	d107      	bne.n	8002e6a <SPI_WaitFlagStateUntilTimeout.constprop.0+0x7a>
 8002e5a:	681a      	ldr	r2, [r3, #0]
 8002e5c:	f422 5200 	bic.w	r2, r2, #8192	@ 0x2000
 8002e60:	601a      	str	r2, [r3, #0]
 8002e62:	681a      	ldr	r2, [r3, #0]
 8002e64:	f442 5200 	orr.w	r2, r2, #8192	@ 0x2000
 8002e68:	601a      	str	r2, [r3, #0]
 8002e6a:	2301      	movs	r3, #1
 8002e6c:	f885 305d 	strb.w	r3, [r5, #93]	@ 0x5d
 8002e70:	2300      	movs	r3, #0
 8002e72:	f885 305c 	strb.w	r3, [r5, #92]	@ 0x5c
 8002e76:	2003      	movs	r0, #3
 8002e78:	b003      	add	sp, #12
 8002e7a:	bdf0      	pop	{r4, r5, r6, r7, pc}
 8002e7c:	9a01      	ldr	r2, [sp, #4]
 8002e7e:	9b01      	ldr	r3, [sp, #4]
 8002e80:	2a00      	cmp	r2, #0
 8002e82:	f103 33ff 	add.w	r3, r3, #4294967295	@ 0xffffffff
 8002e86:	9301      	str	r3, [sp, #4]
 8002e88:	bf08      	it	eq
 8002e8a:	4614      	moveq	r4, r2
 8002e8c:	e7c1      	b.n	8002e12 <SPI_WaitFlagStateUntilTimeout.constprop.0+0x22>
 8002e8e:	bf00      	nop
 8002e90:	20000000 	.word	0x20000000

08002e94 <SPI_WaitFifoStateUntilTimeout.constprop.0>:
 8002e94:	e92d 43f7 	stmdb	sp!, {r0, r1, r2, r4, r5, r6, r7, r8, r9, lr}
 8002e98:	461c      	mov	r4, r3
 8002e9a:	2300      	movs	r3, #0
 8002e9c:	4617      	mov	r7, r2
 8002e9e:	f88d 3003 	strb.w	r3, [sp, #3]
 8002ea2:	4605      	mov	r5, r0
 8002ea4:	460e      	mov	r6, r1
 8002ea6:	f7fe f945 	bl	8001134 <HAL_GetTick>
 8002eaa:	443c      	add	r4, r7
 8002eac:	1a24      	subs	r4, r4, r0
 8002eae:	f7fe f941 	bl	8001134 <HAL_GetTick>
 8002eb2:	4b29      	ldr	r3, [pc, #164]	@ (8002f58 <SPI_WaitFifoStateUntilTimeout.constprop.0+0xc4>)
 8002eb4:	f8d5 9000 	ldr.w	r9, [r5]
 8002eb8:	681b      	ldr	r3, [r3, #0]
 8002eba:	2223      	movs	r2, #35	@ 0x23
 8002ebc:	4353      	muls	r3, r2
 8002ebe:	0d1b      	lsrs	r3, r3, #20
 8002ec0:	4363      	muls	r3, r4
 8002ec2:	4680      	mov	r8, r0
 8002ec4:	9301      	str	r3, [sp, #4]
 8002ec6:	682a      	ldr	r2, [r5, #0]
 8002ec8:	6890      	ldr	r0, [r2, #8]
 8002eca:	4030      	ands	r0, r6
 8002ecc:	d038      	beq.n	8002f40 <SPI_WaitFifoStateUntilTimeout.constprop.0+0xac>
 8002ece:	f5b6 6fc0 	cmp.w	r6, #1536	@ 0x600
 8002ed2:	bf01      	itttt	eq
 8002ed4:	f899 300c 	ldrbeq.w	r3, [r9, #12]
 8002ed8:	b2db      	uxtbeq	r3, r3
 8002eda:	f88d 3003 	strbeq.w	r3, [sp, #3]
 8002ede:	f89d 3003 	ldrbeq.w	r3, [sp, #3]
 8002ee2:	1c7b      	adds	r3, r7, #1
 8002ee4:	d0f0      	beq.n	8002ec8 <SPI_WaitFifoStateUntilTimeout.constprop.0+0x34>
 8002ee6:	f7fe f925 	bl	8001134 <HAL_GetTick>
 8002eea:	eba0 0008 	sub.w	r0, r0, r8
 8002eee:	42a0      	cmp	r0, r4
 8002ef0:	d329      	bcc.n	8002f46 <SPI_WaitFifoStateUntilTimeout.constprop.0+0xb2>
 8002ef2:	682b      	ldr	r3, [r5, #0]
 8002ef4:	685a      	ldr	r2, [r3, #4]
 8002ef6:	f022 02e0 	bic.w	r2, r2, #224	@ 0xe0
 8002efa:	605a      	str	r2, [r3, #4]
 8002efc:	686a      	ldr	r2, [r5, #4]
 8002efe:	f5b2 7f82 	cmp.w	r2, #260	@ 0x104
 8002f02:	d10a      	bne.n	8002f1a <SPI_WaitFifoStateUntilTimeout.constprop.0+0x86>
 8002f04:	68aa      	ldr	r2, [r5, #8]
 8002f06:	f5b2 4f00 	cmp.w	r2, #32768	@ 0x8000
 8002f0a:	d002      	beq.n	8002f12 <SPI_WaitFifoStateUntilTimeout.constprop.0+0x7e>
 8002f0c:	f5b2 6f80 	cmp.w	r2, #1024	@ 0x400
 8002f10:	d103      	bne.n	8002f1a <SPI_WaitFifoStateUntilTimeout.constprop.0+0x86>
 8002f12:	681a      	ldr	r2, [r3, #0]
 8002f14:	f022 0240 	bic.w	r2, r2, #64	@ 0x40
 8002f18:	601a      	str	r2, [r3, #0]
 8002f1a:	6aaa      	ldr	r2, [r5, #40]	@ 0x28
 8002f1c:	f5b2 5f00 	cmp.w	r2, #8192	@ 0x2000
 8002f20:	d107      	bne.n	8002f32 <SPI_WaitFifoStateUntilTimeout.constprop.0+0x9e>
 8002f22:	681a      	ldr	r2, [r3, #0]
 8002f24:	f422 5200 	bic.w	r2, r2, #8192	@ 0x2000
 8002f28:	601a      	str	r2, [r3, #0]
 8002f2a:	681a      	ldr	r2, [r3, #0]
 8002f2c:	f442 5200 	orr.w	r2, r2, #8192	@ 0x2000
 8002f30:	601a      	str	r2, [r3, #0]
 8002f32:	2301      	movs	r3, #1
 8002f34:	f885 305d 	strb.w	r3, [r5, #93]	@ 0x5d
 8002f38:	2300      	movs	r3, #0
 8002f3a:	f885 305c 	strb.w	r3, [r5, #92]	@ 0x5c
 8002f3e:	2003      	movs	r0, #3
 8002f40:	b003      	add	sp, #12
 8002f42:	e8bd 83f0 	ldmia.w	sp!, {r4, r5, r6, r7, r8, r9, pc}
 8002f46:	9a01      	ldr	r2, [sp, #4]
 8002f48:	9b01      	ldr	r3, [sp, #4]
 8002f4a:	2a00      	cmp	r2, #0
 8002f4c:	f103 33ff 	add.w	r3, r3, #4294967295	@ 0xffffffff
 8002f50:	9301      	str	r3, [sp, #4]
 8002f52:	bf08      	it	eq
 8002f54:	4614      	moveq	r4, r2
 8002f56:	e7b6      	b.n	8002ec6 <SPI_WaitFifoStateUntilTimeout.constprop.0+0x32>
 8002f58:	20000000 	.word	0x20000000

08002f5c <SPI_EndRxTxTransaction>:
 8002f5c:	b570      	push	{r4, r5, r6, lr}
 8002f5e:	4613      	mov	r3, r2
 8002f60:	460d      	mov	r5, r1
 8002f62:	4616      	mov	r6, r2
 8002f64:	460a      	mov	r2, r1
 8002f66:	f44f 51c0 	mov.w	r1, #6144	@ 0x1800
 8002f6a:	4604      	mov	r4, r0
 8002f6c:	f7ff ff92 	bl	8002e94 <SPI_WaitFifoStateUntilTimeout.constprop.0>
 8002f70:	b128      	cbz	r0, 8002f7e <SPI_EndRxTxTransaction+0x22>
 8002f72:	6e23      	ldr	r3, [r4, #96]	@ 0x60
 8002f74:	f043 0320 	orr.w	r3, r3, #32
 8002f78:	6623      	str	r3, [r4, #96]	@ 0x60
 8002f7a:	2003      	movs	r0, #3
 8002f7c:	bd70      	pop	{r4, r5, r6, pc}
 8002f7e:	4632      	mov	r2, r6
 8002f80:	4629      	mov	r1, r5
 8002f82:	4620      	mov	r0, r4
 8002f84:	f7ff ff34 	bl	8002df0 <SPI_WaitFlagStateUntilTimeout.constprop.0>
 8002f88:	2800      	cmp	r0, #0
 8002f8a:	d1f2      	bne.n	8002f72 <SPI_EndRxTxTransaction+0x16>
 8002f8c:	4633      	mov	r3, r6
 8002f8e:	462a      	mov	r2, r5
 8002f90:	f44f 61c0 	mov.w	r1, #1536	@ 0x600
 8002f94:	4620      	mov	r0, r4
 8002f96:	f7ff ff7d 	bl	8002e94 <SPI_WaitFifoStateUntilTimeout.constprop.0>
 8002f9a:	2800      	cmp	r0, #0
 8002f9c:	d0ee      	beq.n	8002f7c <SPI_EndRxTxTransaction+0x20>
 8002f9e:	e7e8      	b.n	8002f72 <SPI_EndRxTxTransaction+0x16>

08002fa0 <HAL_SPI_Init>:
 8002fa0:	b570      	push	{r4, r5, r6, lr}
 8002fa2:	4604      	mov	r4, r0
 8002fa4:	2800      	cmp	r0, #0
 8002fa6:	d067      	beq.n	8003078 <HAL_SPI_Init+0xd8>
 8002fa8:	6a43      	ldr	r3, [r0, #36]	@ 0x24
 8002faa:	2b00      	cmp	r3, #0
 8002fac:	d15d      	bne.n	800306a <HAL_SPI_Init+0xca>
 8002fae:	6842      	ldr	r2, [r0, #4]
 8002fb0:	f5b2 7f82 	cmp.w	r2, #260	@ 0x104
 8002fb4:	d000      	beq.n	8002fb8 <HAL_SPI_Init+0x18>
 8002fb6:	61c3      	str	r3, [r0, #28]
 8002fb8:	2300      	movs	r3, #0
 8002fba:	62a3      	str	r3, [r4, #40]	@ 0x28
 8002fbc:	f894 305d 	ldrb.w	r3, [r4, #93]	@ 0x5d
 8002fc0:	f003 02ff 	and.w	r2, r3, #255	@ 0xff
 8002fc4:	b923      	cbnz	r3, 8002fd0 <HAL_SPI_Init+0x30>
 8002fc6:	f884 205c 	strb.w	r2, [r4, #92]	@ 0x5c
 8002fca:	4620      	mov	r0, r4
 8002fcc:	f7fd ff24 	bl	8000e18 <HAL_SPI_MspInit>
 8002fd0:	6822      	ldr	r2, [r4, #0]
 8002fd2:	68e0      	ldr	r0, [r4, #12]
 8002fd4:	2302      	movs	r3, #2
 8002fd6:	f884 305d 	strb.w	r3, [r4, #93]	@ 0x5d
 8002fda:	6813      	ldr	r3, [r2, #0]
 8002fdc:	f5b0 6fe0 	cmp.w	r0, #1792	@ 0x700
 8002fe0:	f023 0340 	bic.w	r3, r3, #64	@ 0x40
 8002fe4:	6013      	str	r3, [r2, #0]
 8002fe6:	f04f 0300 	mov.w	r3, #0
 8002fea:	d942      	bls.n	8003072 <HAL_SPI_Init+0xd2>
 8002fec:	461d      	mov	r5, r3
 8002fee:	f5b0 6f70 	cmp.w	r0, #3840	@ 0xf00
 8002ff2:	bf18      	it	ne
 8002ff4:	62a3      	strne	r3, [r4, #40]	@ 0x28
 8002ff6:	68a6      	ldr	r6, [r4, #8]
 8002ff8:	6863      	ldr	r3, [r4, #4]
 8002ffa:	69a1      	ldr	r1, [r4, #24]
 8002ffc:	f406 4604 	and.w	r6, r6, #33792	@ 0x8400
 8003000:	f403 7382 	and.w	r3, r3, #260	@ 0x104
 8003004:	4333      	orrs	r3, r6
 8003006:	6926      	ldr	r6, [r4, #16]
 8003008:	f006 0602 	and.w	r6, r6, #2
 800300c:	4333      	orrs	r3, r6
 800300e:	6966      	ldr	r6, [r4, #20]
 8003010:	f006 0601 	and.w	r6, r6, #1
 8003014:	4333      	orrs	r3, r6
 8003016:	f401 7600 	and.w	r6, r1, #512	@ 0x200
 800301a:	4333      	orrs	r3, r6
 800301c:	69e6      	ldr	r6, [r4, #28]
 800301e:	f006 0638 	and.w	r6, r6, #56	@ 0x38
 8003022:	4333      	orrs	r3, r6
 8003024:	6a26      	ldr	r6, [r4, #32]
 8003026:	f006 0680 	and.w	r6, r6, #128	@ 0x80
 800302a:	4333      	orrs	r3, r6
 800302c:	6aa6      	ldr	r6, [r4, #40]	@ 0x28
 800302e:	f406 5600 	and.w	r6, r6, #8192	@ 0x2000
 8003032:	4333      	orrs	r3, r6
 8003034:	6013      	str	r3, [r2, #0]
 8003036:	6b66      	ldr	r6, [r4, #52]	@ 0x34
 8003038:	6a63      	ldr	r3, [r4, #36]	@ 0x24
 800303a:	f006 0608 	and.w	r6, r6, #8
 800303e:	f003 0310 	and.w	r3, r3, #16
 8003042:	f400 6070 	and.w	r0, r0, #3840	@ 0xf00
 8003046:	4333      	orrs	r3, r6
 8003048:	0c09      	lsrs	r1, r1, #16
 800304a:	4303      	orrs	r3, r0
 800304c:	f001 0104 	and.w	r1, r1, #4
 8003050:	430b      	orrs	r3, r1
 8003052:	432b      	orrs	r3, r5
 8003054:	6053      	str	r3, [r2, #4]
 8003056:	69d3      	ldr	r3, [r2, #28]
 8003058:	f423 6300 	bic.w	r3, r3, #2048	@ 0x800
 800305c:	61d3      	str	r3, [r2, #28]
 800305e:	2000      	movs	r0, #0
 8003060:	2301      	movs	r3, #1
 8003062:	6620      	str	r0, [r4, #96]	@ 0x60
 8003064:	f884 305d 	strb.w	r3, [r4, #93]	@ 0x5d
 8003068:	bd70      	pop	{r4, r5, r6, pc}
 800306a:	2300      	movs	r3, #0
 800306c:	e9c0 3304 	strd	r3, r3, [r0, #16]
 8003070:	e7a2      	b.n	8002fb8 <HAL_SPI_Init+0x18>
 8003072:	f44f 5580 	mov.w	r5, #4096	@ 0x1000
 8003076:	e7bc      	b.n	8002ff2 <HAL_SPI_Init+0x52>
 8003078:	2001      	movs	r0, #1
 800307a:	e7f5      	b.n	8003068 <HAL_SPI_Init+0xc8>

0800307c <HAL_SPI_Transmit>:
 800307c:	e92d 47f3 	stmdb	sp!, {r0, r1, r4, r5, r6, r7, r8, r9, sl, lr}
 8003080:	461f      	mov	r7, r3
 8003082:	f890 305c 	ldrb.w	r3, [r0, #92]	@ 0x5c
 8003086:	2b01      	cmp	r3, #1
 8003088:	4604      	mov	r4, r0
 800308a:	460d      	mov	r5, r1
 800308c:	4690      	mov	r8, r2
 800308e:	f000 80bc 	beq.w	800320a <HAL_SPI_Transmit+0x18e>
 8003092:	2301      	movs	r3, #1
 8003094:	f880 305c 	strb.w	r3, [r0, #92]	@ 0x5c
 8003098:	f7fe f84c 	bl	8001134 <HAL_GetTick>
 800309c:	f894 305d 	ldrb.w	r3, [r4, #93]	@ 0x5d
 80030a0:	2b01      	cmp	r3, #1
 80030a2:	4682      	mov	sl, r0
 80030a4:	fa5f f983 	uxtb.w	r9, r3
 80030a8:	f040 80ac 	bne.w	8003204 <HAL_SPI_Transmit+0x188>
 80030ac:	2d00      	cmp	r5, #0
 80030ae:	d069      	beq.n	8003184 <HAL_SPI_Transmit+0x108>
 80030b0:	f1b8 0f00 	cmp.w	r8, #0
 80030b4:	d066      	beq.n	8003184 <HAL_SPI_Transmit+0x108>
 80030b6:	2303      	movs	r3, #3
 80030b8:	f884 305d 	strb.w	r3, [r4, #93]	@ 0x5d
 80030bc:	2300      	movs	r3, #0
 80030be:	6623      	str	r3, [r4, #96]	@ 0x60
 80030c0:	e9c4 3313 	strd	r3, r3, [r4, #76]	@ 0x4c
 80030c4:	f8a4 803e 	strh.w	r8, [r4, #62]	@ 0x3e
 80030c8:	6423      	str	r3, [r4, #64]	@ 0x40
 80030ca:	f8a4 3044 	strh.w	r3, [r4, #68]	@ 0x44
 80030ce:	f8a4 3046 	strh.w	r3, [r4, #70]	@ 0x46
 80030d2:	68a3      	ldr	r3, [r4, #8]
 80030d4:	6826      	ldr	r6, [r4, #0]
 80030d6:	63a5      	str	r5, [r4, #56]	@ 0x38
 80030d8:	f5b3 4f00 	cmp.w	r3, #32768	@ 0x8000
 80030dc:	f8a4 803c 	strh.w	r8, [r4, #60]	@ 0x3c
 80030e0:	d107      	bne.n	80030f2 <HAL_SPI_Transmit+0x76>
 80030e2:	6833      	ldr	r3, [r6, #0]
 80030e4:	f023 0340 	bic.w	r3, r3, #64	@ 0x40
 80030e8:	6033      	str	r3, [r6, #0]
 80030ea:	6833      	ldr	r3, [r6, #0]
 80030ec:	f443 4380 	orr.w	r3, r3, #16384	@ 0x4000
 80030f0:	6033      	str	r3, [r6, #0]
 80030f2:	6833      	ldr	r3, [r6, #0]
 80030f4:	6862      	ldr	r2, [r4, #4]
 80030f6:	065b      	lsls	r3, r3, #25
 80030f8:	bf5e      	ittt	pl
 80030fa:	6833      	ldrpl	r3, [r6, #0]
 80030fc:	f043 0340 	orrpl.w	r3, r3, #64	@ 0x40
 8003100:	6033      	strpl	r3, [r6, #0]
 8003102:	68e3      	ldr	r3, [r4, #12]
 8003104:	f5b3 6fe0 	cmp.w	r3, #1792	@ 0x700
 8003108:	d943      	bls.n	8003192 <HAL_SPI_Transmit+0x116>
 800310a:	b112      	cbz	r2, 8003112 <HAL_SPI_Transmit+0x96>
 800310c:	f1b8 0f01 	cmp.w	r8, #1
 8003110:	d107      	bne.n	8003122 <HAL_SPI_Transmit+0xa6>
 8003112:	f835 3b02 	ldrh.w	r3, [r5], #2
 8003116:	60f3      	str	r3, [r6, #12]
 8003118:	63a5      	str	r5, [r4, #56]	@ 0x38
 800311a:	8fe3      	ldrh	r3, [r4, #62]	@ 0x3e
 800311c:	3b01      	subs	r3, #1
 800311e:	b29b      	uxth	r3, r3
 8003120:	87e3      	strh	r3, [r4, #62]	@ 0x3e
 8003122:	8fe3      	ldrh	r3, [r4, #62]	@ 0x3e
 8003124:	b29b      	uxth	r3, r3
 8003126:	b9b3      	cbnz	r3, 8003156 <HAL_SPI_Transmit+0xda>
 8003128:	4652      	mov	r2, sl
 800312a:	4639      	mov	r1, r7
 800312c:	4620      	mov	r0, r4
 800312e:	f7ff ff15 	bl	8002f5c <SPI_EndRxTxTransaction>
 8003132:	2800      	cmp	r0, #0
 8003134:	d163      	bne.n	80031fe <HAL_SPI_Transmit+0x182>
 8003136:	68a3      	ldr	r3, [r4, #8]
 8003138:	b933      	cbnz	r3, 8003148 <HAL_SPI_Transmit+0xcc>
 800313a:	9301      	str	r3, [sp, #4]
 800313c:	6823      	ldr	r3, [r4, #0]
 800313e:	68da      	ldr	r2, [r3, #12]
 8003140:	9201      	str	r2, [sp, #4]
 8003142:	689b      	ldr	r3, [r3, #8]
 8003144:	9301      	str	r3, [sp, #4]
 8003146:	9b01      	ldr	r3, [sp, #4]
 8003148:	6e23      	ldr	r3, [r4, #96]	@ 0x60
 800314a:	b9db      	cbnz	r3, 8003184 <HAL_SPI_Transmit+0x108>
 800314c:	2201      	movs	r2, #1
 800314e:	f884 205d 	strb.w	r2, [r4, #93]	@ 0x5d
 8003152:	4699      	mov	r9, r3
 8003154:	e016      	b.n	8003184 <HAL_SPI_Transmit+0x108>
 8003156:	6822      	ldr	r2, [r4, #0]
 8003158:	6893      	ldr	r3, [r2, #8]
 800315a:	079d      	lsls	r5, r3, #30
 800315c:	d505      	bpl.n	800316a <HAL_SPI_Transmit+0xee>
 800315e:	6ba3      	ldr	r3, [r4, #56]	@ 0x38
 8003160:	f833 1b02 	ldrh.w	r1, [r3], #2
 8003164:	60d1      	str	r1, [r2, #12]
 8003166:	63a3      	str	r3, [r4, #56]	@ 0x38
 8003168:	e7d7      	b.n	800311a <HAL_SPI_Transmit+0x9e>
 800316a:	f7fd ffe3 	bl	8001134 <HAL_GetTick>
 800316e:	eba0 000a 	sub.w	r0, r0, sl
 8003172:	42b8      	cmp	r0, r7
 8003174:	d3d5      	bcc.n	8003122 <HAL_SPI_Transmit+0xa6>
 8003176:	1c78      	adds	r0, r7, #1
 8003178:	d0d3      	beq.n	8003122 <HAL_SPI_Transmit+0xa6>
 800317a:	2301      	movs	r3, #1
 800317c:	f884 305d 	strb.w	r3, [r4, #93]	@ 0x5d
 8003180:	f04f 0903 	mov.w	r9, #3
 8003184:	2300      	movs	r3, #0
 8003186:	f884 305c 	strb.w	r3, [r4, #92]	@ 0x5c
 800318a:	4648      	mov	r0, r9
 800318c:	b002      	add	sp, #8
 800318e:	e8bd 87f0 	ldmia.w	sp!, {r4, r5, r6, r7, r8, r9, sl, pc}
 8003192:	b112      	cbz	r2, 800319a <HAL_SPI_Transmit+0x11e>
 8003194:	f1b8 0f01 	cmp.w	r8, #1
 8003198:	d113      	bne.n	80031c2 <HAL_SPI_Transmit+0x146>
 800319a:	8fe3      	ldrh	r3, [r4, #62]	@ 0x3e
 800319c:	b29b      	uxth	r3, r3
 800319e:	2b01      	cmp	r3, #1
 80031a0:	d906      	bls.n	80031b0 <HAL_SPI_Transmit+0x134>
 80031a2:	f835 3b02 	ldrh.w	r3, [r5], #2
 80031a6:	60f3      	str	r3, [r6, #12]
 80031a8:	63a5      	str	r5, [r4, #56]	@ 0x38
 80031aa:	8fe3      	ldrh	r3, [r4, #62]	@ 0x3e
 80031ac:	3b02      	subs	r3, #2
 80031ae:	e006      	b.n	80031be <HAL_SPI_Transmit+0x142>
 80031b0:	782b      	ldrb	r3, [r5, #0]
 80031b2:	7333      	strb	r3, [r6, #12]
 80031b4:	6ba3      	ldr	r3, [r4, #56]	@ 0x38
 80031b6:	3301      	adds	r3, #1
 80031b8:	63a3      	str	r3, [r4, #56]	@ 0x38
 80031ba:	8fe3      	ldrh	r3, [r4, #62]	@ 0x3e
 80031bc:	3b01      	subs	r3, #1
 80031be:	b29b      	uxth	r3, r3
 80031c0:	87e3      	strh	r3, [r4, #62]	@ 0x3e
 80031c2:	8fe3      	ldrh	r3, [r4, #62]	@ 0x3e
 80031c4:	b29b      	uxth	r3, r3
 80031c6:	2b00      	cmp	r3, #0
 80031c8:	d0ae      	beq.n	8003128 <HAL_SPI_Transmit+0xac>
 80031ca:	6822      	ldr	r2, [r4, #0]
 80031cc:	6893      	ldr	r3, [r2, #8]
 80031ce:	0799      	lsls	r1, r3, #30
 80031d0:	d50c      	bpl.n	80031ec <HAL_SPI_Transmit+0x170>
 80031d2:	8fe1      	ldrh	r1, [r4, #62]	@ 0x3e
 80031d4:	6ba3      	ldr	r3, [r4, #56]	@ 0x38
 80031d6:	b289      	uxth	r1, r1
 80031d8:	2901      	cmp	r1, #1
 80031da:	d904      	bls.n	80031e6 <HAL_SPI_Transmit+0x16a>
 80031dc:	f833 1b02 	ldrh.w	r1, [r3], #2
 80031e0:	60d1      	str	r1, [r2, #12]
 80031e2:	63a3      	str	r3, [r4, #56]	@ 0x38
 80031e4:	e7e1      	b.n	80031aa <HAL_SPI_Transmit+0x12e>
 80031e6:	781b      	ldrb	r3, [r3, #0]
 80031e8:	7313      	strb	r3, [r2, #12]
 80031ea:	e7e3      	b.n	80031b4 <HAL_SPI_Transmit+0x138>
 80031ec:	f7fd ffa2 	bl	8001134 <HAL_GetTick>
 80031f0:	eba0 000a 	sub.w	r0, r0, sl
 80031f4:	42b8      	cmp	r0, r7
 80031f6:	d3e4      	bcc.n	80031c2 <HAL_SPI_Transmit+0x146>
 80031f8:	1c7b      	adds	r3, r7, #1
 80031fa:	d0e2      	beq.n	80031c2 <HAL_SPI_Transmit+0x146>
 80031fc:	e7bd      	b.n	800317a <HAL_SPI_Transmit+0xfe>
 80031fe:	2320      	movs	r3, #32
 8003200:	6623      	str	r3, [r4, #96]	@ 0x60
 8003202:	e798      	b.n	8003136 <HAL_SPI_Transmit+0xba>
 8003204:	f04f 0902 	mov.w	r9, #2
 8003208:	e7bc      	b.n	8003184 <HAL_SPI_Transmit+0x108>
 800320a:	f04f 0902 	mov.w	r9, #2
 800320e:	e7bc      	b.n	800318a <HAL_SPI_Transmit+0x10e>

08003210 <TIM_OC1_SetConfig>:
 8003210:	6a03      	ldr	r3, [r0, #32]
 8003212:	6a02      	ldr	r2, [r0, #32]
 8003214:	f022 0201 	bic.w	r2, r2, #1
 8003218:	b570      	push	{r4, r5, r6, lr}
 800321a:	6202      	str	r2, [r0, #32]
 800321c:	6844      	ldr	r4, [r0, #4]
 800321e:	6982      	ldr	r2, [r0, #24]
 8003220:	680d      	ldr	r5, [r1, #0]
 8003222:	f422 3280 	bic.w	r2, r2, #65536	@ 0x10000
 8003226:	f022 0273 	bic.w	r2, r2, #115	@ 0x73
 800322a:	432a      	orrs	r2, r5
 800322c:	688d      	ldr	r5, [r1, #8]
 800322e:	f023 0302 	bic.w	r3, r3, #2
 8003232:	432b      	orrs	r3, r5
 8003234:	4d12      	ldr	r5, [pc, #72]	@ (8003280 <TIM_OC1_SetConfig+0x70>)
 8003236:	42a8      	cmp	r0, r5
 8003238:	d00f      	beq.n	800325a <TIM_OC1_SetConfig+0x4a>
 800323a:	f505 6500 	add.w	r5, r5, #2048	@ 0x800
 800323e:	42a8      	cmp	r0, r5
 8003240:	d00b      	beq.n	800325a <TIM_OC1_SetConfig+0x4a>
 8003242:	f505 6540 	add.w	r5, r5, #3072	@ 0xc00
 8003246:	42a8      	cmp	r0, r5
 8003248:	d007      	beq.n	800325a <TIM_OC1_SetConfig+0x4a>
 800324a:	f505 6580 	add.w	r5, r5, #1024	@ 0x400
 800324e:	42a8      	cmp	r0, r5
 8003250:	d003      	beq.n	800325a <TIM_OC1_SetConfig+0x4a>
 8003252:	f505 6580 	add.w	r5, r5, #1024	@ 0x400
 8003256:	42a8      	cmp	r0, r5
 8003258:	d10b      	bne.n	8003272 <TIM_OC1_SetConfig+0x62>
 800325a:	68cd      	ldr	r5, [r1, #12]
 800325c:	f023 0308 	bic.w	r3, r3, #8
 8003260:	432b      	orrs	r3, r5
 8003262:	f424 7540 	bic.w	r5, r4, #768	@ 0x300
 8003266:	e9d1 4605 	ldrd	r4, r6, [r1, #20]
 800326a:	4334      	orrs	r4, r6
 800326c:	f023 0304 	bic.w	r3, r3, #4
 8003270:	432c      	orrs	r4, r5
 8003272:	6044      	str	r4, [r0, #4]
 8003274:	6182      	str	r2, [r0, #24]
 8003276:	684a      	ldr	r2, [r1, #4]
 8003278:	6342      	str	r2, [r0, #52]	@ 0x34
 800327a:	6203      	str	r3, [r0, #32]
 800327c:	bd70      	pop	{r4, r5, r6, pc}
 800327e:	bf00      	nop
 8003280:	40012c00 	.word	0x40012c00

08003284 <TIM_OC3_SetConfig>:
 8003284:	6a03      	ldr	r3, [r0, #32]
 8003286:	6a02      	ldr	r2, [r0, #32]
 8003288:	f422 7280 	bic.w	r2, r2, #256	@ 0x100
 800328c:	b570      	push	{r4, r5, r6, lr}
 800328e:	6202      	str	r2, [r0, #32]
 8003290:	6844      	ldr	r4, [r0, #4]
 8003292:	69c2      	ldr	r2, [r0, #28]
 8003294:	680d      	ldr	r5, [r1, #0]
 8003296:	f422 3280 	bic.w	r2, r2, #65536	@ 0x10000
 800329a:	f022 0273 	bic.w	r2, r2, #115	@ 0x73
 800329e:	432a      	orrs	r2, r5
 80032a0:	688d      	ldr	r5, [r1, #8]
 80032a2:	f423 7300 	bic.w	r3, r3, #512	@ 0x200
 80032a6:	ea43 2305 	orr.w	r3, r3, r5, lsl #8
 80032aa:	4d14      	ldr	r5, [pc, #80]	@ (80032fc <TIM_OC3_SetConfig+0x78>)
 80032ac:	42a8      	cmp	r0, r5
 80032ae:	d00f      	beq.n	80032d0 <TIM_OC3_SetConfig+0x4c>
 80032b0:	f505 6500 	add.w	r5, r5, #2048	@ 0x800
 80032b4:	42a8      	cmp	r0, r5
 80032b6:	d00b      	beq.n	80032d0 <TIM_OC3_SetConfig+0x4c>
 80032b8:	f505 6540 	add.w	r5, r5, #3072	@ 0xc00
 80032bc:	42a8      	cmp	r0, r5
 80032be:	d10f      	bne.n	80032e0 <TIM_OC3_SetConfig+0x5c>
 80032c0:	f424 5540 	bic.w	r5, r4, #12288	@ 0x3000
 80032c4:	e9d1 4605 	ldrd	r4, r6, [r1, #20]
 80032c8:	4334      	orrs	r4, r6
 80032ca:	ea45 1404 	orr.w	r4, r5, r4, lsl #4
 80032ce:	e00e      	b.n	80032ee <TIM_OC3_SetConfig+0x6a>
 80032d0:	68cd      	ldr	r5, [r1, #12]
 80032d2:	f423 6300 	bic.w	r3, r3, #2048	@ 0x800
 80032d6:	ea43 2305 	orr.w	r3, r3, r5, lsl #8
 80032da:	f423 6380 	bic.w	r3, r3, #1024	@ 0x400
 80032de:	e7ef      	b.n	80032c0 <TIM_OC3_SetConfig+0x3c>
 80032e0:	4d07      	ldr	r5, [pc, #28]	@ (8003300 <TIM_OC3_SetConfig+0x7c>)
 80032e2:	42a8      	cmp	r0, r5
 80032e4:	d0ec      	beq.n	80032c0 <TIM_OC3_SetConfig+0x3c>
 80032e6:	f505 6580 	add.w	r5, r5, #1024	@ 0x400
 80032ea:	42a8      	cmp	r0, r5
 80032ec:	d0e8      	beq.n	80032c0 <TIM_OC3_SetConfig+0x3c>
 80032ee:	6044      	str	r4, [r0, #4]
 80032f0:	61c2      	str	r2, [r0, #28]
 80032f2:	684a      	ldr	r2, [r1, #4]
 80032f4:	63c2      	str	r2, [r0, #60]	@ 0x3c
 80032f6:	6203      	str	r3, [r0, #32]
 80032f8:	bd70      	pop	{r4, r5, r6, pc}
 80032fa:	bf00      	nop
 80032fc:	40012c00 	.word	0x40012c00
 8003300:	40014400 	.word	0x40014400

08003304 <TIM_OC4_SetConfig>:
 8003304:	6a03      	ldr	r3, [r0, #32]
 8003306:	6a02      	ldr	r2, [r0, #32]
 8003308:	f422 5280 	bic.w	r2, r2, #4096	@ 0x1000
 800330c:	b530      	push	{r4, r5, lr}
 800330e:	6202      	str	r2, [r0, #32]
 8003310:	6844      	ldr	r4, [r0, #4]
 8003312:	69c2      	ldr	r2, [r0, #28]
 8003314:	680d      	ldr	r5, [r1, #0]
 8003316:	f022 7280 	bic.w	r2, r2, #16777216	@ 0x1000000
 800331a:	f422 42e6 	bic.w	r2, r2, #29440	@ 0x7300
 800331e:	ea42 2205 	orr.w	r2, r2, r5, lsl #8
 8003322:	688d      	ldr	r5, [r1, #8]
 8003324:	f423 5300 	bic.w	r3, r3, #8192	@ 0x2000
 8003328:	ea43 3305 	orr.w	r3, r3, r5, lsl #12
 800332c:	4d0e      	ldr	r5, [pc, #56]	@ (8003368 <TIM_OC4_SetConfig+0x64>)
 800332e:	42a8      	cmp	r0, r5
 8003330:	d00f      	beq.n	8003352 <TIM_OC4_SetConfig+0x4e>
 8003332:	f505 6500 	add.w	r5, r5, #2048	@ 0x800
 8003336:	42a8      	cmp	r0, r5
 8003338:	d00b      	beq.n	8003352 <TIM_OC4_SetConfig+0x4e>
 800333a:	f505 6540 	add.w	r5, r5, #3072	@ 0xc00
 800333e:	42a8      	cmp	r0, r5
 8003340:	d007      	beq.n	8003352 <TIM_OC4_SetConfig+0x4e>
 8003342:	f505 6580 	add.w	r5, r5, #1024	@ 0x400
 8003346:	42a8      	cmp	r0, r5
 8003348:	d003      	beq.n	8003352 <TIM_OC4_SetConfig+0x4e>
 800334a:	f505 6580 	add.w	r5, r5, #1024	@ 0x400
 800334e:	42a8      	cmp	r0, r5
 8003350:	d104      	bne.n	800335c <TIM_OC4_SetConfig+0x58>
 8003352:	694d      	ldr	r5, [r1, #20]
 8003354:	f424 4480 	bic.w	r4, r4, #16384	@ 0x4000
 8003358:	ea44 1485 	orr.w	r4, r4, r5, lsl #6
 800335c:	6044      	str	r4, [r0, #4]
 800335e:	61c2      	str	r2, [r0, #28]
 8003360:	684a      	ldr	r2, [r1, #4]
 8003362:	6402      	str	r2, [r0, #64]	@ 0x40
 8003364:	6203      	str	r3, [r0, #32]
 8003366:	bd30      	pop	{r4, r5, pc}
 8003368:	40012c00 	.word	0x40012c00

0800336c <TIM_OC5_SetConfig>:
 800336c:	6a03      	ldr	r3, [r0, #32]
 800336e:	6a02      	ldr	r2, [r0, #32]
 8003370:	f422 3280 	bic.w	r2, r2, #65536	@ 0x10000
 8003374:	b530      	push	{r4, r5, lr}
 8003376:	6202      	str	r2, [r0, #32]
 8003378:	6844      	ldr	r4, [r0, #4]
 800337a:	6d42      	ldr	r2, [r0, #84]	@ 0x54
 800337c:	680d      	ldr	r5, [r1, #0]
 800337e:	f422 3280 	bic.w	r2, r2, #65536	@ 0x10000
 8003382:	f022 0270 	bic.w	r2, r2, #112	@ 0x70
 8003386:	432a      	orrs	r2, r5
 8003388:	688d      	ldr	r5, [r1, #8]
 800338a:	f423 3300 	bic.w	r3, r3, #131072	@ 0x20000
 800338e:	ea43 4305 	orr.w	r3, r3, r5, lsl #16
 8003392:	4d0f      	ldr	r5, [pc, #60]	@ (80033d0 <TIM_OC5_SetConfig+0x64>)
 8003394:	42a8      	cmp	r0, r5
 8003396:	d00f      	beq.n	80033b8 <TIM_OC5_SetConfig+0x4c>
 8003398:	f505 6500 	add.w	r5, r5, #2048	@ 0x800
 800339c:	42a8      	cmp	r0, r5
 800339e:	d00b      	beq.n	80033b8 <TIM_OC5_SetConfig+0x4c>
 80033a0:	f505 6540 	add.w	r5, r5, #3072	@ 0xc00
 80033a4:	42a8      	cmp	r0, r5
 80033a6:	d007      	beq.n	80033b8 <TIM_OC5_SetConfig+0x4c>
 80033a8:	f505 6580 	add.w	r5, r5, #1024	@ 0x400
 80033ac:	42a8      	cmp	r0, r5
 80033ae:	d003      	beq.n	80033b8 <TIM_OC5_SetConfig+0x4c>
 80033b0:	f505 6580 	add.w	r5, r5, #1024	@ 0x400
 80033b4:	42a8      	cmp	r0, r5
 80033b6:	d104      	bne.n	80033c2 <TIM_OC5_SetConfig+0x56>
 80033b8:	694d      	ldr	r5, [r1, #20]
 80033ba:	f424 3480 	bic.w	r4, r4, #65536	@ 0x10000
 80033be:	ea44 2405 	orr.w	r4, r4, r5, lsl #8
 80033c2:	6044      	str	r4, [r0, #4]
 80033c4:	6542      	str	r2, [r0, #84]	@ 0x54
 80033c6:	684a      	ldr	r2, [r1, #4]
 80033c8:	6582      	str	r2, [r0, #88]	@ 0x58
 80033ca:	6203      	str	r3, [r0, #32]
 80033cc:	bd30      	pop	{r4, r5, pc}
 80033ce:	bf00      	nop
 80033d0:	40012c00 	.word	0x40012c00

080033d4 <TIM_OC6_SetConfig>:
 80033d4:	6a03      	ldr	r3, [r0, #32]
 80033d6:	6a02      	ldr	r2, [r0, #32]
 80033d8:	f422 1280 	bic.w	r2, r2, #1048576	@ 0x100000
 80033dc:	b530      	push	{r4, r5, lr}
 80033de:	6202      	str	r2, [r0, #32]
 80033e0:	6844      	ldr	r4, [r0, #4]
 80033e2:	6d42      	ldr	r2, [r0, #84]	@ 0x54
 80033e4:	680d      	ldr	r5, [r1, #0]
 80033e6:	f022 7280 	bic.w	r2, r2, #16777216	@ 0x1000000
 80033ea:	f422 42e0 	bic.w	r2, r2, #28672	@ 0x7000
 80033ee:	ea42 2205 	orr.w	r2, r2, r5, lsl #8
 80033f2:	688d      	ldr	r5, [r1, #8]
 80033f4:	f423 1300 	bic.w	r3, r3, #2097152	@ 0x200000
 80033f8:	ea43 5305 	orr.w	r3, r3, r5, lsl #20
 80033fc:	4d0e      	ldr	r5, [pc, #56]	@ (8003438 <TIM_OC6_SetConfig+0x64>)
 80033fe:	42a8      	cmp	r0, r5
 8003400:	d00f      	beq.n	8003422 <TIM_OC6_SetConfig+0x4e>
 8003402:	f505 6500 	add.w	r5, r5, #2048	@ 0x800
 8003406:	42a8      	cmp	r0, r5
 8003408:	d00b      	beq.n	8003422 <TIM_OC6_SetConfig+0x4e>
 800340a:	f505 6540 	add.w	r5, r5, #3072	@ 0xc00
 800340e:	42a8      	cmp	r0, r5
 8003410:	d007      	beq.n	8003422 <TIM_OC6_SetConfig+0x4e>
 8003412:	f505 6580 	add.w	r5, r5, #1024	@ 0x400
 8003416:	42a8      	cmp	r0, r5
 8003418:	d003      	beq.n	8003422 <TIM_OC6_SetConfig+0x4e>
 800341a:	f505 6580 	add.w	r5, r5, #1024	@ 0x400
 800341e:	42a8      	cmp	r0, r5
 8003420:	d104      	bne.n	800342c <TIM_OC6_SetConfig+0x58>
 8003422:	694d      	ldr	r5, [r1, #20]
 8003424:	f424 2480 	bic.w	r4, r4, #262144	@ 0x40000
 8003428:	ea44 2485 	orr.w	r4, r4, r5, lsl #10
 800342c:	6044      	str	r4, [r0, #4]
 800342e:	6542      	str	r2, [r0, #84]	@ 0x54
 8003430:	684a      	ldr	r2, [r1, #4]
 8003432:	65c2      	str	r2, [r0, #92]	@ 0x5c
 8003434:	6203      	str	r3, [r0, #32]
 8003436:	bd30      	pop	{r4, r5, pc}
 8003438:	40012c00 	.word	0x40012c00

0800343c <HAL_TIM_Base_Start>:
 800343c:	f890 303d 	ldrb.w	r3, [r0, #61]	@ 0x3d
 8003440:	2b01      	cmp	r3, #1
 8003442:	d127      	bne.n	8003494 <HAL_TIM_Base_Start+0x58>
 8003444:	2302      	movs	r3, #2
 8003446:	4a14      	ldr	r2, [pc, #80]	@ (8003498 <HAL_TIM_Base_Start+0x5c>)
 8003448:	f880 303d 	strb.w	r3, [r0, #61]	@ 0x3d
 800344c:	6803      	ldr	r3, [r0, #0]
 800344e:	4293      	cmp	r3, r2
 8003450:	d012      	beq.n	8003478 <HAL_TIM_Base_Start+0x3c>
 8003452:	f1b3 4f80 	cmp.w	r3, #1073741824	@ 0x40000000
 8003456:	d00f      	beq.n	8003478 <HAL_TIM_Base_Start+0x3c>
 8003458:	f5a2 3294 	sub.w	r2, r2, #75776	@ 0x12800
 800345c:	4293      	cmp	r3, r2
 800345e:	d00b      	beq.n	8003478 <HAL_TIM_Base_Start+0x3c>
 8003460:	f502 6280 	add.w	r2, r2, #1024	@ 0x400
 8003464:	4293      	cmp	r3, r2
 8003466:	d007      	beq.n	8003478 <HAL_TIM_Base_Start+0x3c>
 8003468:	f502 3296 	add.w	r2, r2, #76800	@ 0x12c00
 800346c:	4293      	cmp	r3, r2
 800346e:	d003      	beq.n	8003478 <HAL_TIM_Base_Start+0x3c>
 8003470:	f502 6240 	add.w	r2, r2, #3072	@ 0xc00
 8003474:	4293      	cmp	r3, r2
 8003476:	d107      	bne.n	8003488 <HAL_TIM_Base_Start+0x4c>
 8003478:	6899      	ldr	r1, [r3, #8]
 800347a:	4a08      	ldr	r2, [pc, #32]	@ (800349c <HAL_TIM_Base_Start+0x60>)
 800347c:	400a      	ands	r2, r1
 800347e:	2a06      	cmp	r2, #6
 8003480:	d006      	beq.n	8003490 <HAL_TIM_Base_Start+0x54>
 8003482:	f5b2 3f80 	cmp.w	r2, #65536	@ 0x10000
 8003486:	d003      	beq.n	8003490 <HAL_TIM_Base_Start+0x54>
 8003488:	681a      	ldr	r2, [r3, #0]
 800348a:	f042 0201 	orr.w	r2, r2, #1
 800348e:	601a      	str	r2, [r3, #0]
 8003490:	2000      	movs	r0, #0
 8003492:	4770      	bx	lr
 8003494:	2001      	movs	r0, #1
 8003496:	4770      	bx	lr
 8003498:	40012c00 	.word	0x40012c00
 800349c:	00010007 	.word	0x00010007

080034a0 <HAL_TIM_Base_Start_IT>:
 80034a0:	f890 303d 	ldrb.w	r3, [r0, #61]	@ 0x3d
 80034a4:	2b01      	cmp	r3, #1
 80034a6:	d12b      	bne.n	8003500 <HAL_TIM_Base_Start_IT+0x60>
 80034a8:	2302      	movs	r3, #2
 80034aa:	f880 303d 	strb.w	r3, [r0, #61]	@ 0x3d
 80034ae:	6803      	ldr	r3, [r0, #0]
 80034b0:	68da      	ldr	r2, [r3, #12]
 80034b2:	f042 0201 	orr.w	r2, r2, #1
 80034b6:	60da      	str	r2, [r3, #12]
 80034b8:	4a12      	ldr	r2, [pc, #72]	@ (8003504 <HAL_TIM_Base_Start_IT+0x64>)
 80034ba:	4293      	cmp	r3, r2
 80034bc:	d012      	beq.n	80034e4 <HAL_TIM_Base_Start_IT+0x44>
 80034be:	f1b3 4f80 	cmp.w	r3, #1073741824	@ 0x40000000
 80034c2:	d00f      	beq.n	80034e4 <HAL_TIM_Base_Start_IT+0x44>
 80034c4:	f5a2 3294 	sub.w	r2, r2, #75776	@ 0x12800
 80034c8:	4293      	cmp	r3, r2
 80034ca:	d00b      	beq.n	80034e4 <HAL_TIM_Base_Start_IT+0x44>
 80034cc:	f502 6280 	add.w	r2, r2, #1024	@ 0x400
 80034d0:	4293      	cmp	r3, r2
 80034d2:	d007      	beq.n	80034e4 <HAL_TIM_Base_Start_IT+0x44>
 80034d4:	f502 3296 	add.w	r2, r2, #76800	@ 0x12c00
 80034d8:	4293      	cmp	r3, r2
 80034da:	d003      	beq.n	80034e4 <HAL_TIM_Base_Start_IT+0x44>
 80034dc:	f502 6240 	add.w	r2, r2, #3072	@ 0xc00
 80034e0:	4293      	cmp	r3, r2
 80034e2:	d107      	bne.n	80034f4 <HAL_TIM_Base_Start_IT+0x54>
 80034e4:	6899      	ldr	r1, [r3, #8]
 80034e6:	4a08      	ldr	r2, [pc, #32]	@ (8003508 <HAL_TIM_Base_Start_IT+0x68>)
 80034e8:	400a      	ands	r2, r1
 80034ea:	2a06      	cmp	r2, #6
 80034ec:	d006      	beq.n	80034fc <HAL_TIM_Base_Start_IT+0x5c>
 80034ee:	f5b2 3f80 	cmp.w	r2, #65536	@ 0x10000
 80034f2:	d003      	beq.n	80034fc <HAL_TIM_Base_Start_IT+0x5c>
 80034f4:	681a      	ldr	r2, [r3, #0]
 80034f6:	f042 0201 	orr.w	r2, r2, #1
 80034fa:	601a      	str	r2, [r3, #0]
 80034fc:	2000      	movs	r0, #0
 80034fe:	4770      	bx	lr
 8003500:	2001      	movs	r0, #1
 8003502:	4770      	bx	lr
 8003504:	40012c00 	.word	0x40012c00
 8003508:	00010007 	.word	0x00010007

0800350c <HAL_TIM_IC_MspInit>:
 800350c:	4770      	bx	lr

0800350e <HAL_TIM_OC_DelayElapsedCallback>:
 800350e:	4770      	bx	lr

08003510 <HAL_TIM_IC_CaptureCallback>:
 8003510:	4770      	bx	lr

08003512 <HAL_TIM_PWM_PulseFinishedCallback>:
 8003512:	4770      	bx	lr

08003514 <HAL_TIM_TriggerCallback>:
 8003514:	4770      	bx	lr

08003516 <HAL_TIM_IRQHandler>:
 8003516:	6803      	ldr	r3, [r0, #0]
 8003518:	b570      	push	{r4, r5, r6, lr}
 800351a:	68dd      	ldr	r5, [r3, #12]
 800351c:	691e      	ldr	r6, [r3, #16]
 800351e:	07b2      	lsls	r2, r6, #30
 8003520:	4604      	mov	r4, r0
 8003522:	d50d      	bpl.n	8003540 <HAL_TIM_IRQHandler+0x2a>
 8003524:	07a9      	lsls	r1, r5, #30
 8003526:	d50b      	bpl.n	8003540 <HAL_TIM_IRQHandler+0x2a>
 8003528:	f06f 0202 	mvn.w	r2, #2
 800352c:	611a      	str	r2, [r3, #16]
 800352e:	2201      	movs	r2, #1
 8003530:	7702      	strb	r2, [r0, #28]
 8003532:	699b      	ldr	r3, [r3, #24]
 8003534:	079a      	lsls	r2, r3, #30
 8003536:	d074      	beq.n	8003622 <HAL_TIM_IRQHandler+0x10c>
 8003538:	f7ff ffea 	bl	8003510 <HAL_TIM_IC_CaptureCallback>
 800353c:	2300      	movs	r3, #0
 800353e:	7723      	strb	r3, [r4, #28]
 8003540:	0773      	lsls	r3, r6, #29
 8003542:	d510      	bpl.n	8003566 <HAL_TIM_IRQHandler+0x50>
 8003544:	0768      	lsls	r0, r5, #29
 8003546:	d50e      	bpl.n	8003566 <HAL_TIM_IRQHandler+0x50>
 8003548:	6823      	ldr	r3, [r4, #0]
 800354a:	f06f 0204 	mvn.w	r2, #4
 800354e:	611a      	str	r2, [r3, #16]
 8003550:	2202      	movs	r2, #2
 8003552:	7722      	strb	r2, [r4, #28]
 8003554:	699b      	ldr	r3, [r3, #24]
 8003556:	f413 7f40 	tst.w	r3, #768	@ 0x300
 800355a:	4620      	mov	r0, r4
 800355c:	d067      	beq.n	800362e <HAL_TIM_IRQHandler+0x118>
 800355e:	f7ff ffd7 	bl	8003510 <HAL_TIM_IC_CaptureCallback>
 8003562:	2300      	movs	r3, #0
 8003564:	7723      	strb	r3, [r4, #28]
 8003566:	0731      	lsls	r1, r6, #28
 8003568:	d50f      	bpl.n	800358a <HAL_TIM_IRQHandler+0x74>
 800356a:	072a      	lsls	r2, r5, #28
 800356c:	d50d      	bpl.n	800358a <HAL_TIM_IRQHandler+0x74>
 800356e:	6823      	ldr	r3, [r4, #0]
 8003570:	f06f 0208 	mvn.w	r2, #8
 8003574:	611a      	str	r2, [r3, #16]
 8003576:	2204      	movs	r2, #4
 8003578:	7722      	strb	r2, [r4, #28]
 800357a:	69db      	ldr	r3, [r3, #28]
 800357c:	079b      	lsls	r3, r3, #30
 800357e:	4620      	mov	r0, r4
 8003580:	d05b      	beq.n	800363a <HAL_TIM_IRQHandler+0x124>
 8003582:	f7ff ffc5 	bl	8003510 <HAL_TIM_IC_CaptureCallback>
 8003586:	2300      	movs	r3, #0
 8003588:	7723      	strb	r3, [r4, #28]
 800358a:	06f0      	lsls	r0, r6, #27
 800358c:	d510      	bpl.n	80035b0 <HAL_TIM_IRQHandler+0x9a>
 800358e:	06e9      	lsls	r1, r5, #27
 8003590:	d50e      	bpl.n	80035b0 <HAL_TIM_IRQHandler+0x9a>
 8003592:	6823      	ldr	r3, [r4, #0]
 8003594:	f06f 0210 	mvn.w	r2, #16
 8003598:	611a      	str	r2, [r3, #16]
 800359a:	2208      	movs	r2, #8
 800359c:	7722      	strb	r2, [r4, #28]
 800359e:	69db      	ldr	r3, [r3, #28]
 80035a0:	f413 7f40 	tst.w	r3, #768	@ 0x300
 80035a4:	4620      	mov	r0, r4
 80035a6:	d04e      	beq.n	8003646 <HAL_TIM_IRQHandler+0x130>
 80035a8:	f7ff ffb2 	bl	8003510 <HAL_TIM_IC_CaptureCallback>
 80035ac:	2300      	movs	r3, #0
 80035ae:	7723      	strb	r3, [r4, #28]
 80035b0:	07f2      	lsls	r2, r6, #31
 80035b2:	d508      	bpl.n	80035c6 <HAL_TIM_IRQHandler+0xb0>
 80035b4:	07eb      	lsls	r3, r5, #31
 80035b6:	d506      	bpl.n	80035c6 <HAL_TIM_IRQHandler+0xb0>
 80035b8:	6823      	ldr	r3, [r4, #0]
 80035ba:	f06f 0201 	mvn.w	r2, #1
 80035be:	611a      	str	r2, [r3, #16]
 80035c0:	4620      	mov	r0, r4
 80035c2:	f7fd f9a5 	bl	8000910 <HAL_TIM_PeriodElapsedCallback>
 80035c6:	0630      	lsls	r0, r6, #24
 80035c8:	d508      	bpl.n	80035dc <HAL_TIM_IRQHandler+0xc6>
 80035ca:	0629      	lsls	r1, r5, #24
 80035cc:	d506      	bpl.n	80035dc <HAL_TIM_IRQHandler+0xc6>
 80035ce:	6823      	ldr	r3, [r4, #0]
 80035d0:	f06f 0280 	mvn.w	r2, #128	@ 0x80
 80035d4:	611a      	str	r2, [r3, #16]
 80035d6:	4620      	mov	r0, r4
 80035d8:	f000 fc3d 	bl	8003e56 <HAL_TIMEx_BreakCallback>
 80035dc:	05f2      	lsls	r2, r6, #23
 80035de:	d508      	bpl.n	80035f2 <HAL_TIM_IRQHandler+0xdc>
 80035e0:	062b      	lsls	r3, r5, #24
 80035e2:	d506      	bpl.n	80035f2 <HAL_TIM_IRQHandler+0xdc>
 80035e4:	6823      	ldr	r3, [r4, #0]
 80035e6:	f46f 7280 	mvn.w	r2, #256	@ 0x100
 80035ea:	611a      	str	r2, [r3, #16]
 80035ec:	4620      	mov	r0, r4
 80035ee:	f000 fc33 	bl	8003e58 <HAL_TIMEx_Break2Callback>
 80035f2:	0670      	lsls	r0, r6, #25
 80035f4:	d508      	bpl.n	8003608 <HAL_TIM_IRQHandler+0xf2>
 80035f6:	0669      	lsls	r1, r5, #25
 80035f8:	d506      	bpl.n	8003608 <HAL_TIM_IRQHandler+0xf2>
 80035fa:	6823      	ldr	r3, [r4, #0]
 80035fc:	f06f 0240 	mvn.w	r2, #64	@ 0x40
 8003600:	611a      	str	r2, [r3, #16]
 8003602:	4620      	mov	r0, r4
 8003604:	f7ff ff86 	bl	8003514 <HAL_TIM_TriggerCallback>
 8003608:	06b2      	lsls	r2, r6, #26
 800360a:	d522      	bpl.n	8003652 <HAL_TIM_IRQHandler+0x13c>
 800360c:	06ab      	lsls	r3, r5, #26
 800360e:	d520      	bpl.n	8003652 <HAL_TIM_IRQHandler+0x13c>
 8003610:	6823      	ldr	r3, [r4, #0]
 8003612:	f06f 0220 	mvn.w	r2, #32
 8003616:	4620      	mov	r0, r4
 8003618:	611a      	str	r2, [r3, #16]
 800361a:	e8bd 4070 	ldmia.w	sp!, {r4, r5, r6, lr}
 800361e:	f000 bc19 	b.w	8003e54 <HAL_TIMEx_CommutCallback>
 8003622:	f7ff ff74 	bl	800350e <HAL_TIM_OC_DelayElapsedCallback>
 8003626:	4620      	mov	r0, r4
 8003628:	f7ff ff73 	bl	8003512 <HAL_TIM_PWM_PulseFinishedCallback>
 800362c:	e786      	b.n	800353c <HAL_TIM_IRQHandler+0x26>
 800362e:	f7ff ff6e 	bl	800350e <HAL_TIM_OC_DelayElapsedCallback>
 8003632:	4620      	mov	r0, r4
 8003634:	f7ff ff6d 	bl	8003512 <HAL_TIM_PWM_PulseFinishedCallback>
 8003638:	e793      	b.n	8003562 <HAL_TIM_IRQHandler+0x4c>
 800363a:	f7ff ff68 	bl	800350e <HAL_TIM_OC_DelayElapsedCallback>
 800363e:	4620      	mov	r0, r4
 8003640:	f7ff ff67 	bl	8003512 <HAL_TIM_PWM_PulseFinishedCallback>
 8003644:	e79f      	b.n	8003586 <HAL_TIM_IRQHandler+0x70>
 8003646:	f7ff ff62 	bl	800350e <HAL_TIM_OC_DelayElapsedCallback>
 800364a:	4620      	mov	r0, r4
 800364c:	f7ff ff61 	bl	8003512 <HAL_TIM_PWM_PulseFinishedCallback>
 8003650:	e7ac      	b.n	80035ac <HAL_TIM_IRQHandler+0x96>
 8003652:	bd70      	pop	{r4, r5, r6, pc}

08003654 <TIM_Base_SetConfig>:
 8003654:	4a27      	ldr	r2, [pc, #156]	@ (80036f4 <TIM_Base_SetConfig+0xa0>)
 8003656:	6803      	ldr	r3, [r0, #0]
 8003658:	4290      	cmp	r0, r2
 800365a:	d00e      	beq.n	800367a <TIM_Base_SetConfig+0x26>
 800365c:	f1b0 4f80 	cmp.w	r0, #1073741824	@ 0x40000000
 8003660:	d00b      	beq.n	800367a <TIM_Base_SetConfig+0x26>
 8003662:	f5a2 3294 	sub.w	r2, r2, #75776	@ 0x12800
 8003666:	4290      	cmp	r0, r2
 8003668:	d007      	beq.n	800367a <TIM_Base_SetConfig+0x26>
 800366a:	f502 6280 	add.w	r2, r2, #1024	@ 0x400
 800366e:	4290      	cmp	r0, r2
 8003670:	d003      	beq.n	800367a <TIM_Base_SetConfig+0x26>
 8003672:	f502 3296 	add.w	r2, r2, #76800	@ 0x12c00
 8003676:	4290      	cmp	r0, r2
 8003678:	d108      	bne.n	800368c <TIM_Base_SetConfig+0x38>
 800367a:	684a      	ldr	r2, [r1, #4]
 800367c:	f023 0370 	bic.w	r3, r3, #112	@ 0x70
 8003680:	4313      	orrs	r3, r2
 8003682:	68ca      	ldr	r2, [r1, #12]
 8003684:	f423 7340 	bic.w	r3, r3, #768	@ 0x300
 8003688:	4313      	orrs	r3, r2
 800368a:	e00a      	b.n	80036a2 <TIM_Base_SetConfig+0x4e>
 800368c:	4a1a      	ldr	r2, [pc, #104]	@ (80036f8 <TIM_Base_SetConfig+0xa4>)
 800368e:	4290      	cmp	r0, r2
 8003690:	d0f7      	beq.n	8003682 <TIM_Base_SetConfig+0x2e>
 8003692:	f502 6280 	add.w	r2, r2, #1024	@ 0x400
 8003696:	4290      	cmp	r0, r2
 8003698:	d0f3      	beq.n	8003682 <TIM_Base_SetConfig+0x2e>
 800369a:	f502 6280 	add.w	r2, r2, #1024	@ 0x400
 800369e:	4290      	cmp	r0, r2
 80036a0:	d0ef      	beq.n	8003682 <TIM_Base_SetConfig+0x2e>
 80036a2:	694a      	ldr	r2, [r1, #20]
 80036a4:	f023 0380 	bic.w	r3, r3, #128	@ 0x80
 80036a8:	4313      	orrs	r3, r2
 80036aa:	6003      	str	r3, [r0, #0]
 80036ac:	688b      	ldr	r3, [r1, #8]
 80036ae:	62c3      	str	r3, [r0, #44]	@ 0x2c
 80036b0:	680b      	ldr	r3, [r1, #0]
 80036b2:	6283      	str	r3, [r0, #40]	@ 0x28
 80036b4:	4b0f      	ldr	r3, [pc, #60]	@ (80036f4 <TIM_Base_SetConfig+0xa0>)
 80036b6:	4298      	cmp	r0, r3
 80036b8:	d00f      	beq.n	80036da <TIM_Base_SetConfig+0x86>
 80036ba:	f503 6300 	add.w	r3, r3, #2048	@ 0x800
 80036be:	4298      	cmp	r0, r3
 80036c0:	d00b      	beq.n	80036da <TIM_Base_SetConfig+0x86>
 80036c2:	f503 6340 	add.w	r3, r3, #3072	@ 0xc00
 80036c6:	4298      	cmp	r0, r3
 80036c8:	d007      	beq.n	80036da <TIM_Base_SetConfig+0x86>
 80036ca:	f503 6380 	add.w	r3, r3, #1024	@ 0x400
 80036ce:	4298      	cmp	r0, r3
 80036d0:	d003      	beq.n	80036da <TIM_Base_SetConfig+0x86>
 80036d2:	f503 6380 	add.w	r3, r3, #1024	@ 0x400
 80036d6:	4298      	cmp	r0, r3
 80036d8:	d101      	bne.n	80036de <TIM_Base_SetConfig+0x8a>
 80036da:	690b      	ldr	r3, [r1, #16]
 80036dc:	6303      	str	r3, [r0, #48]	@ 0x30
 80036de:	2301      	movs	r3, #1
 80036e0:	6143      	str	r3, [r0, #20]
 80036e2:	6903      	ldr	r3, [r0, #16]
 80036e4:	07db      	lsls	r3, r3, #31
 80036e6:	bf42      	ittt	mi
 80036e8:	6903      	ldrmi	r3, [r0, #16]
 80036ea:	f023 0301 	bicmi.w	r3, r3, #1
 80036ee:	6103      	strmi	r3, [r0, #16]
 80036f0:	4770      	bx	lr
 80036f2:	bf00      	nop
 80036f4:	40012c00 	.word	0x40012c00
 80036f8:	40014000 	.word	0x40014000

080036fc <HAL_TIM_Base_Init>:
 80036fc:	b510      	push	{r4, lr}
 80036fe:	4604      	mov	r4, r0
 8003700:	b350      	cbz	r0, 8003758 <HAL_TIM_Base_Init+0x5c>
 8003702:	f890 303d 	ldrb.w	r3, [r0, #61]	@ 0x3d
 8003706:	f003 02ff 	and.w	r2, r3, #255	@ 0xff
 800370a:	b91b      	cbnz	r3, 8003714 <HAL_TIM_Base_Init+0x18>
 800370c:	f880 203c 	strb.w	r2, [r0, #60]	@ 0x3c
 8003710:	f7fd fbf0 	bl	8000ef4 <HAL_TIM_Base_MspInit>
 8003714:	2302      	movs	r3, #2
 8003716:	6820      	ldr	r0, [r4, #0]
 8003718:	f884 303d 	strb.w	r3, [r4, #61]	@ 0x3d
 800371c:	1d21      	adds	r1, r4, #4
 800371e:	f7ff ff99 	bl	8003654 <TIM_Base_SetConfig>
 8003722:	2301      	movs	r3, #1
 8003724:	f884 3048 	strb.w	r3, [r4, #72]	@ 0x48
 8003728:	2000      	movs	r0, #0
 800372a:	f884 303e 	strb.w	r3, [r4, #62]	@ 0x3e
 800372e:	f884 303f 	strb.w	r3, [r4, #63]	@ 0x3f
 8003732:	f884 3040 	strb.w	r3, [r4, #64]	@ 0x40
 8003736:	f884 3041 	strb.w	r3, [r4, #65]	@ 0x41
 800373a:	f884 3042 	strb.w	r3, [r4, #66]	@ 0x42
 800373e:	f884 3043 	strb.w	r3, [r4, #67]	@ 0x43
 8003742:	f884 3044 	strb.w	r3, [r4, #68]	@ 0x44
 8003746:	f884 3045 	strb.w	r3, [r4, #69]	@ 0x45
 800374a:	f884 3046 	strb.w	r3, [r4, #70]	@ 0x46
 800374e:	f884 3047 	strb.w	r3, [r4, #71]	@ 0x47
 8003752:	f884 303d 	strb.w	r3, [r4, #61]	@ 0x3d
 8003756:	bd10      	pop	{r4, pc}
 8003758:	2001      	movs	r0, #1
 800375a:	e7fc      	b.n	8003756 <HAL_TIM_Base_Init+0x5a>

0800375c <HAL_TIM_OC_Init>:
 800375c:	b510      	push	{r4, lr}
 800375e:	4604      	mov	r4, r0
 8003760:	b350      	cbz	r0, 80037b8 <HAL_TIM_OC_Init+0x5c>
 8003762:	f890 303d 	ldrb.w	r3, [r0, #61]	@ 0x3d
 8003766:	f003 02ff 	and.w	r2, r3, #255	@ 0xff
 800376a:	b91b      	cbnz	r3, 8003774 <HAL_TIM_OC_Init+0x18>
 800376c:	f880 203c 	strb.w	r2, [r0, #60]	@ 0x3c
 8003770:	f7fd fbac 	bl	8000ecc <HAL_TIM_OC_MspInit>
 8003774:	2302      	movs	r3, #2
 8003776:	6820      	ldr	r0, [r4, #0]
 8003778:	f884 303d 	strb.w	r3, [r4, #61]	@ 0x3d
 800377c:	1d21      	adds	r1, r4, #4
 800377e:	f7ff ff69 	bl	8003654 <TIM_Base_SetConfig>
 8003782:	2301      	movs	r3, #1
 8003784:	f884 3048 	strb.w	r3, [r4, #72]	@ 0x48
 8003788:	2000      	movs	r0, #0
 800378a:	f884 303e 	strb.w	r3, [r4, #62]	@ 0x3e
 800378e:	f884 303f 	strb.w	r3, [r4, #63]	@ 0x3f
 8003792:	f884 3040 	strb.w	r3, [r4, #64]	@ 0x40
 8003796:	f884 3041 	strb.w	r3, [r4, #65]	@ 0x41
 800379a:	f884 3042 	strb.w	r3, [r4, #66]	@ 0x42
 800379e:	f884 3043 	strb.w	r3, [r4, #67]	@ 0x43
 80037a2:	f884 3044 	strb.w	r3, [r4, #68]	@ 0x44
 80037a6:	f884 3045 	strb.w	r3, [r4, #69]	@ 0x45
 80037aa:	f884 3046 	strb.w	r3, [r4, #70]	@ 0x46
 80037ae:	f884 3047 	strb.w	r3, [r4, #71]	@ 0x47
 80037b2:	f884 303d 	strb.w	r3, [r4, #61]	@ 0x3d
 80037b6:	bd10      	pop	{r4, pc}
 80037b8:	2001      	movs	r0, #1
 80037ba:	e7fc      	b.n	80037b6 <HAL_TIM_OC_Init+0x5a>

080037bc <HAL_TIM_IC_Init>:
 80037bc:	b510      	push	{r4, lr}
 80037be:	4604      	mov	r4, r0
 80037c0:	b350      	cbz	r0, 8003818 <HAL_TIM_IC_Init+0x5c>
 80037c2:	f890 303d 	ldrb.w	r3, [r0, #61]	@ 0x3d
 80037c6:	f003 02ff 	and.w	r2, r3, #255	@ 0xff
 80037ca:	b91b      	cbnz	r3, 80037d4 <HAL_TIM_IC_Init+0x18>
 80037cc:	f880 203c 	strb.w	r2, [r0, #60]	@ 0x3c
 80037d0:	f7ff fe9c 	bl	800350c <HAL_TIM_IC_MspInit>
 80037d4:	2302      	movs	r3, #2
 80037d6:	6820      	ldr	r0, [r4, #0]
 80037d8:	f884 303d 	strb.w	r3, [r4, #61]	@ 0x3d
 80037dc:	1d21      	adds	r1, r4, #4
 80037de:	f7ff ff39 	bl	8003654 <TIM_Base_SetConfig>
 80037e2:	2301      	movs	r3, #1
 80037e4:	f884 3048 	strb.w	r3, [r4, #72]	@ 0x48
 80037e8:	2000      	movs	r0, #0
 80037ea:	f884 303e 	strb.w	r3, [r4, #62]	@ 0x3e
 80037ee:	f884 303f 	strb.w	r3, [r4, #63]	@ 0x3f
 80037f2:	f884 3040 	strb.w	r3, [r4, #64]	@ 0x40
 80037f6:	f884 3041 	strb.w	r3, [r4, #65]	@ 0x41
 80037fa:	f884 3042 	strb.w	r3, [r4, #66]	@ 0x42
 80037fe:	f884 3043 	strb.w	r3, [r4, #67]	@ 0x43
 8003802:	f884 3044 	strb.w	r3, [r4, #68]	@ 0x44
 8003806:	f884 3045 	strb.w	r3, [r4, #69]	@ 0x45
 800380a:	f884 3046 	strb.w	r3, [r4, #70]	@ 0x46
 800380e:	f884 3047 	strb.w	r3, [r4, #71]	@ 0x47
 8003812:	f884 303d 	strb.w	r3, [r4, #61]	@ 0x3d
 8003816:	bd10      	pop	{r4, pc}
 8003818:	2001      	movs	r0, #1
 800381a:	e7fc      	b.n	8003816 <HAL_TIM_IC_Init+0x5a>

0800381c <TIM_OC2_SetConfig>:
 800381c:	6a03      	ldr	r3, [r0, #32]
 800381e:	6a02      	ldr	r2, [r0, #32]
 8003820:	f022 0210 	bic.w	r2, r2, #16
 8003824:	b570      	push	{r4, r5, r6, lr}
 8003826:	6202      	str	r2, [r0, #32]
 8003828:	6844      	ldr	r4, [r0, #4]
 800382a:	6982      	ldr	r2, [r0, #24]
 800382c:	680d      	ldr	r5, [r1, #0]
 800382e:	f022 7280 	bic.w	r2, r2, #16777216	@ 0x1000000
 8003832:	f422 42e6 	bic.w	r2, r2, #29440	@ 0x7300
 8003836:	ea42 2205 	orr.w	r2, r2, r5, lsl #8
 800383a:	688d      	ldr	r5, [r1, #8]
 800383c:	f023 0320 	bic.w	r3, r3, #32
 8003840:	ea43 1305 	orr.w	r3, r3, r5, lsl #4
 8003844:	4d13      	ldr	r5, [pc, #76]	@ (8003894 <TIM_OC2_SetConfig+0x78>)
 8003846:	42a8      	cmp	r0, r5
 8003848:	d00f      	beq.n	800386a <TIM_OC2_SetConfig+0x4e>
 800384a:	f505 6500 	add.w	r5, r5, #2048	@ 0x800
 800384e:	42a8      	cmp	r0, r5
 8003850:	d00b      	beq.n	800386a <TIM_OC2_SetConfig+0x4e>
 8003852:	f505 6540 	add.w	r5, r5, #3072	@ 0xc00
 8003856:	42a8      	cmp	r0, r5
 8003858:	d10f      	bne.n	800387a <TIM_OC2_SetConfig+0x5e>
 800385a:	f424 6540 	bic.w	r5, r4, #3072	@ 0xc00
 800385e:	e9d1 4605 	ldrd	r4, r6, [r1, #20]
 8003862:	4334      	orrs	r4, r6
 8003864:	ea45 0484 	orr.w	r4, r5, r4, lsl #2
 8003868:	e00e      	b.n	8003888 <TIM_OC2_SetConfig+0x6c>
 800386a:	68cd      	ldr	r5, [r1, #12]
 800386c:	f023 0380 	bic.w	r3, r3, #128	@ 0x80
 8003870:	ea43 1305 	orr.w	r3, r3, r5, lsl #4
 8003874:	f023 0340 	bic.w	r3, r3, #64	@ 0x40
 8003878:	e7ef      	b.n	800385a <TIM_OC2_SetConfig+0x3e>
 800387a:	4d07      	ldr	r5, [pc, #28]	@ (8003898 <TIM_OC2_SetConfig+0x7c>)
 800387c:	42a8      	cmp	r0, r5
 800387e:	d0ec      	beq.n	800385a <TIM_OC2_SetConfig+0x3e>
 8003880:	f505 6580 	add.w	r5, r5, #1024	@ 0x400
 8003884:	42a8      	cmp	r0, r5
 8003886:	d0e8      	beq.n	800385a <TIM_OC2_SetConfig+0x3e>
 8003888:	6044      	str	r4, [r0, #4]
 800388a:	6182      	str	r2, [r0, #24]
 800388c:	684a      	ldr	r2, [r1, #4]
 800388e:	6382      	str	r2, [r0, #56]	@ 0x38
 8003890:	6203      	str	r3, [r0, #32]
 8003892:	bd70      	pop	{r4, r5, r6, pc}
 8003894:	40012c00 	.word	0x40012c00
 8003898:	40014400 	.word	0x40014400

0800389c <HAL_TIM_OC_ConfigChannel>:
 800389c:	b510      	push	{r4, lr}
 800389e:	f890 303c 	ldrb.w	r3, [r0, #60]	@ 0x3c
 80038a2:	2b01      	cmp	r3, #1
 80038a4:	4604      	mov	r4, r0
 80038a6:	d029      	beq.n	80038fc <HAL_TIM_OC_ConfigChannel+0x60>
 80038a8:	2a0c      	cmp	r2, #12
 80038aa:	d01f      	beq.n	80038ec <HAL_TIM_OC_ConfigChannel+0x50>
 80038ac:	d809      	bhi.n	80038c2 <HAL_TIM_OC_ConfigChannel+0x26>
 80038ae:	2a04      	cmp	r2, #4
 80038b0:	d014      	beq.n	80038dc <HAL_TIM_OC_ConfigChannel+0x40>
 80038b2:	2a08      	cmp	r2, #8
 80038b4:	d016      	beq.n	80038e4 <HAL_TIM_OC_ConfigChannel+0x48>
 80038b6:	b162      	cbz	r2, 80038d2 <HAL_TIM_OC_ConfigChannel+0x36>
 80038b8:	2001      	movs	r0, #1
 80038ba:	2300      	movs	r3, #0
 80038bc:	f884 303c 	strb.w	r3, [r4, #60]	@ 0x3c
 80038c0:	bd10      	pop	{r4, pc}
 80038c2:	2a10      	cmp	r2, #16
 80038c4:	d016      	beq.n	80038f4 <HAL_TIM_OC_ConfigChannel+0x58>
 80038c6:	2a14      	cmp	r2, #20
 80038c8:	d1f6      	bne.n	80038b8 <HAL_TIM_OC_ConfigChannel+0x1c>
 80038ca:	6800      	ldr	r0, [r0, #0]
 80038cc:	f7ff fd82 	bl	80033d4 <TIM_OC6_SetConfig>
 80038d0:	e002      	b.n	80038d8 <HAL_TIM_OC_ConfigChannel+0x3c>
 80038d2:	6800      	ldr	r0, [r0, #0]
 80038d4:	f7ff fc9c 	bl	8003210 <TIM_OC1_SetConfig>
 80038d8:	2000      	movs	r0, #0
 80038da:	e7ee      	b.n	80038ba <HAL_TIM_OC_ConfigChannel+0x1e>
 80038dc:	6800      	ldr	r0, [r0, #0]
 80038de:	f7ff ff9d 	bl	800381c <TIM_OC2_SetConfig>
 80038e2:	e7f9      	b.n	80038d8 <HAL_TIM_OC_ConfigChannel+0x3c>
 80038e4:	6800      	ldr	r0, [r0, #0]
 80038e6:	f7ff fccd 	bl	8003284 <TIM_OC3_SetConfig>
 80038ea:	e7f5      	b.n	80038d8 <HAL_TIM_OC_ConfigChannel+0x3c>
 80038ec:	6800      	ldr	r0, [r0, #0]
 80038ee:	f7ff fd09 	bl	8003304 <TIM_OC4_SetConfig>
 80038f2:	e7f1      	b.n	80038d8 <HAL_TIM_OC_ConfigChannel+0x3c>
 80038f4:	6800      	ldr	r0, [r0, #0]
 80038f6:	f7ff fd39 	bl	800336c <TIM_OC5_SetConfig>
 80038fa:	e7ed      	b.n	80038d8 <HAL_TIM_OC_ConfigChannel+0x3c>
 80038fc:	2002      	movs	r0, #2
 80038fe:	e7df      	b.n	80038c0 <HAL_TIM_OC_ConfigChannel+0x24>

08003900 <TIM_TI1_SetConfig>:
 8003900:	b570      	push	{r4, r5, r6, lr}
 8003902:	6a05      	ldr	r5, [r0, #32]
 8003904:	6a04      	ldr	r4, [r0, #32]
 8003906:	4e15      	ldr	r6, [pc, #84]	@ (800395c <TIM_TI1_SetConfig+0x5c>)
 8003908:	f024 0401 	bic.w	r4, r4, #1
 800390c:	6204      	str	r4, [r0, #32]
 800390e:	42b0      	cmp	r0, r6
 8003910:	6984      	ldr	r4, [r0, #24]
 8003912:	d01e      	beq.n	8003952 <TIM_TI1_SetConfig+0x52>
 8003914:	f1b0 4f80 	cmp.w	r0, #1073741824	@ 0x40000000
 8003918:	d01b      	beq.n	8003952 <TIM_TI1_SetConfig+0x52>
 800391a:	f5a6 3694 	sub.w	r6, r6, #75776	@ 0x12800
 800391e:	42b0      	cmp	r0, r6
 8003920:	d017      	beq.n	8003952 <TIM_TI1_SetConfig+0x52>
 8003922:	f506 6680 	add.w	r6, r6, #1024	@ 0x400
 8003926:	42b0      	cmp	r0, r6
 8003928:	d013      	beq.n	8003952 <TIM_TI1_SetConfig+0x52>
 800392a:	f506 3696 	add.w	r6, r6, #76800	@ 0x12c00
 800392e:	42b0      	cmp	r0, r6
 8003930:	d00f      	beq.n	8003952 <TIM_TI1_SetConfig+0x52>
 8003932:	f506 6640 	add.w	r6, r6, #3072	@ 0xc00
 8003936:	42b0      	cmp	r0, r6
 8003938:	d00b      	beq.n	8003952 <TIM_TI1_SetConfig+0x52>
 800393a:	f044 0201 	orr.w	r2, r4, #1
 800393e:	f363 1207 	bfi	r2, r3, #4, #4
 8003942:	f001 010a 	and.w	r1, r1, #10
 8003946:	f025 030a 	bic.w	r3, r5, #10
 800394a:	4319      	orrs	r1, r3
 800394c:	6182      	str	r2, [r0, #24]
 800394e:	6201      	str	r1, [r0, #32]
 8003950:	bd70      	pop	{r4, r5, r6, pc}
 8003952:	f024 0403 	bic.w	r4, r4, #3
 8003956:	4322      	orrs	r2, r4
 8003958:	e7f1      	b.n	800393e <TIM_TI1_SetConfig+0x3e>
 800395a:	bf00      	nop
 800395c:	40012c00 	.word	0x40012c00

08003960 <HAL_TIM_IC_ConfigChannel>:
 8003960:	b5f8      	push	{r3, r4, r5, r6, r7, lr}
 8003962:	f890 303c 	ldrb.w	r3, [r0, #60]	@ 0x3c
 8003966:	2b01      	cmp	r3, #1
 8003968:	4605      	mov	r5, r0
 800396a:	460c      	mov	r4, r1
 800396c:	f000 8082 	beq.w	8003a74 <HAL_TIM_IC_ConfigChannel+0x114>
 8003970:	2001      	movs	r0, #1
 8003972:	2a08      	cmp	r2, #8
 8003974:	f885 003c 	strb.w	r0, [r5, #60]	@ 0x3c
 8003978:	d05c      	beq.n	8003a34 <HAL_TIM_IC_ConfigChannel+0xd4>
 800397a:	d806      	bhi.n	800398a <HAL_TIM_IC_ConfigChannel+0x2a>
 800397c:	b342      	cbz	r2, 80039d0 <HAL_TIM_IC_ConfigChannel+0x70>
 800397e:	2a04      	cmp	r2, #4
 8003980:	d036      	beq.n	80039f0 <HAL_TIM_IC_ConfigChannel+0x90>
 8003982:	2300      	movs	r3, #0
 8003984:	f885 303c 	strb.w	r3, [r5, #60]	@ 0x3c
 8003988:	bdf8      	pop	{r3, r4, r5, r6, r7, pc}
 800398a:	2a0c      	cmp	r2, #12
 800398c:	d1f9      	bne.n	8003982 <HAL_TIM_IC_ConfigChannel+0x22>
 800398e:	682b      	ldr	r3, [r5, #0]
 8003990:	68ce      	ldr	r6, [r1, #12]
 8003992:	6a18      	ldr	r0, [r3, #32]
 8003994:	e9d1 2700 	ldrd	r2, r7, [r1]
 8003998:	6a19      	ldr	r1, [r3, #32]
 800399a:	f421 5180 	bic.w	r1, r1, #4096	@ 0x1000
 800399e:	6219      	str	r1, [r3, #32]
 80039a0:	69d9      	ldr	r1, [r3, #28]
 80039a2:	0312      	lsls	r2, r2, #12
 80039a4:	f421 7140 	bic.w	r1, r1, #768	@ 0x300
 80039a8:	ea41 2107 	orr.w	r1, r1, r7, lsl #8
 80039ac:	f420 4020 	bic.w	r0, r0, #40960	@ 0xa000
 80039b0:	f402 4220 	and.w	r2, r2, #40960	@ 0xa000
 80039b4:	f366 310f 	bfi	r1, r6, #12, #4
 80039b8:	4302      	orrs	r2, r0
 80039ba:	61d9      	str	r1, [r3, #28]
 80039bc:	621a      	str	r2, [r3, #32]
 80039be:	69da      	ldr	r2, [r3, #28]
 80039c0:	68a1      	ldr	r1, [r4, #8]
 80039c2:	f422 6240 	bic.w	r2, r2, #3072	@ 0xc00
 80039c6:	61da      	str	r2, [r3, #28]
 80039c8:	69da      	ldr	r2, [r3, #28]
 80039ca:	ea42 2201 	orr.w	r2, r2, r1, lsl #8
 80039ce:	e04f      	b.n	8003a70 <HAL_TIM_IC_ConfigChannel+0x110>
 80039d0:	6828      	ldr	r0, [r5, #0]
 80039d2:	68cb      	ldr	r3, [r1, #12]
 80039d4:	e9d1 1200 	ldrd	r1, r2, [r1]
 80039d8:	f7ff ff92 	bl	8003900 <TIM_TI1_SetConfig>
 80039dc:	6983      	ldr	r3, [r0, #24]
 80039de:	68a2      	ldr	r2, [r4, #8]
 80039e0:	f023 030c 	bic.w	r3, r3, #12
 80039e4:	6183      	str	r3, [r0, #24]
 80039e6:	6983      	ldr	r3, [r0, #24]
 80039e8:	4313      	orrs	r3, r2
 80039ea:	6183      	str	r3, [r0, #24]
 80039ec:	2000      	movs	r0, #0
 80039ee:	e7c8      	b.n	8003982 <HAL_TIM_IC_ConfigChannel+0x22>
 80039f0:	682b      	ldr	r3, [r5, #0]
 80039f2:	68ce      	ldr	r6, [r1, #12]
 80039f4:	6a18      	ldr	r0, [r3, #32]
 80039f6:	e9d1 2700 	ldrd	r2, r7, [r1]
 80039fa:	6a19      	ldr	r1, [r3, #32]
 80039fc:	f021 0110 	bic.w	r1, r1, #16
 8003a00:	6219      	str	r1, [r3, #32]
 8003a02:	6999      	ldr	r1, [r3, #24]
 8003a04:	0112      	lsls	r2, r2, #4
 8003a06:	f421 7140 	bic.w	r1, r1, #768	@ 0x300
 8003a0a:	ea41 2107 	orr.w	r1, r1, r7, lsl #8
 8003a0e:	f020 00a0 	bic.w	r0, r0, #160	@ 0xa0
 8003a12:	f002 02a0 	and.w	r2, r2, #160	@ 0xa0
 8003a16:	f366 310f 	bfi	r1, r6, #12, #4
 8003a1a:	4302      	orrs	r2, r0
 8003a1c:	6199      	str	r1, [r3, #24]
 8003a1e:	621a      	str	r2, [r3, #32]
 8003a20:	699a      	ldr	r2, [r3, #24]
 8003a22:	68a1      	ldr	r1, [r4, #8]
 8003a24:	f422 6240 	bic.w	r2, r2, #3072	@ 0xc00
 8003a28:	619a      	str	r2, [r3, #24]
 8003a2a:	699a      	ldr	r2, [r3, #24]
 8003a2c:	ea42 2201 	orr.w	r2, r2, r1, lsl #8
 8003a30:	619a      	str	r2, [r3, #24]
 8003a32:	e7db      	b.n	80039ec <HAL_TIM_IC_ConfigChannel+0x8c>
 8003a34:	682b      	ldr	r3, [r5, #0]
 8003a36:	68e7      	ldr	r7, [r4, #12]
 8003a38:	6a18      	ldr	r0, [r3, #32]
 8003a3a:	6a1e      	ldr	r6, [r3, #32]
 8003a3c:	f426 7680 	bic.w	r6, r6, #256	@ 0x100
 8003a40:	e9d1 2100 	ldrd	r2, r1, [r1]
 8003a44:	621e      	str	r6, [r3, #32]
 8003a46:	69de      	ldr	r6, [r3, #28]
 8003a48:	0212      	lsls	r2, r2, #8
 8003a4a:	f026 0603 	bic.w	r6, r6, #3
 8003a4e:	4331      	orrs	r1, r6
 8003a50:	f420 6020 	bic.w	r0, r0, #2560	@ 0xa00
 8003a54:	f402 6220 	and.w	r2, r2, #2560	@ 0xa00
 8003a58:	f367 1107 	bfi	r1, r7, #4, #4
 8003a5c:	4302      	orrs	r2, r0
 8003a5e:	61d9      	str	r1, [r3, #28]
 8003a60:	621a      	str	r2, [r3, #32]
 8003a62:	69da      	ldr	r2, [r3, #28]
 8003a64:	68a1      	ldr	r1, [r4, #8]
 8003a66:	f022 020c 	bic.w	r2, r2, #12
 8003a6a:	61da      	str	r2, [r3, #28]
 8003a6c:	69da      	ldr	r2, [r3, #28]
 8003a6e:	430a      	orrs	r2, r1
 8003a70:	61da      	str	r2, [r3, #28]
 8003a72:	e7bb      	b.n	80039ec <HAL_TIM_IC_ConfigChannel+0x8c>
 8003a74:	2002      	movs	r0, #2
 8003a76:	e787      	b.n	8003988 <HAL_TIM_IC_ConfigChannel+0x28>

08003a78 <TIM_ETR_SetConfig>:
 8003a78:	b510      	push	{r4, lr}
 8003a7a:	6884      	ldr	r4, [r0, #8]
 8003a7c:	430a      	orrs	r2, r1
 8003a7e:	f424 447f 	bic.w	r4, r4, #65280	@ 0xff00
 8003a82:	ea42 2203 	orr.w	r2, r2, r3, lsl #8
 8003a86:	4322      	orrs	r2, r4
 8003a88:	6082      	str	r2, [r0, #8]
 8003a8a:	bd10      	pop	{r4, pc}

08003a8c <TIM_SlaveTimer_SetConfig.constprop.0>:
 8003a8c:	6800      	ldr	r0, [r0, #0]
 8003a8e:	684b      	ldr	r3, [r1, #4]
 8003a90:	6882      	ldr	r2, [r0, #8]
 8003a92:	f022 0270 	bic.w	r2, r2, #112	@ 0x70
 8003a96:	431a      	orrs	r2, r3
 8003a98:	b510      	push	{r4, lr}
 8003a9a:	f422 3280 	bic.w	r2, r2, #65536	@ 0x10000
 8003a9e:	680c      	ldr	r4, [r1, #0]
 8003aa0:	f022 0207 	bic.w	r2, r2, #7
 8003aa4:	4322      	orrs	r2, r4
 8003aa6:	2b50      	cmp	r3, #80	@ 0x50
 8003aa8:	6082      	str	r2, [r0, #8]
 8003aaa:	d02c      	beq.n	8003b06 <TIM_SlaveTimer_SetConfig.constprop.0+0x7a>
 8003aac:	d810      	bhi.n	8003ad0 <TIM_SlaveTimer_SetConfig.constprop.0+0x44>
 8003aae:	2b40      	cmp	r3, #64	@ 0x40
 8003ab0:	d019      	beq.n	8003ae6 <TIM_SlaveTimer_SetConfig.constprop.0+0x5a>
 8003ab2:	d84b      	bhi.n	8003b4c <TIM_SlaveTimer_SetConfig.constprop.0+0xc0>
 8003ab4:	2b20      	cmp	r3, #32
 8003ab6:	d014      	beq.n	8003ae2 <TIM_SlaveTimer_SetConfig.constprop.0+0x56>
 8003ab8:	d805      	bhi.n	8003ac6 <TIM_SlaveTimer_SetConfig.constprop.0+0x3a>
 8003aba:	f033 0310 	bics.w	r3, r3, #16
 8003abe:	bf14      	ite	ne
 8003ac0:	2001      	movne	r0, #1
 8003ac2:	2000      	moveq	r0, #0
 8003ac4:	bd10      	pop	{r4, pc}
 8003ac6:	f1b3 0030 	subs.w	r0, r3, #48	@ 0x30
 8003aca:	bf18      	it	ne
 8003acc:	2001      	movne	r0, #1
 8003ace:	e7f9      	b.n	8003ac4 <TIM_SlaveTimer_SetConfig.constprop.0+0x38>
 8003ad0:	2b60      	cmp	r3, #96	@ 0x60
 8003ad2:	d028      	beq.n	8003b26 <TIM_SlaveTimer_SetConfig.constprop.0+0x9a>
 8003ad4:	2b70      	cmp	r3, #112	@ 0x70
 8003ad6:	d139      	bne.n	8003b4c <TIM_SlaveTimer_SetConfig.constprop.0+0xc0>
 8003ad8:	690b      	ldr	r3, [r1, #16]
 8003ada:	e9d1 2102 	ldrd	r2, r1, [r1, #8]
 8003ade:	f7ff ffcb 	bl	8003a78 <TIM_ETR_SetConfig>
 8003ae2:	2000      	movs	r0, #0
 8003ae4:	e7ee      	b.n	8003ac4 <TIM_SlaveTimer_SetConfig.constprop.0+0x38>
 8003ae6:	2c05      	cmp	r4, #5
 8003ae8:	d030      	beq.n	8003b4c <TIM_SlaveTimer_SetConfig.constprop.0+0xc0>
 8003aea:	6a02      	ldr	r2, [r0, #32]
 8003aec:	6a03      	ldr	r3, [r0, #32]
 8003aee:	6909      	ldr	r1, [r1, #16]
 8003af0:	f023 0301 	bic.w	r3, r3, #1
 8003af4:	6203      	str	r3, [r0, #32]
 8003af6:	6983      	ldr	r3, [r0, #24]
 8003af8:	f023 03f0 	bic.w	r3, r3, #240	@ 0xf0
 8003afc:	ea43 1301 	orr.w	r3, r3, r1, lsl #4
 8003b00:	6183      	str	r3, [r0, #24]
 8003b02:	6202      	str	r2, [r0, #32]
 8003b04:	e7ed      	b.n	8003ae2 <TIM_SlaveTimer_SetConfig.constprop.0+0x56>
 8003b06:	688a      	ldr	r2, [r1, #8]
 8003b08:	690c      	ldr	r4, [r1, #16]
 8003b0a:	6a01      	ldr	r1, [r0, #32]
 8003b0c:	6a03      	ldr	r3, [r0, #32]
 8003b0e:	f023 0301 	bic.w	r3, r3, #1
 8003b12:	6203      	str	r3, [r0, #32]
 8003b14:	6983      	ldr	r3, [r0, #24]
 8003b16:	f021 010a 	bic.w	r1, r1, #10
 8003b1a:	f023 03f0 	bic.w	r3, r3, #240	@ 0xf0
 8003b1e:	ea43 1304 	orr.w	r3, r3, r4, lsl #4
 8003b22:	430a      	orrs	r2, r1
 8003b24:	e7ec      	b.n	8003b00 <TIM_SlaveTimer_SetConfig.constprop.0+0x74>
 8003b26:	6a03      	ldr	r3, [r0, #32]
 8003b28:	6a02      	ldr	r2, [r0, #32]
 8003b2a:	688c      	ldr	r4, [r1, #8]
 8003b2c:	6909      	ldr	r1, [r1, #16]
 8003b2e:	f022 0210 	bic.w	r2, r2, #16
 8003b32:	6202      	str	r2, [r0, #32]
 8003b34:	6982      	ldr	r2, [r0, #24]
 8003b36:	f023 03a0 	bic.w	r3, r3, #160	@ 0xa0
 8003b3a:	f422 4270 	bic.w	r2, r2, #61440	@ 0xf000
 8003b3e:	ea42 3201 	orr.w	r2, r2, r1, lsl #12
 8003b42:	ea43 1304 	orr.w	r3, r3, r4, lsl #4
 8003b46:	6182      	str	r2, [r0, #24]
 8003b48:	6203      	str	r3, [r0, #32]
 8003b4a:	e7ca      	b.n	8003ae2 <TIM_SlaveTimer_SetConfig.constprop.0+0x56>
 8003b4c:	2001      	movs	r0, #1
 8003b4e:	e7b9      	b.n	8003ac4 <TIM_SlaveTimer_SetConfig.constprop.0+0x38>

08003b50 <HAL_TIM_SlaveConfigSynchro>:
 8003b50:	b538      	push	{r3, r4, r5, lr}
 8003b52:	f890 303c 	ldrb.w	r3, [r0, #60]	@ 0x3c
 8003b56:	2b01      	cmp	r3, #1
 8003b58:	4604      	mov	r4, r0
 8003b5a:	f04f 0302 	mov.w	r3, #2
 8003b5e:	d01c      	beq.n	8003b9a <HAL_TIM_SlaveConfigSynchro+0x4a>
 8003b60:	2501      	movs	r5, #1
 8003b62:	f880 503c 	strb.w	r5, [r0, #60]	@ 0x3c
 8003b66:	f880 303d 	strb.w	r3, [r0, #61]	@ 0x3d
 8003b6a:	f7ff ff8f 	bl	8003a8c <TIM_SlaveTimer_SetConfig.constprop.0>
 8003b6e:	b130      	cbz	r0, 8003b7e <HAL_TIM_SlaveConfigSynchro+0x2e>
 8003b70:	2300      	movs	r3, #0
 8003b72:	f884 503d 	strb.w	r5, [r4, #61]	@ 0x3d
 8003b76:	f884 303c 	strb.w	r3, [r4, #60]	@ 0x3c
 8003b7a:	4628      	mov	r0, r5
 8003b7c:	bd38      	pop	{r3, r4, r5, pc}
 8003b7e:	6823      	ldr	r3, [r4, #0]
 8003b80:	68da      	ldr	r2, [r3, #12]
 8003b82:	f022 0240 	bic.w	r2, r2, #64	@ 0x40
 8003b86:	60da      	str	r2, [r3, #12]
 8003b88:	68da      	ldr	r2, [r3, #12]
 8003b8a:	f422 4280 	bic.w	r2, r2, #16384	@ 0x4000
 8003b8e:	60da      	str	r2, [r3, #12]
 8003b90:	f884 503d 	strb.w	r5, [r4, #61]	@ 0x3d
 8003b94:	f884 003c 	strb.w	r0, [r4, #60]	@ 0x3c
 8003b98:	e7f0      	b.n	8003b7c <HAL_TIM_SlaveConfigSynchro+0x2c>
 8003b9a:	4618      	mov	r0, r3
 8003b9c:	e7ee      	b.n	8003b7c <HAL_TIM_SlaveConfigSynchro+0x2c>

08003b9e <TIM_CCxChannelCmd>:
 8003b9e:	6a03      	ldr	r3, [r0, #32]
 8003ba0:	b510      	push	{r4, lr}
 8003ba2:	f001 011f 	and.w	r1, r1, #31
 8003ba6:	2401      	movs	r4, #1
 8003ba8:	408c      	lsls	r4, r1
 8003baa:	ea23 0304 	bic.w	r3, r3, r4
 8003bae:	6203      	str	r3, [r0, #32]
 8003bb0:	6a03      	ldr	r3, [r0, #32]
 8003bb2:	408a      	lsls	r2, r1
 8003bb4:	431a      	orrs	r2, r3
 8003bb6:	6202      	str	r2, [r0, #32]
 8003bb8:	bd10      	pop	{r4, pc}
	...

08003bbc <HAL_TIM_OC_Start>:
 8003bbc:	2908      	cmp	r1, #8
 8003bbe:	b508      	push	{r3, lr}
 8003bc0:	d018      	beq.n	8003bf4 <HAL_TIM_OC_Start+0x38>
 8003bc2:	d805      	bhi.n	8003bd0 <HAL_TIM_OC_Start+0x14>
 8003bc4:	b159      	cbz	r1, 8003bde <HAL_TIM_OC_Start+0x22>
 8003bc6:	2904      	cmp	r1, #4
 8003bc8:	d011      	beq.n	8003bee <HAL_TIM_OC_Start+0x32>
 8003bca:	f890 3043 	ldrb.w	r3, [r0, #67]	@ 0x43
 8003bce:	e008      	b.n	8003be2 <HAL_TIM_OC_Start+0x26>
 8003bd0:	290c      	cmp	r1, #12
 8003bd2:	d012      	beq.n	8003bfa <HAL_TIM_OC_Start+0x3e>
 8003bd4:	2910      	cmp	r1, #16
 8003bd6:	d1f8      	bne.n	8003bca <HAL_TIM_OC_Start+0xe>
 8003bd8:	f890 3042 	ldrb.w	r3, [r0, #66]	@ 0x42
 8003bdc:	e001      	b.n	8003be2 <HAL_TIM_OC_Start+0x26>
 8003bde:	f890 303e 	ldrb.w	r3, [r0, #62]	@ 0x3e
 8003be2:	3b01      	subs	r3, #1
 8003be4:	bf18      	it	ne
 8003be6:	2301      	movne	r3, #1
 8003be8:	b153      	cbz	r3, 8003c00 <HAL_TIM_OC_Start+0x44>
 8003bea:	2001      	movs	r0, #1
 8003bec:	e045      	b.n	8003c7a <HAL_TIM_OC_Start+0xbe>
 8003bee:	f890 303f 	ldrb.w	r3, [r0, #63]	@ 0x3f
 8003bf2:	e7f6      	b.n	8003be2 <HAL_TIM_OC_Start+0x26>
 8003bf4:	f890 3040 	ldrb.w	r3, [r0, #64]	@ 0x40
 8003bf8:	e7f3      	b.n	8003be2 <HAL_TIM_OC_Start+0x26>
 8003bfa:	f890 3041 	ldrb.w	r3, [r0, #65]	@ 0x41
 8003bfe:	e7f0      	b.n	8003be2 <HAL_TIM_OC_Start+0x26>
 8003c00:	2908      	cmp	r1, #8
 8003c02:	f04f 0302 	mov.w	r3, #2
 8003c06:	d03c      	beq.n	8003c82 <HAL_TIM_OC_Start+0xc6>
 8003c08:	d806      	bhi.n	8003c18 <HAL_TIM_OC_Start+0x5c>
 8003c0a:	b161      	cbz	r1, 8003c26 <HAL_TIM_OC_Start+0x6a>
 8003c0c:	2904      	cmp	r1, #4
 8003c0e:	d035      	beq.n	8003c7c <HAL_TIM_OC_Start+0xc0>
 8003c10:	2302      	movs	r3, #2
 8003c12:	f880 3043 	strb.w	r3, [r0, #67]	@ 0x43
 8003c16:	e008      	b.n	8003c2a <HAL_TIM_OC_Start+0x6e>
 8003c18:	290c      	cmp	r1, #12
 8003c1a:	d035      	beq.n	8003c88 <HAL_TIM_OC_Start+0xcc>
 8003c1c:	2910      	cmp	r1, #16
 8003c1e:	d1f7      	bne.n	8003c10 <HAL_TIM_OC_Start+0x54>
 8003c20:	f880 3042 	strb.w	r3, [r0, #66]	@ 0x42
 8003c24:	e001      	b.n	8003c2a <HAL_TIM_OC_Start+0x6e>
 8003c26:	f880 303e 	strb.w	r3, [r0, #62]	@ 0x3e
 8003c2a:	6800      	ldr	r0, [r0, #0]
 8003c2c:	2201      	movs	r2, #1
 8003c2e:	f7ff ffb6 	bl	8003b9e <TIM_CCxChannelCmd>
 8003c32:	4b21      	ldr	r3, [pc, #132]	@ (8003cb8 <HAL_TIM_OC_Start+0xfc>)
 8003c34:	4298      	cmp	r0, r3
 8003c36:	d00f      	beq.n	8003c58 <HAL_TIM_OC_Start+0x9c>
 8003c38:	f503 6300 	add.w	r3, r3, #2048	@ 0x800
 8003c3c:	4298      	cmp	r0, r3
 8003c3e:	d00b      	beq.n	8003c58 <HAL_TIM_OC_Start+0x9c>
 8003c40:	f503 6340 	add.w	r3, r3, #3072	@ 0xc00
 8003c44:	4298      	cmp	r0, r3
 8003c46:	d007      	beq.n	8003c58 <HAL_TIM_OC_Start+0x9c>
 8003c48:	f503 6380 	add.w	r3, r3, #1024	@ 0x400
 8003c4c:	4298      	cmp	r0, r3
 8003c4e:	d003      	beq.n	8003c58 <HAL_TIM_OC_Start+0x9c>
 8003c50:	f503 6380 	add.w	r3, r3, #1024	@ 0x400
 8003c54:	4298      	cmp	r0, r3
 8003c56:	d11a      	bne.n	8003c8e <HAL_TIM_OC_Start+0xd2>
 8003c58:	6c43      	ldr	r3, [r0, #68]	@ 0x44
 8003c5a:	f443 4300 	orr.w	r3, r3, #32768	@ 0x8000
 8003c5e:	6443      	str	r3, [r0, #68]	@ 0x44
 8003c60:	4b15      	ldr	r3, [pc, #84]	@ (8003cb8 <HAL_TIM_OC_Start+0xfc>)
 8003c62:	4298      	cmp	r0, r3
 8003c64:	d003      	beq.n	8003c6e <HAL_TIM_OC_Start+0xb2>
 8003c66:	f503 6300 	add.w	r3, r3, #2048	@ 0x800
 8003c6a:	4298      	cmp	r0, r3
 8003c6c:	d11e      	bne.n	8003cac <HAL_TIM_OC_Start+0xf0>
 8003c6e:	6882      	ldr	r2, [r0, #8]
 8003c70:	4b12      	ldr	r3, [pc, #72]	@ (8003cbc <HAL_TIM_OC_Start+0x100>)
 8003c72:	4013      	ands	r3, r2
 8003c74:	2b06      	cmp	r3, #6
 8003c76:	d11b      	bne.n	8003cb0 <HAL_TIM_OC_Start+0xf4>
 8003c78:	2000      	movs	r0, #0
 8003c7a:	bd08      	pop	{r3, pc}
 8003c7c:	f880 303f 	strb.w	r3, [r0, #63]	@ 0x3f
 8003c80:	e7d3      	b.n	8003c2a <HAL_TIM_OC_Start+0x6e>
 8003c82:	f880 3040 	strb.w	r3, [r0, #64]	@ 0x40
 8003c86:	e7d0      	b.n	8003c2a <HAL_TIM_OC_Start+0x6e>
 8003c88:	f880 3041 	strb.w	r3, [r0, #65]	@ 0x41
 8003c8c:	e7cd      	b.n	8003c2a <HAL_TIM_OC_Start+0x6e>
 8003c8e:	f1b0 4f80 	cmp.w	r0, #1073741824	@ 0x40000000
 8003c92:	d0ec      	beq.n	8003c6e <HAL_TIM_OC_Start+0xb2>
 8003c94:	4b0a      	ldr	r3, [pc, #40]	@ (8003cc0 <HAL_TIM_OC_Start+0x104>)
 8003c96:	4298      	cmp	r0, r3
 8003c98:	d0e9      	beq.n	8003c6e <HAL_TIM_OC_Start+0xb2>
 8003c9a:	f503 6380 	add.w	r3, r3, #1024	@ 0x400
 8003c9e:	4298      	cmp	r0, r3
 8003ca0:	d0e5      	beq.n	8003c6e <HAL_TIM_OC_Start+0xb2>
 8003ca2:	6803      	ldr	r3, [r0, #0]
 8003ca4:	f043 0301 	orr.w	r3, r3, #1
 8003ca8:	6003      	str	r3, [r0, #0]
 8003caa:	e7e5      	b.n	8003c78 <HAL_TIM_OC_Start+0xbc>
 8003cac:	4b05      	ldr	r3, [pc, #20]	@ (8003cc4 <HAL_TIM_OC_Start+0x108>)
 8003cae:	e7f6      	b.n	8003c9e <HAL_TIM_OC_Start+0xe2>
 8003cb0:	f5b3 3f80 	cmp.w	r3, #65536	@ 0x10000
 8003cb4:	d1f5      	bne.n	8003ca2 <HAL_TIM_OC_Start+0xe6>
 8003cb6:	e7df      	b.n	8003c78 <HAL_TIM_OC_Start+0xbc>
 8003cb8:	40012c00 	.word	0x40012c00
 8003cbc:	00010007 	.word	0x00010007
 8003cc0:	40000400 	.word	0x40000400
 8003cc4:	40014000 	.word	0x40014000

08003cc8 <HAL_TIM_IC_Start>:
 8003cc8:	2908      	cmp	r1, #8
 8003cca:	b508      	push	{r3, lr}
 8003ccc:	4603      	mov	r3, r0
 8003cce:	d029      	beq.n	8003d24 <HAL_TIM_IC_Start+0x5c>
 8003cd0:	d805      	bhi.n	8003cde <HAL_TIM_IC_Start+0x16>
 8003cd2:	b159      	cbz	r1, 8003cec <HAL_TIM_IC_Start+0x24>
 8003cd4:	2904      	cmp	r1, #4
 8003cd6:	d01f      	beq.n	8003d18 <HAL_TIM_IC_Start+0x50>
 8003cd8:	f893 0043 	ldrb.w	r0, [r3, #67]	@ 0x43
 8003cdc:	e02a      	b.n	8003d34 <HAL_TIM_IC_Start+0x6c>
 8003cde:	290c      	cmp	r1, #12
 8003ce0:	d026      	beq.n	8003d30 <HAL_TIM_IC_Start+0x68>
 8003ce2:	2910      	cmp	r1, #16
 8003ce4:	d1f8      	bne.n	8003cd8 <HAL_TIM_IC_Start+0x10>
 8003ce6:	f890 0042 	ldrb.w	r0, [r0, #66]	@ 0x42
 8003cea:	e023      	b.n	8003d34 <HAL_TIM_IC_Start+0x6c>
 8003cec:	f890 003e 	ldrb.w	r0, [r0, #62]	@ 0x3e
 8003cf0:	f893 2044 	ldrb.w	r2, [r3, #68]	@ 0x44
 8003cf4:	b2c0      	uxtb	r0, r0
 8003cf6:	2801      	cmp	r0, #1
 8003cf8:	b2d2      	uxtb	r2, r2
 8003cfa:	d162      	bne.n	8003dc2 <HAL_TIM_IC_Start+0xfa>
 8003cfc:	2a01      	cmp	r2, #1
 8003cfe:	d14f      	bne.n	8003da0 <HAL_TIM_IC_Start+0xd8>
 8003d00:	2908      	cmp	r1, #8
 8003d02:	f04f 0202 	mov.w	r2, #2
 8003d06:	d051      	beq.n	8003dac <HAL_TIM_IC_Start+0xe4>
 8003d08:	d818      	bhi.n	8003d3c <HAL_TIM_IC_Start+0x74>
 8003d0a:	b1f1      	cbz	r1, 8003d4a <HAL_TIM_IC_Start+0x82>
 8003d0c:	2904      	cmp	r1, #4
 8003d0e:	d048      	beq.n	8003da2 <HAL_TIM_IC_Start+0xda>
 8003d10:	2202      	movs	r2, #2
 8003d12:	f883 2043 	strb.w	r2, [r3, #67]	@ 0x43
 8003d16:	e050      	b.n	8003dba <HAL_TIM_IC_Start+0xf2>
 8003d18:	f890 003f 	ldrb.w	r0, [r0, #63]	@ 0x3f
 8003d1c:	f893 2045 	ldrb.w	r2, [r3, #69]	@ 0x45
 8003d20:	b2c0      	uxtb	r0, r0
 8003d22:	e7e8      	b.n	8003cf6 <HAL_TIM_IC_Start+0x2e>
 8003d24:	f890 0040 	ldrb.w	r0, [r0, #64]	@ 0x40
 8003d28:	f893 2046 	ldrb.w	r2, [r3, #70]	@ 0x46
 8003d2c:	b2c0      	uxtb	r0, r0
 8003d2e:	e7e2      	b.n	8003cf6 <HAL_TIM_IC_Start+0x2e>
 8003d30:	f890 0041 	ldrb.w	r0, [r0, #65]	@ 0x41
 8003d34:	f893 2047 	ldrb.w	r2, [r3, #71]	@ 0x47
 8003d38:	b2c0      	uxtb	r0, r0
 8003d3a:	e7dc      	b.n	8003cf6 <HAL_TIM_IC_Start+0x2e>
 8003d3c:	290c      	cmp	r1, #12
 8003d3e:	d03a      	beq.n	8003db6 <HAL_TIM_IC_Start+0xee>
 8003d40:	2910      	cmp	r1, #16
 8003d42:	d1e5      	bne.n	8003d10 <HAL_TIM_IC_Start+0x48>
 8003d44:	f883 2042 	strb.w	r2, [r3, #66]	@ 0x42
 8003d48:	e037      	b.n	8003dba <HAL_TIM_IC_Start+0xf2>
 8003d4a:	f883 203e 	strb.w	r2, [r3, #62]	@ 0x3e
 8003d4e:	f883 2044 	strb.w	r2, [r3, #68]	@ 0x44
 8003d52:	6818      	ldr	r0, [r3, #0]
 8003d54:	2201      	movs	r2, #1
 8003d56:	f7ff ff22 	bl	8003b9e <TIM_CCxChannelCmd>
 8003d5a:	4b1b      	ldr	r3, [pc, #108]	@ (8003dc8 <HAL_TIM_IC_Start+0x100>)
 8003d5c:	4298      	cmp	r0, r3
 8003d5e:	d012      	beq.n	8003d86 <HAL_TIM_IC_Start+0xbe>
 8003d60:	f1b0 4f80 	cmp.w	r0, #1073741824	@ 0x40000000
 8003d64:	d00f      	beq.n	8003d86 <HAL_TIM_IC_Start+0xbe>
 8003d66:	f5a3 3394 	sub.w	r3, r3, #75776	@ 0x12800
 8003d6a:	4298      	cmp	r0, r3
 8003d6c:	d00b      	beq.n	8003d86 <HAL_TIM_IC_Start+0xbe>
 8003d6e:	f503 6380 	add.w	r3, r3, #1024	@ 0x400
 8003d72:	4298      	cmp	r0, r3
 8003d74:	d007      	beq.n	8003d86 <HAL_TIM_IC_Start+0xbe>
 8003d76:	f503 3396 	add.w	r3, r3, #76800	@ 0x12c00
 8003d7a:	4298      	cmp	r0, r3
 8003d7c:	d003      	beq.n	8003d86 <HAL_TIM_IC_Start+0xbe>
 8003d7e:	f503 6340 	add.w	r3, r3, #3072	@ 0xc00
 8003d82:	4298      	cmp	r0, r3
 8003d84:	d107      	bne.n	8003d96 <HAL_TIM_IC_Start+0xce>
 8003d86:	6882      	ldr	r2, [r0, #8]
 8003d88:	4b10      	ldr	r3, [pc, #64]	@ (8003dcc <HAL_TIM_IC_Start+0x104>)
 8003d8a:	4013      	ands	r3, r2
 8003d8c:	2b06      	cmp	r3, #6
 8003d8e:	d006      	beq.n	8003d9e <HAL_TIM_IC_Start+0xd6>
 8003d90:	f5b3 3f80 	cmp.w	r3, #65536	@ 0x10000
 8003d94:	d003      	beq.n	8003d9e <HAL_TIM_IC_Start+0xd6>
 8003d96:	6803      	ldr	r3, [r0, #0]
 8003d98:	f043 0301 	orr.w	r3, r3, #1
 8003d9c:	6003      	str	r3, [r0, #0]
 8003d9e:	2000      	movs	r0, #0
 8003da0:	bd08      	pop	{r3, pc}
 8003da2:	f883 203f 	strb.w	r2, [r3, #63]	@ 0x3f
 8003da6:	f883 2045 	strb.w	r2, [r3, #69]	@ 0x45
 8003daa:	e7d2      	b.n	8003d52 <HAL_TIM_IC_Start+0x8a>
 8003dac:	f883 2040 	strb.w	r2, [r3, #64]	@ 0x40
 8003db0:	f883 2046 	strb.w	r2, [r3, #70]	@ 0x46
 8003db4:	e7cd      	b.n	8003d52 <HAL_TIM_IC_Start+0x8a>
 8003db6:	f883 2041 	strb.w	r2, [r3, #65]	@ 0x41
 8003dba:	2202      	movs	r2, #2
 8003dbc:	f883 2047 	strb.w	r2, [r3, #71]	@ 0x47
 8003dc0:	e7c7      	b.n	8003d52 <HAL_TIM_IC_Start+0x8a>
 8003dc2:	2001      	movs	r0, #1
 8003dc4:	e7ec      	b.n	8003da0 <HAL_TIM_IC_Start+0xd8>
 8003dc6:	bf00      	nop
 8003dc8:	40012c00 	.word	0x40012c00
 8003dcc:	00010007 	.word	0x00010007

08003dd0 <HAL_TIMEx_MasterConfigSynchronization>:
 8003dd0:	b570      	push	{r4, r5, r6, lr}
 8003dd2:	f890 303c 	ldrb.w	r3, [r0, #60]	@ 0x3c
 8003dd6:	2b01      	cmp	r3, #1
 8003dd8:	4604      	mov	r4, r0
 8003dda:	f04f 0002 	mov.w	r0, #2
 8003dde:	d032      	beq.n	8003e46 <HAL_TIMEx_MasterConfigSynchronization+0x76>
 8003de0:	6823      	ldr	r3, [r4, #0]
 8003de2:	4d19      	ldr	r5, [pc, #100]	@ (8003e48 <HAL_TIMEx_MasterConfigSynchronization+0x78>)
 8003de4:	f884 003d 	strb.w	r0, [r4, #61]	@ 0x3d
 8003de8:	42ab      	cmp	r3, r5
 8003dea:	685a      	ldr	r2, [r3, #4]
 8003dec:	6898      	ldr	r0, [r3, #8]
 8003dee:	d002      	beq.n	8003df6 <HAL_TIMEx_MasterConfigSynchronization+0x26>
 8003df0:	4e16      	ldr	r6, [pc, #88]	@ (8003e4c <HAL_TIMEx_MasterConfigSynchronization+0x7c>)
 8003df2:	42b3      	cmp	r3, r6
 8003df4:	d103      	bne.n	8003dfe <HAL_TIMEx_MasterConfigSynchronization+0x2e>
 8003df6:	684e      	ldr	r6, [r1, #4]
 8003df8:	f422 0270 	bic.w	r2, r2, #15728640	@ 0xf00000
 8003dfc:	4332      	orrs	r2, r6
 8003dfe:	680e      	ldr	r6, [r1, #0]
 8003e00:	f022 0270 	bic.w	r2, r2, #112	@ 0x70
 8003e04:	4332      	orrs	r2, r6
 8003e06:	42ab      	cmp	r3, r5
 8003e08:	605a      	str	r2, [r3, #4]
 8003e0a:	d011      	beq.n	8003e30 <HAL_TIMEx_MasterConfigSynchronization+0x60>
 8003e0c:	f1b3 4f80 	cmp.w	r3, #1073741824	@ 0x40000000
 8003e10:	d00e      	beq.n	8003e30 <HAL_TIMEx_MasterConfigSynchronization+0x60>
 8003e12:	4a0f      	ldr	r2, [pc, #60]	@ (8003e50 <HAL_TIMEx_MasterConfigSynchronization+0x80>)
 8003e14:	4293      	cmp	r3, r2
 8003e16:	d00b      	beq.n	8003e30 <HAL_TIMEx_MasterConfigSynchronization+0x60>
 8003e18:	f502 6280 	add.w	r2, r2, #1024	@ 0x400
 8003e1c:	4293      	cmp	r3, r2
 8003e1e:	d007      	beq.n	8003e30 <HAL_TIMEx_MasterConfigSynchronization+0x60>
 8003e20:	f502 3296 	add.w	r2, r2, #76800	@ 0x12c00
 8003e24:	4293      	cmp	r3, r2
 8003e26:	d003      	beq.n	8003e30 <HAL_TIMEx_MasterConfigSynchronization+0x60>
 8003e28:	f502 6240 	add.w	r2, r2, #3072	@ 0xc00
 8003e2c:	4293      	cmp	r3, r2
 8003e2e:	d104      	bne.n	8003e3a <HAL_TIMEx_MasterConfigSynchronization+0x6a>
 8003e30:	6889      	ldr	r1, [r1, #8]
 8003e32:	f020 0280 	bic.w	r2, r0, #128	@ 0x80
 8003e36:	430a      	orrs	r2, r1
 8003e38:	609a      	str	r2, [r3, #8]
 8003e3a:	2301      	movs	r3, #1
 8003e3c:	2000      	movs	r0, #0
 8003e3e:	f884 303d 	strb.w	r3, [r4, #61]	@ 0x3d
 8003e42:	f884 003c 	strb.w	r0, [r4, #60]	@ 0x3c
 8003e46:	bd70      	pop	{r4, r5, r6, pc}
 8003e48:	40012c00 	.word	0x40012c00
 8003e4c:	40013400 	.word	0x40013400
 8003e50:	40000400 	.word	0x40000400

08003e54 <HAL_TIMEx_CommutCallback>:
 8003e54:	4770      	bx	lr

08003e56 <HAL_TIMEx_BreakCallback>:
 8003e56:	4770      	bx	lr

08003e58 <HAL_TIMEx_Break2Callback>:
 8003e58:	4770      	bx	lr

08003e5a <USB_DisableGlobalInt>:
 8003e5a:	f8b0 3040 	ldrh.w	r3, [r0, #64]	@ 0x40
 8003e5e:	f423 537c 	bic.w	r3, r3, #16128	@ 0x3f00
 8003e62:	045b      	lsls	r3, r3, #17
 8003e64:	0c5b      	lsrs	r3, r3, #17
 8003e66:	f8a0 3040 	strh.w	r3, [r0, #64]	@ 0x40
 8003e6a:	2000      	movs	r0, #0
 8003e6c:	4770      	bx	lr

08003e6e <USB_DevInit>:
 8003e6e:	b082      	sub	sp, #8
 8003e70:	4603      	mov	r3, r0
 8003e72:	a802      	add	r0, sp, #8
 8003e74:	e900 0006 	stmdb	r0, {r1, r2}
 8003e78:	2000      	movs	r0, #0
 8003e7a:	2201      	movs	r2, #1
 8003e7c:	f8a3 2040 	strh.w	r2, [r3, #64]	@ 0x40
 8003e80:	f8a3 0040 	strh.w	r0, [r3, #64]	@ 0x40
 8003e84:	f8a3 0044 	strh.w	r0, [r3, #68]	@ 0x44
 8003e88:	f8a3 0050 	strh.w	r0, [r3, #80]	@ 0x50
 8003e8c:	b002      	add	sp, #8
 8003e8e:	4770      	bx	lr

08003e90 <osKernelInitialize>:
 8003e90:	f3ef 8305 	mrs	r3, IPSR
 8003e94:	b113      	cbz	r3, 8003e9c <osKernelInitialize+0xc>
 8003e96:	f06f 0005 	mvn.w	r0, #5
 8003e9a:	4770      	bx	lr
 8003e9c:	f3ef 8310 	mrs	r3, PRIMASK
 8003ea0:	2b00      	cmp	r3, #0
 8003ea2:	d1f8      	bne.n	8003e96 <osKernelInitialize+0x6>
 8003ea4:	4b07      	ldr	r3, [pc, #28]	@ (8003ec4 <osKernelInitialize+0x34>)
 8003ea6:	6818      	ldr	r0, [r3, #0]
 8003ea8:	2802      	cmp	r0, #2
 8003eaa:	d106      	bne.n	8003eba <osKernelInitialize+0x2a>
 8003eac:	f3ef 8311 	mrs	r3, BASEPRI
 8003eb0:	2b00      	cmp	r3, #0
 8003eb2:	d1f0      	bne.n	8003e96 <osKernelInitialize+0x6>
 8003eb4:	f04f 30ff 	mov.w	r0, #4294967295	@ 0xffffffff
 8003eb8:	4770      	bx	lr
 8003eba:	2800      	cmp	r0, #0
 8003ebc:	d1fa      	bne.n	8003eb4 <osKernelInitialize+0x24>
 8003ebe:	2201      	movs	r2, #1
 8003ec0:	601a      	str	r2, [r3, #0]
 8003ec2:	4770      	bx	lr
 8003ec4:	20002140 	.word	0x20002140

08003ec8 <osKernelStart>:
 8003ec8:	b510      	push	{r4, lr}
 8003eca:	f3ef 8305 	mrs	r3, IPSR
 8003ece:	b113      	cbz	r3, 8003ed6 <osKernelStart+0xe>
 8003ed0:	f06f 0005 	mvn.w	r0, #5
 8003ed4:	bd10      	pop	{r4, pc}
 8003ed6:	f3ef 8410 	mrs	r4, PRIMASK
 8003eda:	2c00      	cmp	r4, #0
 8003edc:	d1f8      	bne.n	8003ed0 <osKernelStart+0x8>
 8003ede:	4b09      	ldr	r3, [pc, #36]	@ (8003f04 <osKernelStart+0x3c>)
 8003ee0:	681a      	ldr	r2, [r3, #0]
 8003ee2:	2a02      	cmp	r2, #2
 8003ee4:	d106      	bne.n	8003ef4 <osKernelStart+0x2c>
 8003ee6:	f3ef 8311 	mrs	r3, BASEPRI
 8003eea:	2b00      	cmp	r3, #0
 8003eec:	d1f0      	bne.n	8003ed0 <osKernelStart+0x8>
 8003eee:	f04f 30ff 	mov.w	r0, #4294967295	@ 0xffffffff
 8003ef2:	e7ef      	b.n	8003ed4 <osKernelStart+0xc>
 8003ef4:	2a01      	cmp	r2, #1
 8003ef6:	d1fa      	bne.n	8003eee <osKernelStart+0x26>
 8003ef8:	2202      	movs	r2, #2
 8003efa:	601a      	str	r2, [r3, #0]
 8003efc:	f000 fd86 	bl	8004a0c <vTaskStartScheduler>
 8003f00:	4620      	mov	r0, r4
 8003f02:	e7e7      	b.n	8003ed4 <osKernelStart+0xc>
 8003f04:	20002140 	.word	0x20002140

08003f08 <osThreadNew>:
 8003f08:	b5f0      	push	{r4, r5, r6, r7, lr}
 8003f0a:	b087      	sub	sp, #28
 8003f0c:	4614      	mov	r4, r2
 8003f0e:	2200      	movs	r2, #0
 8003f10:	460b      	mov	r3, r1
 8003f12:	9205      	str	r2, [sp, #20]
 8003f14:	f3ef 8205 	mrs	r2, IPSR
 8003f18:	bb82      	cbnz	r2, 8003f7c <osThreadNew+0x74>
 8003f1a:	f3ef 8210 	mrs	r2, PRIMASK
 8003f1e:	bb6a      	cbnz	r2, 8003f7c <osThreadNew+0x74>
 8003f20:	4a24      	ldr	r2, [pc, #144]	@ (8003fb4 <osThreadNew+0xac>)
 8003f22:	6812      	ldr	r2, [r2, #0]
 8003f24:	2a02      	cmp	r2, #2
 8003f26:	d102      	bne.n	8003f2e <osThreadNew+0x26>
 8003f28:	f3ef 8211 	mrs	r2, BASEPRI
 8003f2c:	bb32      	cbnz	r2, 8003f7c <osThreadNew+0x74>
 8003f2e:	b328      	cbz	r0, 8003f7c <osThreadNew+0x74>
 8003f30:	2200      	movs	r2, #0
 8003f32:	f88d 2013 	strb.w	r2, [sp, #19]
 8003f36:	2c00      	cmp	r4, #0
 8003f38:	d036      	beq.n	8003fa8 <osThreadNew+0xa0>
 8003f3a:	6821      	ldr	r1, [r4, #0]
 8003f3c:	b909      	cbnz	r1, 8003f42 <osThreadNew+0x3a>
 8003f3e:	f10d 0113 	add.w	r1, sp, #19
 8003f42:	69a5      	ldr	r5, [r4, #24]
 8003f44:	b125      	cbz	r5, 8003f50 <osThreadNew+0x48>
 8003f46:	1e6a      	subs	r2, r5, #1
 8003f48:	2a37      	cmp	r2, #55	@ 0x37
 8003f4a:	d902      	bls.n	8003f52 <osThreadNew+0x4a>
 8003f4c:	2000      	movs	r0, #0
 8003f4e:	e016      	b.n	8003f7e <osThreadNew+0x76>
 8003f50:	2518      	movs	r5, #24
 8003f52:	6862      	ldr	r2, [r4, #4]
 8003f54:	07d2      	lsls	r2, r2, #31
 8003f56:	d4f9      	bmi.n	8003f4c <osThreadNew+0x44>
 8003f58:	6966      	ldr	r6, [r4, #20]
 8003f5a:	b196      	cbz	r6, 8003f82 <osThreadNew+0x7a>
 8003f5c:	08b2      	lsrs	r2, r6, #2
 8003f5e:	e9d4 7c02 	ldrd	r7, ip, [r4, #8]
 8003f62:	b187      	cbz	r7, 8003f86 <osThreadNew+0x7e>
 8003f64:	f1bc 0f5b 	cmp.w	ip, #91	@ 0x5b
 8003f68:	d908      	bls.n	8003f7c <osThreadNew+0x74>
 8003f6a:	6924      	ldr	r4, [r4, #16]
 8003f6c:	b134      	cbz	r4, 8003f7c <osThreadNew+0x74>
 8003f6e:	b12e      	cbz	r6, 8003f7c <osThreadNew+0x74>
 8003f70:	e9cd 4701 	strd	r4, r7, [sp, #4]
 8003f74:	9500      	str	r5, [sp, #0]
 8003f76:	f000 fce4 	bl	8004942 <xTaskCreateStatic>
 8003f7a:	9005      	str	r0, [sp, #20]
 8003f7c:	9805      	ldr	r0, [sp, #20]
 8003f7e:	b007      	add	sp, #28
 8003f80:	bdf0      	pop	{r4, r5, r6, r7, pc}
 8003f82:	2280      	movs	r2, #128	@ 0x80
 8003f84:	e7eb      	b.n	8003f5e <osThreadNew+0x56>
 8003f86:	f1bc 0f00 	cmp.w	ip, #0
 8003f8a:	d1f7      	bne.n	8003f7c <osThreadNew+0x74>
 8003f8c:	6924      	ldr	r4, [r4, #16]
 8003f8e:	2c00      	cmp	r4, #0
 8003f90:	d1f4      	bne.n	8003f7c <osThreadNew+0x74>
 8003f92:	ac05      	add	r4, sp, #20
 8003f94:	e9cd 5400 	strd	r5, r4, [sp]
 8003f98:	b292      	uxth	r2, r2
 8003f9a:	f000 fd09 	bl	80049b0 <xTaskCreate>
 8003f9e:	2801      	cmp	r0, #1
 8003fa0:	bf1c      	itt	ne
 8003fa2:	2300      	movne	r3, #0
 8003fa4:	9305      	strne	r3, [sp, #20]
 8003fa6:	e7e9      	b.n	8003f7c <osThreadNew+0x74>
 8003fa8:	2518      	movs	r5, #24
 8003faa:	2280      	movs	r2, #128	@ 0x80
 8003fac:	f10d 0113 	add.w	r1, sp, #19
 8003fb0:	e7ef      	b.n	8003f92 <osThreadNew+0x8a>
 8003fb2:	bf00      	nop
 8003fb4:	20002140 	.word	0x20002140

08003fb8 <osDelay>:
 8003fb8:	b508      	push	{r3, lr}
 8003fba:	f3ef 8305 	mrs	r3, IPSR
 8003fbe:	b113      	cbz	r3, 8003fc6 <osDelay+0xe>
 8003fc0:	f06f 0005 	mvn.w	r0, #5
 8003fc4:	bd08      	pop	{r3, pc}
 8003fc6:	f3ef 8310 	mrs	r3, PRIMASK
 8003fca:	2b00      	cmp	r3, #0
 8003fcc:	d1f8      	bne.n	8003fc0 <osDelay+0x8>
 8003fce:	4b06      	ldr	r3, [pc, #24]	@ (8003fe8 <osDelay+0x30>)
 8003fd0:	681b      	ldr	r3, [r3, #0]
 8003fd2:	2b02      	cmp	r3, #2
 8003fd4:	d103      	bne.n	8003fde <osDelay+0x26>
 8003fd6:	f3ef 8311 	mrs	r3, BASEPRI
 8003fda:	2b00      	cmp	r3, #0
 8003fdc:	d1f0      	bne.n	8003fc0 <osDelay+0x8>
 8003fde:	b108      	cbz	r0, 8003fe4 <osDelay+0x2c>
 8003fe0:	f000 fe72 	bl	8004cc8 <vTaskDelay>
 8003fe4:	2000      	movs	r0, #0
 8003fe6:	e7ed      	b.n	8003fc4 <osDelay+0xc>
 8003fe8:	20002140 	.word	0x20002140

08003fec <vApplicationGetIdleTaskMemory>:
 8003fec:	4b03      	ldr	r3, [pc, #12]	@ (8003ffc <vApplicationGetIdleTaskMemory+0x10>)
 8003fee:	6003      	str	r3, [r0, #0]
 8003ff0:	4b03      	ldr	r3, [pc, #12]	@ (8004000 <vApplicationGetIdleTaskMemory+0x14>)
 8003ff2:	600b      	str	r3, [r1, #0]
 8003ff4:	2380      	movs	r3, #128	@ 0x80
 8003ff6:	6013      	str	r3, [r2, #0]
 8003ff8:	4770      	bx	lr
 8003ffa:	bf00      	nop
 8003ffc:	200020e4 	.word	0x200020e4
 8004000:	20001ee4 	.word	0x20001ee4

08004004 <vApplicationGetTimerTaskMemory>:
 8004004:	4b03      	ldr	r3, [pc, #12]	@ (8004014 <vApplicationGetTimerTaskMemory+0x10>)
 8004006:	6003      	str	r3, [r0, #0]
 8004008:	4b03      	ldr	r3, [pc, #12]	@ (8004018 <vApplicationGetTimerTaskMemory+0x14>)
 800400a:	600b      	str	r3, [r1, #0]
 800400c:	f44f 7380 	mov.w	r3, #256	@ 0x100
 8004010:	6013      	str	r3, [r2, #0]
 8004012:	4770      	bx	lr
 8004014:	20001e88 	.word	0x20001e88
 8004018:	20001a88 	.word	0x20001a88

0800401c <vListInitialise>:
 800401c:	f100 0308 	add.w	r3, r0, #8
 8004020:	f04f 32ff 	mov.w	r2, #4294967295	@ 0xffffffff
 8004024:	e9c0 2302 	strd	r2, r3, [r0, #8]
 8004028:	6043      	str	r3, [r0, #4]
 800402a:	6103      	str	r3, [r0, #16]
 800402c:	2300      	movs	r3, #0
 800402e:	6003      	str	r3, [r0, #0]
 8004030:	4770      	bx	lr

08004032 <vListInitialiseItem>:
 8004032:	2300      	movs	r3, #0
 8004034:	6103      	str	r3, [r0, #16]
 8004036:	4770      	bx	lr

08004038 <vListInsertEnd>:
 8004038:	6843      	ldr	r3, [r0, #4]
 800403a:	604b      	str	r3, [r1, #4]
 800403c:	689a      	ldr	r2, [r3, #8]
 800403e:	608a      	str	r2, [r1, #8]
 8004040:	6051      	str	r1, [r2, #4]
 8004042:	6099      	str	r1, [r3, #8]
 8004044:	6803      	ldr	r3, [r0, #0]
 8004046:	6108      	str	r0, [r1, #16]
 8004048:	3301      	adds	r3, #1
 800404a:	6003      	str	r3, [r0, #0]
 800404c:	4770      	bx	lr

0800404e <vListInsert>:
 800404e:	b530      	push	{r4, r5, lr}
 8004050:	680c      	ldr	r4, [r1, #0]
 8004052:	1c63      	adds	r3, r4, #1
 8004054:	d10a      	bne.n	800406c <vListInsert+0x1e>
 8004056:	6903      	ldr	r3, [r0, #16]
 8004058:	685a      	ldr	r2, [r3, #4]
 800405a:	604a      	str	r2, [r1, #4]
 800405c:	6091      	str	r1, [r2, #8]
 800405e:	608b      	str	r3, [r1, #8]
 8004060:	6059      	str	r1, [r3, #4]
 8004062:	6803      	ldr	r3, [r0, #0]
 8004064:	6108      	str	r0, [r1, #16]
 8004066:	3301      	adds	r3, #1
 8004068:	6003      	str	r3, [r0, #0]
 800406a:	bd30      	pop	{r4, r5, pc}
 800406c:	f100 0208 	add.w	r2, r0, #8
 8004070:	4613      	mov	r3, r2
 8004072:	6852      	ldr	r2, [r2, #4]
 8004074:	6815      	ldr	r5, [r2, #0]
 8004076:	42a5      	cmp	r5, r4
 8004078:	d9fa      	bls.n	8004070 <vListInsert+0x22>
 800407a:	e7ed      	b.n	8004058 <vListInsert+0xa>

0800407c <uxListRemove>:
 800407c:	e9d0 1201 	ldrd	r1, r2, [r0, #4]
 8004080:	6903      	ldr	r3, [r0, #16]
 8004082:	608a      	str	r2, [r1, #8]
 8004084:	6051      	str	r1, [r2, #4]
 8004086:	6859      	ldr	r1, [r3, #4]
 8004088:	4281      	cmp	r1, r0
 800408a:	bf08      	it	eq
 800408c:	605a      	streq	r2, [r3, #4]
 800408e:	2200      	movs	r2, #0
 8004090:	6102      	str	r2, [r0, #16]
 8004092:	681a      	ldr	r2, [r3, #0]
 8004094:	3a01      	subs	r2, #1
 8004096:	601a      	str	r2, [r3, #0]
 8004098:	6818      	ldr	r0, [r3, #0]
 800409a:	4770      	bx	lr

0800409c <prvIsQueueEmpty>:
 800409c:	b510      	push	{r4, lr}
 800409e:	4604      	mov	r4, r0
 80040a0:	f001 fad0 	bl	8005644 <vPortEnterCritical>
 80040a4:	6ba4      	ldr	r4, [r4, #56]	@ 0x38
 80040a6:	f001 faed 	bl	8005684 <vPortExitCritical>
 80040aa:	fab4 f084 	clz	r0, r4
 80040ae:	0940      	lsrs	r0, r0, #5
 80040b0:	bd10      	pop	{r4, pc}

080040b2 <prvCopyDataToQueue>:
 80040b2:	b570      	push	{r4, r5, r6, lr}
 80040b4:	4616      	mov	r6, r2
 80040b6:	6c02      	ldr	r2, [r0, #64]	@ 0x40
 80040b8:	6b85      	ldr	r5, [r0, #56]	@ 0x38
 80040ba:	4604      	mov	r4, r0
 80040bc:	b942      	cbnz	r2, 80040d0 <prvCopyDataToQueue+0x1e>
 80040be:	6806      	ldr	r6, [r0, #0]
 80040c0:	b99e      	cbnz	r6, 80040ea <prvCopyDataToQueue+0x38>
 80040c2:	6840      	ldr	r0, [r0, #4]
 80040c4:	f000 ff3a 	bl	8004f3c <xTaskPriorityDisinherit>
 80040c8:	6066      	str	r6, [r4, #4]
 80040ca:	3501      	adds	r5, #1
 80040cc:	63a5      	str	r5, [r4, #56]	@ 0x38
 80040ce:	bd70      	pop	{r4, r5, r6, pc}
 80040d0:	b96e      	cbnz	r6, 80040ee <prvCopyDataToQueue+0x3c>
 80040d2:	6880      	ldr	r0, [r0, #8]
 80040d4:	f001 fd12 	bl	8005afc <memcpy>
 80040d8:	68a3      	ldr	r3, [r4, #8]
 80040da:	6c22      	ldr	r2, [r4, #64]	@ 0x40
 80040dc:	4413      	add	r3, r2
 80040de:	6862      	ldr	r2, [r4, #4]
 80040e0:	60a3      	str	r3, [r4, #8]
 80040e2:	4293      	cmp	r3, r2
 80040e4:	bf24      	itt	cs
 80040e6:	6823      	ldrcs	r3, [r4, #0]
 80040e8:	60a3      	strcs	r3, [r4, #8]
 80040ea:	2000      	movs	r0, #0
 80040ec:	e7ed      	b.n	80040ca <prvCopyDataToQueue+0x18>
 80040ee:	68c0      	ldr	r0, [r0, #12]
 80040f0:	f001 fd04 	bl	8005afc <memcpy>
 80040f4:	6c22      	ldr	r2, [r4, #64]	@ 0x40
 80040f6:	68e3      	ldr	r3, [r4, #12]
 80040f8:	4251      	negs	r1, r2
 80040fa:	1a9b      	subs	r3, r3, r2
 80040fc:	6822      	ldr	r2, [r4, #0]
 80040fe:	60e3      	str	r3, [r4, #12]
 8004100:	4293      	cmp	r3, r2
 8004102:	bf3e      	ittt	cc
 8004104:	6863      	ldrcc	r3, [r4, #4]
 8004106:	185b      	addcc	r3, r3, r1
 8004108:	60e3      	strcc	r3, [r4, #12]
 800410a:	2e02      	cmp	r6, #2
 800410c:	d1ed      	bne.n	80040ea <prvCopyDataToQueue+0x38>
 800410e:	b10d      	cbz	r5, 8004114 <prvCopyDataToQueue+0x62>
 8004110:	3d01      	subs	r5, #1
 8004112:	e7ea      	b.n	80040ea <prvCopyDataToQueue+0x38>
 8004114:	4628      	mov	r0, r5
 8004116:	e7d8      	b.n	80040ca <prvCopyDataToQueue+0x18>

08004118 <prvCopyDataFromQueue>:
 8004118:	4603      	mov	r3, r0
 800411a:	b410      	push	{r4}
 800411c:	6c1a      	ldr	r2, [r3, #64]	@ 0x40
 800411e:	4608      	mov	r0, r1
 8004120:	b16a      	cbz	r2, 800413e <prvCopyDataFromQueue+0x26>
 8004122:	68dc      	ldr	r4, [r3, #12]
 8004124:	6859      	ldr	r1, [r3, #4]
 8004126:	4414      	add	r4, r2
 8004128:	428c      	cmp	r4, r1
 800412a:	bf28      	it	cs
 800412c:	6819      	ldrcs	r1, [r3, #0]
 800412e:	60dc      	str	r4, [r3, #12]
 8004130:	bf28      	it	cs
 8004132:	60d9      	strcs	r1, [r3, #12]
 8004134:	68d9      	ldr	r1, [r3, #12]
 8004136:	f85d 4b04 	ldr.w	r4, [sp], #4
 800413a:	f001 bcdf 	b.w	8005afc <memcpy>
 800413e:	f85d 4b04 	ldr.w	r4, [sp], #4
 8004142:	4770      	bx	lr

08004144 <prvUnlockQueue>:
 8004144:	b570      	push	{r4, r5, r6, lr}
 8004146:	4604      	mov	r4, r0
 8004148:	f001 fa7c 	bl	8005644 <vPortEnterCritical>
 800414c:	f894 5045 	ldrb.w	r5, [r4, #69]	@ 0x45
 8004150:	f104 0624 	add.w	r6, r4, #36	@ 0x24
 8004154:	b26d      	sxtb	r5, r5
 8004156:	2d00      	cmp	r5, #0
 8004158:	dd01      	ble.n	800415e <prvUnlockQueue+0x1a>
 800415a:	6a63      	ldr	r3, [r4, #36]	@ 0x24
 800415c:	b9b3      	cbnz	r3, 800418c <prvUnlockQueue+0x48>
 800415e:	23ff      	movs	r3, #255	@ 0xff
 8004160:	f884 3045 	strb.w	r3, [r4, #69]	@ 0x45
 8004164:	f001 fa8e 	bl	8005684 <vPortExitCritical>
 8004168:	f001 fa6c 	bl	8005644 <vPortEnterCritical>
 800416c:	f894 5044 	ldrb.w	r5, [r4, #68]	@ 0x44
 8004170:	f104 0610 	add.w	r6, r4, #16
 8004174:	b26d      	sxtb	r5, r5
 8004176:	2d00      	cmp	r5, #0
 8004178:	dd01      	ble.n	800417e <prvUnlockQueue+0x3a>
 800417a:	6923      	ldr	r3, [r4, #16]
 800417c:	b97b      	cbnz	r3, 800419e <prvUnlockQueue+0x5a>
 800417e:	23ff      	movs	r3, #255	@ 0xff
 8004180:	f884 3044 	strb.w	r3, [r4, #68]	@ 0x44
 8004184:	e8bd 4070 	ldmia.w	sp!, {r4, r5, r6, lr}
 8004188:	f001 ba7c 	b.w	8005684 <vPortExitCritical>
 800418c:	4630      	mov	r0, r6
 800418e:	f000 fe31 	bl	8004df4 <xTaskRemoveFromEventList>
 8004192:	b108      	cbz	r0, 8004198 <prvUnlockQueue+0x54>
 8004194:	f000 feb6 	bl	8004f04 <vTaskMissedYield>
 8004198:	3d01      	subs	r5, #1
 800419a:	b26d      	sxtb	r5, r5
 800419c:	e7db      	b.n	8004156 <prvUnlockQueue+0x12>
 800419e:	4630      	mov	r0, r6
 80041a0:	f000 fe28 	bl	8004df4 <xTaskRemoveFromEventList>
 80041a4:	b108      	cbz	r0, 80041aa <prvUnlockQueue+0x66>
 80041a6:	f000 fead 	bl	8004f04 <vTaskMissedYield>
 80041aa:	3d01      	subs	r5, #1
 80041ac:	b26d      	sxtb	r5, r5
 80041ae:	e7e2      	b.n	8004176 <prvUnlockQueue+0x32>

080041b0 <xQueueGenericReset>:
 80041b0:	b538      	push	{r3, r4, r5, lr}
 80041b2:	460d      	mov	r5, r1
 80041b4:	4604      	mov	r4, r0
 80041b6:	b940      	cbnz	r0, 80041ca <xQueueGenericReset+0x1a>
 80041b8:	f04f 0350 	mov.w	r3, #80	@ 0x50
 80041bc:	f383 8811 	msr	BASEPRI, r3
 80041c0:	f3bf 8f6f 	isb	sy
 80041c4:	f3bf 8f4f 	dsb	sy
 80041c8:	e7fe      	b.n	80041c8 <xQueueGenericReset+0x18>
 80041ca:	f001 fa3b 	bl	8005644 <vPortEnterCritical>
 80041ce:	e9d4 310f 	ldrd	r3, r1, [r4, #60]	@ 0x3c
 80041d2:	6822      	ldr	r2, [r4, #0]
 80041d4:	60a2      	str	r2, [r4, #8]
 80041d6:	434b      	muls	r3, r1
 80041d8:	18d0      	adds	r0, r2, r3
 80041da:	1a5b      	subs	r3, r3, r1
 80041dc:	441a      	add	r2, r3
 80041de:	6060      	str	r0, [r4, #4]
 80041e0:	23ff      	movs	r3, #255	@ 0xff
 80041e2:	2000      	movs	r0, #0
 80041e4:	63a0      	str	r0, [r4, #56]	@ 0x38
 80041e6:	60e2      	str	r2, [r4, #12]
 80041e8:	f884 3044 	strb.w	r3, [r4, #68]	@ 0x44
 80041ec:	f884 3045 	strb.w	r3, [r4, #69]	@ 0x45
 80041f0:	b9a5      	cbnz	r5, 800421c <xQueueGenericReset+0x6c>
 80041f2:	6923      	ldr	r3, [r4, #16]
 80041f4:	b173      	cbz	r3, 8004214 <xQueueGenericReset+0x64>
 80041f6:	f104 0010 	add.w	r0, r4, #16
 80041fa:	f000 fdfb 	bl	8004df4 <xTaskRemoveFromEventList>
 80041fe:	b148      	cbz	r0, 8004214 <xQueueGenericReset+0x64>
 8004200:	f04f 23e0 	mov.w	r3, #3758153728	@ 0xe000e000
 8004204:	f04f 5280 	mov.w	r2, #268435456	@ 0x10000000
 8004208:	f8c3 2d04 	str.w	r2, [r3, #3332]	@ 0xd04
 800420c:	f3bf 8f4f 	dsb	sy
 8004210:	f3bf 8f6f 	isb	sy
 8004214:	f001 fa36 	bl	8005684 <vPortExitCritical>
 8004218:	2001      	movs	r0, #1
 800421a:	bd38      	pop	{r3, r4, r5, pc}
 800421c:	f104 0010 	add.w	r0, r4, #16
 8004220:	f7ff fefc 	bl	800401c <vListInitialise>
 8004224:	f104 0024 	add.w	r0, r4, #36	@ 0x24
 8004228:	f7ff fef8 	bl	800401c <vListInitialise>
 800422c:	e7f2      	b.n	8004214 <xQueueGenericReset+0x64>

0800422e <xQueueGenericCreateStatic>:
 800422e:	b537      	push	{r0, r1, r2, r4, r5, lr}
 8004230:	460d      	mov	r5, r1
 8004232:	461c      	mov	r4, r3
 8004234:	b940      	cbnz	r0, 8004248 <xQueueGenericCreateStatic+0x1a>
 8004236:	f04f 0350 	mov.w	r3, #80	@ 0x50
 800423a:	f383 8811 	msr	BASEPRI, r3
 800423e:	f3bf 8f6f 	isb	sy
 8004242:	f3bf 8f4f 	dsb	sy
 8004246:	e7fe      	b.n	8004246 <xQueueGenericCreateStatic+0x18>
 8004248:	b943      	cbnz	r3, 800425c <xQueueGenericCreateStatic+0x2e>
 800424a:	f04f 0350 	mov.w	r3, #80	@ 0x50
 800424e:	f383 8811 	msr	BASEPRI, r3
 8004252:	f3bf 8f6f 	isb	sy
 8004256:	f3bf 8f4f 	dsb	sy
 800425a:	e7fe      	b.n	800425a <xQueueGenericCreateStatic+0x2c>
 800425c:	b14a      	cbz	r2, 8004272 <xQueueGenericCreateStatic+0x44>
 800425e:	b991      	cbnz	r1, 8004286 <xQueueGenericCreateStatic+0x58>
 8004260:	f04f 0350 	mov.w	r3, #80	@ 0x50
 8004264:	f383 8811 	msr	BASEPRI, r3
 8004268:	f3bf 8f6f 	isb	sy
 800426c:	f3bf 8f4f 	dsb	sy
 8004270:	e7fe      	b.n	8004270 <xQueueGenericCreateStatic+0x42>
 8004272:	b141      	cbz	r1, 8004286 <xQueueGenericCreateStatic+0x58>
 8004274:	f04f 0350 	mov.w	r3, #80	@ 0x50
 8004278:	f383 8811 	msr	BASEPRI, r3
 800427c:	f3bf 8f6f 	isb	sy
 8004280:	f3bf 8f4f 	dsb	sy
 8004284:	e7fe      	b.n	8004284 <xQueueGenericCreateStatic+0x56>
 8004286:	2350      	movs	r3, #80	@ 0x50
 8004288:	9301      	str	r3, [sp, #4]
 800428a:	9b01      	ldr	r3, [sp, #4]
 800428c:	2b50      	cmp	r3, #80	@ 0x50
 800428e:	d008      	beq.n	80042a2 <xQueueGenericCreateStatic+0x74>
 8004290:	f04f 0350 	mov.w	r3, #80	@ 0x50
 8004294:	f383 8811 	msr	BASEPRI, r3
 8004298:	f3bf 8f6f 	isb	sy
 800429c:	f3bf 8f4f 	dsb	sy
 80042a0:	e7fe      	b.n	80042a0 <xQueueGenericCreateStatic+0x72>
 80042a2:	2101      	movs	r1, #1
 80042a4:	2d00      	cmp	r5, #0
 80042a6:	bf08      	it	eq
 80042a8:	4622      	moveq	r2, r4
 80042aa:	e9c4 050f 	strd	r0, r5, [r4, #60]	@ 0x3c
 80042ae:	f884 1046 	strb.w	r1, [r4, #70]	@ 0x46
 80042b2:	6022      	str	r2, [r4, #0]
 80042b4:	4620      	mov	r0, r4
 80042b6:	f7ff ff7b 	bl	80041b0 <xQueueGenericReset>
 80042ba:	f89d 3018 	ldrb.w	r3, [sp, #24]
 80042be:	f884 304c 	strb.w	r3, [r4, #76]	@ 0x4c
 80042c2:	4620      	mov	r0, r4
 80042c4:	b003      	add	sp, #12
 80042c6:	bd30      	pop	{r4, r5, pc}

080042c8 <xQueueGenericSend>:
 80042c8:	e92d 41ff 	stmdb	sp!, {r0, r1, r2, r3, r4, r5, r6, r7, r8, lr}
 80042cc:	460f      	mov	r7, r1
 80042ce:	9201      	str	r2, [sp, #4]
 80042d0:	461e      	mov	r6, r3
 80042d2:	4604      	mov	r4, r0
 80042d4:	b940      	cbnz	r0, 80042e8 <xQueueGenericSend+0x20>
 80042d6:	f04f 0350 	mov.w	r3, #80	@ 0x50
 80042da:	f383 8811 	msr	BASEPRI, r3
 80042de:	f3bf 8f6f 	isb	sy
 80042e2:	f3bf 8f4f 	dsb	sy
 80042e6:	e7fe      	b.n	80042e6 <xQueueGenericSend+0x1e>
 80042e8:	b951      	cbnz	r1, 8004300 <xQueueGenericSend+0x38>
 80042ea:	6c03      	ldr	r3, [r0, #64]	@ 0x40
 80042ec:	b143      	cbz	r3, 8004300 <xQueueGenericSend+0x38>
 80042ee:	f04f 0350 	mov.w	r3, #80	@ 0x50
 80042f2:	f383 8811 	msr	BASEPRI, r3
 80042f6:	f3bf 8f6f 	isb	sy
 80042fa:	f3bf 8f4f 	dsb	sy
 80042fe:	e7fe      	b.n	80042fe <xQueueGenericSend+0x36>
 8004300:	2e02      	cmp	r6, #2
 8004302:	d10b      	bne.n	800431c <xQueueGenericSend+0x54>
 8004304:	6be3      	ldr	r3, [r4, #60]	@ 0x3c
 8004306:	2b01      	cmp	r3, #1
 8004308:	d008      	beq.n	800431c <xQueueGenericSend+0x54>
 800430a:	f04f 0350 	mov.w	r3, #80	@ 0x50
 800430e:	f383 8811 	msr	BASEPRI, r3
 8004312:	f3bf 8f6f 	isb	sy
 8004316:	f3bf 8f4f 	dsb	sy
 800431a:	e7fe      	b.n	800431a <xQueueGenericSend+0x52>
 800431c:	f000 fdfe 	bl	8004f1c <xTaskGetSchedulerState>
 8004320:	4605      	mov	r5, r0
 8004322:	b320      	cbz	r0, 800436e <xQueueGenericSend+0xa6>
 8004324:	2500      	movs	r5, #0
 8004326:	f04f 0800 	mov.w	r8, #0
 800432a:	f001 f98b 	bl	8005644 <vPortEnterCritical>
 800432e:	6ba2      	ldr	r2, [r4, #56]	@ 0x38
 8004330:	6be3      	ldr	r3, [r4, #60]	@ 0x3c
 8004332:	429a      	cmp	r2, r3
 8004334:	d227      	bcs.n	8004386 <xQueueGenericSend+0xbe>
 8004336:	4632      	mov	r2, r6
 8004338:	4639      	mov	r1, r7
 800433a:	4620      	mov	r0, r4
 800433c:	f7ff feb9 	bl	80040b2 <prvCopyDataToQueue>
 8004340:	6a63      	ldr	r3, [r4, #36]	@ 0x24
 8004342:	b11b      	cbz	r3, 800434c <xQueueGenericSend+0x84>
 8004344:	f104 0024 	add.w	r0, r4, #36	@ 0x24
 8004348:	f000 fd54 	bl	8004df4 <xTaskRemoveFromEventList>
 800434c:	b148      	cbz	r0, 8004362 <xQueueGenericSend+0x9a>
 800434e:	f04f 23e0 	mov.w	r3, #3758153728	@ 0xe000e000
 8004352:	f04f 5280 	mov.w	r2, #268435456	@ 0x10000000
 8004356:	f8c3 2d04 	str.w	r2, [r3, #3332]	@ 0xd04
 800435a:	f3bf 8f4f 	dsb	sy
 800435e:	f3bf 8f6f 	isb	sy
 8004362:	f001 f98f 	bl	8005684 <vPortExitCritical>
 8004366:	2001      	movs	r0, #1
 8004368:	b004      	add	sp, #16
 800436a:	e8bd 81f0 	ldmia.w	sp!, {r4, r5, r6, r7, r8, pc}
 800436e:	9b01      	ldr	r3, [sp, #4]
 8004370:	2b00      	cmp	r3, #0
 8004372:	d0d8      	beq.n	8004326 <xQueueGenericSend+0x5e>
 8004374:	f04f 0350 	mov.w	r3, #80	@ 0x50
 8004378:	f383 8811 	msr	BASEPRI, r3
 800437c:	f3bf 8f6f 	isb	sy
 8004380:	f3bf 8f4f 	dsb	sy
 8004384:	e7fe      	b.n	8004384 <xQueueGenericSend+0xbc>
 8004386:	2e02      	cmp	r6, #2
 8004388:	d0d5      	beq.n	8004336 <xQueueGenericSend+0x6e>
 800438a:	9b01      	ldr	r3, [sp, #4]
 800438c:	b91b      	cbnz	r3, 8004396 <xQueueGenericSend+0xce>
 800438e:	f001 f979 	bl	8005684 <vPortExitCritical>
 8004392:	2000      	movs	r0, #0
 8004394:	e7e8      	b.n	8004368 <xQueueGenericSend+0xa0>
 8004396:	b915      	cbnz	r5, 800439e <xQueueGenericSend+0xd6>
 8004398:	a802      	add	r0, sp, #8
 800439a:	f000 fd6b 	bl	8004e74 <vTaskInternalSetTimeOutState>
 800439e:	f001 f971 	bl	8005684 <vPortExitCritical>
 80043a2:	f000 fb79 	bl	8004a98 <vTaskSuspendAll>
 80043a6:	f001 f94d 	bl	8005644 <vPortEnterCritical>
 80043aa:	f894 3044 	ldrb.w	r3, [r4, #68]	@ 0x44
 80043ae:	2bff      	cmp	r3, #255	@ 0xff
 80043b0:	bf08      	it	eq
 80043b2:	f884 8044 	strbeq.w	r8, [r4, #68]	@ 0x44
 80043b6:	f894 3045 	ldrb.w	r3, [r4, #69]	@ 0x45
 80043ba:	2bff      	cmp	r3, #255	@ 0xff
 80043bc:	bf08      	it	eq
 80043be:	f884 8045 	strbeq.w	r8, [r4, #69]	@ 0x45
 80043c2:	f001 f95f 	bl	8005684 <vPortExitCritical>
 80043c6:	a901      	add	r1, sp, #4
 80043c8:	a802      	add	r0, sp, #8
 80043ca:	f000 fd5f 	bl	8004e8c <xTaskCheckForTimeOut>
 80043ce:	bb38      	cbnz	r0, 8004420 <xQueueGenericSend+0x158>
 80043d0:	f001 f938 	bl	8005644 <vPortEnterCritical>
 80043d4:	6ba2      	ldr	r2, [r4, #56]	@ 0x38
 80043d6:	6be3      	ldr	r3, [r4, #60]	@ 0x3c
 80043d8:	429a      	cmp	r2, r3
 80043da:	d10e      	bne.n	80043fa <xQueueGenericSend+0x132>
 80043dc:	f001 f952 	bl	8005684 <vPortExitCritical>
 80043e0:	9901      	ldr	r1, [sp, #4]
 80043e2:	f104 0010 	add.w	r0, r4, #16
 80043e6:	f000 fccd 	bl	8004d84 <vTaskPlaceOnEventList>
 80043ea:	4620      	mov	r0, r4
 80043ec:	f7ff feaa 	bl	8004144 <prvUnlockQueue>
 80043f0:	f000 fbf6 	bl	8004be0 <xTaskResumeAll>
 80043f4:	b148      	cbz	r0, 800440a <xQueueGenericSend+0x142>
 80043f6:	2501      	movs	r5, #1
 80043f8:	e797      	b.n	800432a <xQueueGenericSend+0x62>
 80043fa:	f001 f943 	bl	8005684 <vPortExitCritical>
 80043fe:	4620      	mov	r0, r4
 8004400:	f7ff fea0 	bl	8004144 <prvUnlockQueue>
 8004404:	f000 fbec 	bl	8004be0 <xTaskResumeAll>
 8004408:	e7f5      	b.n	80043f6 <xQueueGenericSend+0x12e>
 800440a:	f04f 23e0 	mov.w	r3, #3758153728	@ 0xe000e000
 800440e:	f04f 5280 	mov.w	r2, #268435456	@ 0x10000000
 8004412:	f8c3 2d04 	str.w	r2, [r3, #3332]	@ 0xd04
 8004416:	f3bf 8f4f 	dsb	sy
 800441a:	f3bf 8f6f 	isb	sy
 800441e:	e7ea      	b.n	80043f6 <xQueueGenericSend+0x12e>
 8004420:	4620      	mov	r0, r4
 8004422:	f7ff fe8f 	bl	8004144 <prvUnlockQueue>
 8004426:	f000 fbdb 	bl	8004be0 <xTaskResumeAll>
 800442a:	e7b2      	b.n	8004392 <xQueueGenericSend+0xca>

0800442c <xQueueGenericSendFromISR>:
 800442c:	e92d 43f8 	stmdb	sp!, {r3, r4, r5, r6, r7, r8, r9, lr}
 8004430:	4689      	mov	r9, r1
 8004432:	4617      	mov	r7, r2
 8004434:	461e      	mov	r6, r3
 8004436:	4604      	mov	r4, r0
 8004438:	b940      	cbnz	r0, 800444c <xQueueGenericSendFromISR+0x20>
 800443a:	f04f 0350 	mov.w	r3, #80	@ 0x50
 800443e:	f383 8811 	msr	BASEPRI, r3
 8004442:	f3bf 8f6f 	isb	sy
 8004446:	f3bf 8f4f 	dsb	sy
 800444a:	e7fe      	b.n	800444a <xQueueGenericSendFromISR+0x1e>
 800444c:	b951      	cbnz	r1, 8004464 <xQueueGenericSendFromISR+0x38>
 800444e:	6c03      	ldr	r3, [r0, #64]	@ 0x40
 8004450:	b143      	cbz	r3, 8004464 <xQueueGenericSendFromISR+0x38>
 8004452:	f04f 0350 	mov.w	r3, #80	@ 0x50
 8004456:	f383 8811 	msr	BASEPRI, r3
 800445a:	f3bf 8f6f 	isb	sy
 800445e:	f3bf 8f4f 	dsb	sy
 8004462:	e7fe      	b.n	8004462 <xQueueGenericSendFromISR+0x36>
 8004464:	2e02      	cmp	r6, #2
 8004466:	d10b      	bne.n	8004480 <xQueueGenericSendFromISR+0x54>
 8004468:	6be3      	ldr	r3, [r4, #60]	@ 0x3c
 800446a:	2b01      	cmp	r3, #1
 800446c:	d008      	beq.n	8004480 <xQueueGenericSendFromISR+0x54>
 800446e:	f04f 0350 	mov.w	r3, #80	@ 0x50
 8004472:	f383 8811 	msr	BASEPRI, r3
 8004476:	f3bf 8f6f 	isb	sy
 800447a:	f3bf 8f4f 	dsb	sy
 800447e:	e7fe      	b.n	800447e <xQueueGenericSendFromISR+0x52>
 8004480:	f001 f9f2 	bl	8005868 <vPortValidateInterruptPriority>
 8004484:	f3ef 8811 	mrs	r8, BASEPRI
 8004488:	f04f 0350 	mov.w	r3, #80	@ 0x50
 800448c:	f383 8811 	msr	BASEPRI, r3
 8004490:	f3bf 8f6f 	isb	sy
 8004494:	f3bf 8f4f 	dsb	sy
 8004498:	6ba2      	ldr	r2, [r4, #56]	@ 0x38
 800449a:	6be3      	ldr	r3, [r4, #60]	@ 0x3c
 800449c:	429a      	cmp	r2, r3
 800449e:	d301      	bcc.n	80044a4 <xQueueGenericSendFromISR+0x78>
 80044a0:	2e02      	cmp	r6, #2
 80044a2:	d11d      	bne.n	80044e0 <xQueueGenericSendFromISR+0xb4>
 80044a4:	f894 5045 	ldrb.w	r5, [r4, #69]	@ 0x45
 80044a8:	4632      	mov	r2, r6
 80044aa:	b26d      	sxtb	r5, r5
 80044ac:	4649      	mov	r1, r9
 80044ae:	4620      	mov	r0, r4
 80044b0:	f7ff fdff 	bl	80040b2 <prvCopyDataToQueue>
 80044b4:	1c6b      	adds	r3, r5, #1
 80044b6:	d10e      	bne.n	80044d6 <xQueueGenericSendFromISR+0xaa>
 80044b8:	6a63      	ldr	r3, [r4, #36]	@ 0x24
 80044ba:	b13b      	cbz	r3, 80044cc <xQueueGenericSendFromISR+0xa0>
 80044bc:	f104 0024 	add.w	r0, r4, #36	@ 0x24
 80044c0:	f000 fc98 	bl	8004df4 <xTaskRemoveFromEventList>
 80044c4:	b110      	cbz	r0, 80044cc <xQueueGenericSendFromISR+0xa0>
 80044c6:	b10f      	cbz	r7, 80044cc <xQueueGenericSendFromISR+0xa0>
 80044c8:	2301      	movs	r3, #1
 80044ca:	603b      	str	r3, [r7, #0]
 80044cc:	2001      	movs	r0, #1
 80044ce:	f388 8811 	msr	BASEPRI, r8
 80044d2:	e8bd 83f8 	ldmia.w	sp!, {r3, r4, r5, r6, r7, r8, r9, pc}
 80044d6:	3501      	adds	r5, #1
 80044d8:	b26d      	sxtb	r5, r5
 80044da:	f884 5045 	strb.w	r5, [r4, #69]	@ 0x45
 80044de:	e7f5      	b.n	80044cc <xQueueGenericSendFromISR+0xa0>
 80044e0:	2000      	movs	r0, #0
 80044e2:	e7f4      	b.n	80044ce <xQueueGenericSendFromISR+0xa2>

080044e4 <xQueueReceive>:
 80044e4:	e92d 41ff 	stmdb	sp!, {r0, r1, r2, r3, r4, r5, r6, r7, r8, lr}
 80044e8:	460e      	mov	r6, r1
 80044ea:	9201      	str	r2, [sp, #4]
 80044ec:	4604      	mov	r4, r0
 80044ee:	b940      	cbnz	r0, 8004502 <xQueueReceive+0x1e>
 80044f0:	f04f 0350 	mov.w	r3, #80	@ 0x50
 80044f4:	f383 8811 	msr	BASEPRI, r3
 80044f8:	f3bf 8f6f 	isb	sy
 80044fc:	f3bf 8f4f 	dsb	sy
 8004500:	e7fe      	b.n	8004500 <xQueueReceive+0x1c>
 8004502:	b951      	cbnz	r1, 800451a <xQueueReceive+0x36>
 8004504:	6c03      	ldr	r3, [r0, #64]	@ 0x40
 8004506:	b143      	cbz	r3, 800451a <xQueueReceive+0x36>
 8004508:	f04f 0350 	mov.w	r3, #80	@ 0x50
 800450c:	f383 8811 	msr	BASEPRI, r3
 8004510:	f3bf 8f6f 	isb	sy
 8004514:	f3bf 8f4f 	dsb	sy
 8004518:	e7fe      	b.n	8004518 <xQueueReceive+0x34>
 800451a:	f000 fcff 	bl	8004f1c <xTaskGetSchedulerState>
 800451e:	4605      	mov	r5, r0
 8004520:	b318      	cbz	r0, 800456a <xQueueReceive+0x86>
 8004522:	2500      	movs	r5, #0
 8004524:	f04f 0800 	mov.w	r8, #0
 8004528:	f001 f88c 	bl	8005644 <vPortEnterCritical>
 800452c:	6ba7      	ldr	r7, [r4, #56]	@ 0x38
 800452e:	b347      	cbz	r7, 8004582 <xQueueReceive+0x9e>
 8004530:	4631      	mov	r1, r6
 8004532:	4620      	mov	r0, r4
 8004534:	3f01      	subs	r7, #1
 8004536:	f7ff fdef 	bl	8004118 <prvCopyDataFromQueue>
 800453a:	63a7      	str	r7, [r4, #56]	@ 0x38
 800453c:	6923      	ldr	r3, [r4, #16]
 800453e:	b173      	cbz	r3, 800455e <xQueueReceive+0x7a>
 8004540:	f104 0010 	add.w	r0, r4, #16
 8004544:	f000 fc56 	bl	8004df4 <xTaskRemoveFromEventList>
 8004548:	b148      	cbz	r0, 800455e <xQueueReceive+0x7a>
 800454a:	f04f 23e0 	mov.w	r3, #3758153728	@ 0xe000e000
 800454e:	f04f 5280 	mov.w	r2, #268435456	@ 0x10000000
 8004552:	f8c3 2d04 	str.w	r2, [r3, #3332]	@ 0xd04
 8004556:	f3bf 8f4f 	dsb	sy
 800455a:	f3bf 8f6f 	isb	sy
 800455e:	f001 f891 	bl	8005684 <vPortExitCritical>
 8004562:	2001      	movs	r0, #1
 8004564:	b004      	add	sp, #16
 8004566:	e8bd 81f0 	ldmia.w	sp!, {r4, r5, r6, r7, r8, pc}
 800456a:	9b01      	ldr	r3, [sp, #4]
 800456c:	2b00      	cmp	r3, #0
 800456e:	d0d9      	beq.n	8004524 <xQueueReceive+0x40>
 8004570:	f04f 0350 	mov.w	r3, #80	@ 0x50
 8004574:	f383 8811 	msr	BASEPRI, r3
 8004578:	f3bf 8f6f 	isb	sy
 800457c:	f3bf 8f4f 	dsb	sy
 8004580:	e7fe      	b.n	8004580 <xQueueReceive+0x9c>
 8004582:	9b01      	ldr	r3, [sp, #4]
 8004584:	b91b      	cbnz	r3, 800458e <xQueueReceive+0xaa>
 8004586:	f001 f87d 	bl	8005684 <vPortExitCritical>
 800458a:	2000      	movs	r0, #0
 800458c:	e7ea      	b.n	8004564 <xQueueReceive+0x80>
 800458e:	b915      	cbnz	r5, 8004596 <xQueueReceive+0xb2>
 8004590:	a802      	add	r0, sp, #8
 8004592:	f000 fc6f 	bl	8004e74 <vTaskInternalSetTimeOutState>
 8004596:	f001 f875 	bl	8005684 <vPortExitCritical>
 800459a:	f000 fa7d 	bl	8004a98 <vTaskSuspendAll>
 800459e:	f001 f851 	bl	8005644 <vPortEnterCritical>
 80045a2:	f894 3044 	ldrb.w	r3, [r4, #68]	@ 0x44
 80045a6:	2bff      	cmp	r3, #255	@ 0xff
 80045a8:	bf08      	it	eq
 80045aa:	f884 8044 	strbeq.w	r8, [r4, #68]	@ 0x44
 80045ae:	f894 3045 	ldrb.w	r3, [r4, #69]	@ 0x45
 80045b2:	2bff      	cmp	r3, #255	@ 0xff
 80045b4:	bf08      	it	eq
 80045b6:	f884 8045 	strbeq.w	r8, [r4, #69]	@ 0x45
 80045ba:	f001 f863 	bl	8005684 <vPortExitCritical>
 80045be:	a901      	add	r1, sp, #4
 80045c0:	a802      	add	r0, sp, #8
 80045c2:	f000 fc63 	bl	8004e8c <xTaskCheckForTimeOut>
 80045c6:	bb00      	cbnz	r0, 800460a <xQueueReceive+0x126>
 80045c8:	4620      	mov	r0, r4
 80045ca:	f7ff fd67 	bl	800409c <prvIsQueueEmpty>
 80045ce:	b1b0      	cbz	r0, 80045fe <xQueueReceive+0x11a>
 80045d0:	9901      	ldr	r1, [sp, #4]
 80045d2:	f104 0024 	add.w	r0, r4, #36	@ 0x24
 80045d6:	f000 fbd5 	bl	8004d84 <vTaskPlaceOnEventList>
 80045da:	4620      	mov	r0, r4
 80045dc:	f7ff fdb2 	bl	8004144 <prvUnlockQueue>
 80045e0:	f000 fafe 	bl	8004be0 <xTaskResumeAll>
 80045e4:	b948      	cbnz	r0, 80045fa <xQueueReceive+0x116>
 80045e6:	f04f 23e0 	mov.w	r3, #3758153728	@ 0xe000e000
 80045ea:	f04f 5280 	mov.w	r2, #268435456	@ 0x10000000
 80045ee:	f8c3 2d04 	str.w	r2, [r3, #3332]	@ 0xd04
 80045f2:	f3bf 8f4f 	dsb	sy
 80045f6:	f3bf 8f6f 	isb	sy
 80045fa:	2501      	movs	r5, #1
 80045fc:	e794      	b.n	8004528 <xQueueReceive+0x44>
 80045fe:	4620      	mov	r0, r4
 8004600:	f7ff fda0 	bl	8004144 <prvUnlockQueue>
 8004604:	f000 faec 	bl	8004be0 <xTaskResumeAll>
 8004608:	e7f7      	b.n	80045fa <xQueueReceive+0x116>
 800460a:	4620      	mov	r0, r4
 800460c:	f7ff fd9a 	bl	8004144 <prvUnlockQueue>
 8004610:	f000 fae6 	bl	8004be0 <xTaskResumeAll>
 8004614:	4620      	mov	r0, r4
 8004616:	f7ff fd41 	bl	800409c <prvIsQueueEmpty>
 800461a:	2800      	cmp	r0, #0
 800461c:	d0ed      	beq.n	80045fa <xQueueReceive+0x116>
 800461e:	e7b4      	b.n	800458a <xQueueReceive+0xa6>

08004620 <vQueueAddToRegistry>:
 8004620:	b530      	push	{r4, r5, lr}
 8004622:	4a07      	ldr	r2, [pc, #28]	@ (8004640 <vQueueAddToRegistry+0x20>)
 8004624:	2300      	movs	r3, #0
 8004626:	f852 5033 	ldr.w	r5, [r2, r3, lsl #3]
 800462a:	eb02 04c3 	add.w	r4, r2, r3, lsl #3
 800462e:	b91d      	cbnz	r5, 8004638 <vQueueAddToRegistry+0x18>
 8004630:	f842 1033 	str.w	r1, [r2, r3, lsl #3]
 8004634:	6060      	str	r0, [r4, #4]
 8004636:	bd30      	pop	{r4, r5, pc}
 8004638:	3301      	adds	r3, #1
 800463a:	2b08      	cmp	r3, #8
 800463c:	d1f3      	bne.n	8004626 <vQueueAddToRegistry+0x6>
 800463e:	e7fa      	b.n	8004636 <vQueueAddToRegistry+0x16>
 8004640:	20002144 	.word	0x20002144

08004644 <vQueueWaitForMessageRestricted>:
 8004644:	b570      	push	{r4, r5, r6, lr}
 8004646:	4604      	mov	r4, r0
 8004648:	460d      	mov	r5, r1
 800464a:	4616      	mov	r6, r2
 800464c:	f000 fffa 	bl	8005644 <vPortEnterCritical>
 8004650:	f894 3044 	ldrb.w	r3, [r4, #68]	@ 0x44
 8004654:	2bff      	cmp	r3, #255	@ 0xff
 8004656:	bf04      	itt	eq
 8004658:	2300      	moveq	r3, #0
 800465a:	f884 3044 	strbeq.w	r3, [r4, #68]	@ 0x44
 800465e:	f894 3045 	ldrb.w	r3, [r4, #69]	@ 0x45
 8004662:	2bff      	cmp	r3, #255	@ 0xff
 8004664:	bf04      	itt	eq
 8004666:	2300      	moveq	r3, #0
 8004668:	f884 3045 	strbeq.w	r3, [r4, #69]	@ 0x45
 800466c:	f001 f80a 	bl	8005684 <vPortExitCritical>
 8004670:	6ba3      	ldr	r3, [r4, #56]	@ 0x38
 8004672:	b92b      	cbnz	r3, 8004680 <vQueueWaitForMessageRestricted+0x3c>
 8004674:	4632      	mov	r2, r6
 8004676:	4629      	mov	r1, r5
 8004678:	f104 0024 	add.w	r0, r4, #36	@ 0x24
 800467c:	f000 fb9c 	bl	8004db8 <vTaskPlaceOnEventListRestricted>
 8004680:	4620      	mov	r0, r4
 8004682:	e8bd 4070 	ldmia.w	sp!, {r4, r5, r6, lr}
 8004686:	f7ff bd5d 	b.w	8004144 <prvUnlockQueue>
	...

0800468c <prvAddNewTaskToReadyList>:
 800468c:	e92d 41f0 	stmdb	sp!, {r4, r5, r6, r7, r8, lr}
 8004690:	4604      	mov	r4, r0
 8004692:	f000 ffd7 	bl	8005644 <vPortEnterCritical>
 8004696:	4b30      	ldr	r3, [pc, #192]	@ (8004758 <prvAddNewTaskToReadyList+0xcc>)
 8004698:	4e30      	ldr	r6, [pc, #192]	@ (800475c <prvAddNewTaskToReadyList+0xd0>)
 800469a:	681a      	ldr	r2, [r3, #0]
 800469c:	4f30      	ldr	r7, [pc, #192]	@ (8004760 <prvAddNewTaskToReadyList+0xd4>)
 800469e:	3201      	adds	r2, #1
 80046a0:	601a      	str	r2, [r3, #0]
 80046a2:	6835      	ldr	r5, [r6, #0]
 80046a4:	2d00      	cmp	r5, #0
 80046a6:	d14b      	bne.n	8004740 <prvAddNewTaskToReadyList+0xb4>
 80046a8:	6034      	str	r4, [r6, #0]
 80046aa:	681b      	ldr	r3, [r3, #0]
 80046ac:	2b01      	cmp	r3, #1
 80046ae:	d11f      	bne.n	80046f0 <prvAddNewTaskToReadyList+0x64>
 80046b0:	46b8      	mov	r8, r7
 80046b2:	4640      	mov	r0, r8
 80046b4:	3501      	adds	r5, #1
 80046b6:	f7ff fcb1 	bl	800401c <vListInitialise>
 80046ba:	2d38      	cmp	r5, #56	@ 0x38
 80046bc:	f108 0814 	add.w	r8, r8, #20
 80046c0:	d1f7      	bne.n	80046b2 <prvAddNewTaskToReadyList+0x26>
 80046c2:	f8df 80c4 	ldr.w	r8, [pc, #196]	@ 8004788 <prvAddNewTaskToReadyList+0xfc>
 80046c6:	4d27      	ldr	r5, [pc, #156]	@ (8004764 <prvAddNewTaskToReadyList+0xd8>)
 80046c8:	4640      	mov	r0, r8
 80046ca:	f7ff fca7 	bl	800401c <vListInitialise>
 80046ce:	4628      	mov	r0, r5
 80046d0:	f7ff fca4 	bl	800401c <vListInitialise>
 80046d4:	4824      	ldr	r0, [pc, #144]	@ (8004768 <prvAddNewTaskToReadyList+0xdc>)
 80046d6:	f7ff fca1 	bl	800401c <vListInitialise>
 80046da:	4824      	ldr	r0, [pc, #144]	@ (800476c <prvAddNewTaskToReadyList+0xe0>)
 80046dc:	f7ff fc9e 	bl	800401c <vListInitialise>
 80046e0:	4823      	ldr	r0, [pc, #140]	@ (8004770 <prvAddNewTaskToReadyList+0xe4>)
 80046e2:	f7ff fc9b 	bl	800401c <vListInitialise>
 80046e6:	4b23      	ldr	r3, [pc, #140]	@ (8004774 <prvAddNewTaskToReadyList+0xe8>)
 80046e8:	f8c3 8000 	str.w	r8, [r3]
 80046ec:	4b22      	ldr	r3, [pc, #136]	@ (8004778 <prvAddNewTaskToReadyList+0xec>)
 80046ee:	601d      	str	r5, [r3, #0]
 80046f0:	4a22      	ldr	r2, [pc, #136]	@ (800477c <prvAddNewTaskToReadyList+0xf0>)
 80046f2:	6813      	ldr	r3, [r2, #0]
 80046f4:	3301      	adds	r3, #1
 80046f6:	6013      	str	r3, [r2, #0]
 80046f8:	4a21      	ldr	r2, [pc, #132]	@ (8004780 <prvAddNewTaskToReadyList+0xf4>)
 80046fa:	6463      	str	r3, [r4, #68]	@ 0x44
 80046fc:	6811      	ldr	r1, [r2, #0]
 80046fe:	6ae3      	ldr	r3, [r4, #44]	@ 0x2c
 8004700:	2014      	movs	r0, #20
 8004702:	428b      	cmp	r3, r1
 8004704:	fb00 7003 	mla	r0, r0, r3, r7
 8004708:	f104 0104 	add.w	r1, r4, #4
 800470c:	bf88      	it	hi
 800470e:	6013      	strhi	r3, [r2, #0]
 8004710:	f7ff fc92 	bl	8004038 <vListInsertEnd>
 8004714:	f000 ffb6 	bl	8005684 <vPortExitCritical>
 8004718:	4b1a      	ldr	r3, [pc, #104]	@ (8004784 <prvAddNewTaskToReadyList+0xf8>)
 800471a:	681b      	ldr	r3, [r3, #0]
 800471c:	b173      	cbz	r3, 800473c <prvAddNewTaskToReadyList+0xb0>
 800471e:	6833      	ldr	r3, [r6, #0]
 8004720:	6ada      	ldr	r2, [r3, #44]	@ 0x2c
 8004722:	6ae3      	ldr	r3, [r4, #44]	@ 0x2c
 8004724:	429a      	cmp	r2, r3
 8004726:	d209      	bcs.n	800473c <prvAddNewTaskToReadyList+0xb0>
 8004728:	f04f 23e0 	mov.w	r3, #3758153728	@ 0xe000e000
 800472c:	f04f 5280 	mov.w	r2, #268435456	@ 0x10000000
 8004730:	f8c3 2d04 	str.w	r2, [r3, #3332]	@ 0xd04
 8004734:	f3bf 8f4f 	dsb	sy
 8004738:	f3bf 8f6f 	isb	sy
 800473c:	e8bd 81f0 	ldmia.w	sp!, {r4, r5, r6, r7, r8, pc}
 8004740:	4b10      	ldr	r3, [pc, #64]	@ (8004784 <prvAddNewTaskToReadyList+0xf8>)
 8004742:	681a      	ldr	r2, [r3, #0]
 8004744:	6ae3      	ldr	r3, [r4, #44]	@ 0x2c
 8004746:	2a00      	cmp	r2, #0
 8004748:	d1d2      	bne.n	80046f0 <prvAddNewTaskToReadyList+0x64>
 800474a:	6832      	ldr	r2, [r6, #0]
 800474c:	6ad2      	ldr	r2, [r2, #44]	@ 0x2c
 800474e:	429a      	cmp	r2, r3
 8004750:	bf98      	it	ls
 8004752:	6034      	strls	r4, [r6, #0]
 8004754:	e7cc      	b.n	80046f0 <prvAddNewTaskToReadyList+0x64>
 8004756:	bf00      	nop
 8004758:	200021a8 	.word	0x200021a8
 800475c:	2000267c 	.word	0x2000267c
 8004760:	2000221c 	.word	0x2000221c
 8004764:	200021f4 	.word	0x200021f4
 8004768:	200021d8 	.word	0x200021d8
 800476c:	200021c4 	.word	0x200021c4
 8004770:	200021ac 	.word	0x200021ac
 8004774:	200021f0 	.word	0x200021f0
 8004778:	200021ec 	.word	0x200021ec
 800477c:	2000218c 	.word	0x2000218c
 8004780:	200021a0 	.word	0x200021a0
 8004784:	2000219c 	.word	0x2000219c
 8004788:	20002208 	.word	0x20002208

0800478c <prvAddCurrentTaskToDelayedList>:
 800478c:	b5f8      	push	{r3, r4, r5, r6, r7, lr}
 800478e:	4b15      	ldr	r3, [pc, #84]	@ (80047e4 <prvAddCurrentTaskToDelayedList+0x58>)
 8004790:	4d15      	ldr	r5, [pc, #84]	@ (80047e8 <prvAddCurrentTaskToDelayedList+0x5c>)
 8004792:	681c      	ldr	r4, [r3, #0]
 8004794:	4606      	mov	r6, r0
 8004796:	6828      	ldr	r0, [r5, #0]
 8004798:	3004      	adds	r0, #4
 800479a:	460f      	mov	r7, r1
 800479c:	f7ff fc6e 	bl	800407c <uxListRemove>
 80047a0:	1c73      	adds	r3, r6, #1
 80047a2:	d107      	bne.n	80047b4 <prvAddCurrentTaskToDelayedList+0x28>
 80047a4:	b137      	cbz	r7, 80047b4 <prvAddCurrentTaskToDelayedList+0x28>
 80047a6:	6829      	ldr	r1, [r5, #0]
 80047a8:	4810      	ldr	r0, [pc, #64]	@ (80047ec <prvAddCurrentTaskToDelayedList+0x60>)
 80047aa:	e8bd 40f8 	ldmia.w	sp!, {r3, r4, r5, r6, r7, lr}
 80047ae:	3104      	adds	r1, #4
 80047b0:	f7ff bc42 	b.w	8004038 <vListInsertEnd>
 80047b4:	682b      	ldr	r3, [r5, #0]
 80047b6:	19a4      	adds	r4, r4, r6
 80047b8:	605c      	str	r4, [r3, #4]
 80047ba:	d307      	bcc.n	80047cc <prvAddCurrentTaskToDelayedList+0x40>
 80047bc:	4b0c      	ldr	r3, [pc, #48]	@ (80047f0 <prvAddCurrentTaskToDelayedList+0x64>)
 80047be:	6818      	ldr	r0, [r3, #0]
 80047c0:	6829      	ldr	r1, [r5, #0]
 80047c2:	e8bd 40f8 	ldmia.w	sp!, {r3, r4, r5, r6, r7, lr}
 80047c6:	3104      	adds	r1, #4
 80047c8:	f7ff bc41 	b.w	800404e <vListInsert>
 80047cc:	4b09      	ldr	r3, [pc, #36]	@ (80047f4 <prvAddCurrentTaskToDelayedList+0x68>)
 80047ce:	6818      	ldr	r0, [r3, #0]
 80047d0:	6829      	ldr	r1, [r5, #0]
 80047d2:	3104      	adds	r1, #4
 80047d4:	f7ff fc3b 	bl	800404e <vListInsert>
 80047d8:	4b07      	ldr	r3, [pc, #28]	@ (80047f8 <prvAddCurrentTaskToDelayedList+0x6c>)
 80047da:	681a      	ldr	r2, [r3, #0]
 80047dc:	42a2      	cmp	r2, r4
 80047de:	bf88      	it	hi
 80047e0:	601c      	strhi	r4, [r3, #0]
 80047e2:	bdf8      	pop	{r3, r4, r5, r6, r7, pc}
 80047e4:	200021a4 	.word	0x200021a4
 80047e8:	2000267c 	.word	0x2000267c
 80047ec:	200021ac 	.word	0x200021ac
 80047f0:	200021ec 	.word	0x200021ec
 80047f4:	200021f0 	.word	0x200021f0
 80047f8:	20002188 	.word	0x20002188

080047fc <prvResetNextTaskUnblockTime>:
 80047fc:	4a06      	ldr	r2, [pc, #24]	@ (8004818 <prvResetNextTaskUnblockTime+0x1c>)
 80047fe:	6813      	ldr	r3, [r2, #0]
 8004800:	6819      	ldr	r1, [r3, #0]
 8004802:	4b06      	ldr	r3, [pc, #24]	@ (800481c <prvResetNextTaskUnblockTime+0x20>)
 8004804:	b919      	cbnz	r1, 800480e <prvResetNextTaskUnblockTime+0x12>
 8004806:	f04f 32ff 	mov.w	r2, #4294967295	@ 0xffffffff
 800480a:	601a      	str	r2, [r3, #0]
 800480c:	4770      	bx	lr
 800480e:	6812      	ldr	r2, [r2, #0]
 8004810:	68d2      	ldr	r2, [r2, #12]
 8004812:	68d2      	ldr	r2, [r2, #12]
 8004814:	6852      	ldr	r2, [r2, #4]
 8004816:	e7f8      	b.n	800480a <prvResetNextTaskUnblockTime+0xe>
 8004818:	200021f0 	.word	0x200021f0
 800481c:	20002188 	.word	0x20002188

08004820 <prvDeleteTCB>:
 8004820:	b510      	push	{r4, lr}
 8004822:	f890 3059 	ldrb.w	r3, [r0, #89]	@ 0x59
 8004826:	4604      	mov	r4, r0
 8004828:	b93b      	cbnz	r3, 800483a <prvDeleteTCB+0x1a>
 800482a:	6b00      	ldr	r0, [r0, #48]	@ 0x30
 800482c:	f001 f902 	bl	8005a34 <vPortFree>
 8004830:	4620      	mov	r0, r4
 8004832:	e8bd 4010 	ldmia.w	sp!, {r4, lr}
 8004836:	f001 b8fd 	b.w	8005a34 <vPortFree>
 800483a:	2b01      	cmp	r3, #1
 800483c:	d0f9      	beq.n	8004832 <prvDeleteTCB+0x12>
 800483e:	2b02      	cmp	r3, #2
 8004840:	d008      	beq.n	8004854 <prvDeleteTCB+0x34>
 8004842:	f04f 0350 	mov.w	r3, #80	@ 0x50
 8004846:	f383 8811 	msr	BASEPRI, r3
 800484a:	f3bf 8f6f 	isb	sy
 800484e:	f3bf 8f4f 	dsb	sy
 8004852:	e7fe      	b.n	8004852 <prvDeleteTCB+0x32>
 8004854:	bd10      	pop	{r4, pc}
	...

08004858 <prvIdleTask>:
 8004858:	b580      	push	{r7, lr}
 800485a:	4c13      	ldr	r4, [pc, #76]	@ (80048a8 <prvIdleTask+0x50>)
 800485c:	4f13      	ldr	r7, [pc, #76]	@ (80048ac <prvIdleTask+0x54>)
 800485e:	4d14      	ldr	r5, [pc, #80]	@ (80048b0 <prvIdleTask+0x58>)
 8004860:	6823      	ldr	r3, [r4, #0]
 8004862:	b973      	cbnz	r3, 8004882 <prvIdleTask+0x2a>
 8004864:	4b13      	ldr	r3, [pc, #76]	@ (80048b4 <prvIdleTask+0x5c>)
 8004866:	681b      	ldr	r3, [r3, #0]
 8004868:	2b01      	cmp	r3, #1
 800486a:	d9f8      	bls.n	800485e <prvIdleTask+0x6>
 800486c:	f04f 23e0 	mov.w	r3, #3758153728	@ 0xe000e000
 8004870:	f04f 5280 	mov.w	r2, #268435456	@ 0x10000000
 8004874:	f8c3 2d04 	str.w	r2, [r3, #3332]	@ 0xd04
 8004878:	f3bf 8f4f 	dsb	sy
 800487c:	f3bf 8f6f 	isb	sy
 8004880:	e7ed      	b.n	800485e <prvIdleTask+0x6>
 8004882:	f000 fedf 	bl	8005644 <vPortEnterCritical>
 8004886:	68fb      	ldr	r3, [r7, #12]
 8004888:	68de      	ldr	r6, [r3, #12]
 800488a:	1d30      	adds	r0, r6, #4
 800488c:	f7ff fbf6 	bl	800407c <uxListRemove>
 8004890:	682b      	ldr	r3, [r5, #0]
 8004892:	3b01      	subs	r3, #1
 8004894:	602b      	str	r3, [r5, #0]
 8004896:	6823      	ldr	r3, [r4, #0]
 8004898:	3b01      	subs	r3, #1
 800489a:	6023      	str	r3, [r4, #0]
 800489c:	f000 fef2 	bl	8005684 <vPortExitCritical>
 80048a0:	4630      	mov	r0, r6
 80048a2:	f7ff ffbd 	bl	8004820 <prvDeleteTCB>
 80048a6:	e7db      	b.n	8004860 <prvIdleTask+0x8>
 80048a8:	200021c0 	.word	0x200021c0
 80048ac:	200021c4 	.word	0x200021c4
 80048b0:	200021a8 	.word	0x200021a8
 80048b4:	2000221c 	.word	0x2000221c

080048b8 <prvInitialiseNewTask.constprop.0>:
 80048b8:	e92d 47f0 	stmdb	sp!, {r4, r5, r6, r7, r8, r9, sl, lr}
 80048bc:	e9dd 9409 	ldrd	r9, r4, [sp, #36]	@ 0x24
 80048c0:	0096      	lsls	r6, r2, #2
 80048c2:	460d      	mov	r5, r1
 80048c4:	4632      	mov	r2, r6
 80048c6:	4607      	mov	r7, r0
 80048c8:	21a5      	movs	r1, #165	@ 0xa5
 80048ca:	6b20      	ldr	r0, [r4, #48]	@ 0x30
 80048cc:	4698      	mov	r8, r3
 80048ce:	f001 f8e9 	bl	8005aa4 <memset>
 80048d2:	6b23      	ldr	r3, [r4, #48]	@ 0x30
 80048d4:	3e04      	subs	r6, #4
 80048d6:	441e      	add	r6, r3
 80048d8:	f026 0607 	bic.w	r6, r6, #7
 80048dc:	1e6b      	subs	r3, r5, #1
 80048de:	f104 0233 	add.w	r2, r4, #51	@ 0x33
 80048e2:	350f      	adds	r5, #15
 80048e4:	f813 1f01 	ldrb.w	r1, [r3, #1]!
 80048e8:	f802 1f01 	strb.w	r1, [r2, #1]!
 80048ec:	b109      	cbz	r1, 80048f2 <prvInitialiseNewTask.constprop.0+0x3a>
 80048ee:	42ab      	cmp	r3, r5
 80048f0:	d1f8      	bne.n	80048e4 <prvInitialiseNewTask.constprop.0+0x2c>
 80048f2:	9d08      	ldr	r5, [sp, #32]
 80048f4:	2d37      	cmp	r5, #55	@ 0x37
 80048f6:	bf28      	it	cs
 80048f8:	2537      	movcs	r5, #55	@ 0x37
 80048fa:	f04f 0a00 	mov.w	sl, #0
 80048fe:	e9c4 5a13 	strd	r5, sl, [r4, #76]	@ 0x4c
 8004902:	62e5      	str	r5, [r4, #44]	@ 0x2c
 8004904:	1d20      	adds	r0, r4, #4
 8004906:	f884 a043 	strb.w	sl, [r4, #67]	@ 0x43
 800490a:	f7ff fb92 	bl	8004032 <vListInitialiseItem>
 800490e:	f1c5 0538 	rsb	r5, r5, #56	@ 0x38
 8004912:	f104 0018 	add.w	r0, r4, #24
 8004916:	f7ff fb8c 	bl	8004032 <vListInitialiseItem>
 800491a:	f8c4 a054 	str.w	sl, [r4, #84]	@ 0x54
 800491e:	6124      	str	r4, [r4, #16]
 8004920:	61a5      	str	r5, [r4, #24]
 8004922:	6264      	str	r4, [r4, #36]	@ 0x24
 8004924:	f884 a058 	strb.w	sl, [r4, #88]	@ 0x58
 8004928:	4642      	mov	r2, r8
 800492a:	4639      	mov	r1, r7
 800492c:	4630      	mov	r0, r6
 800492e:	f000 fe5b 	bl	80055e8 <pxPortInitialiseStack>
 8004932:	6020      	str	r0, [r4, #0]
 8004934:	f1b9 0f00 	cmp.w	r9, #0
 8004938:	d001      	beq.n	800493e <prvInitialiseNewTask.constprop.0+0x86>
 800493a:	f8c9 4000 	str.w	r4, [r9]
 800493e:	e8bd 87f0 	ldmia.w	sp!, {r4, r5, r6, r7, r8, r9, sl, pc}

08004942 <xTaskCreateStatic>:
 8004942:	b570      	push	{r4, r5, r6, lr}
 8004944:	b086      	sub	sp, #24
 8004946:	e9dd 540b 	ldrd	r5, r4, [sp, #44]	@ 0x2c
 800494a:	b945      	cbnz	r5, 800495e <xTaskCreateStatic+0x1c>
 800494c:	f04f 0350 	mov.w	r3, #80	@ 0x50
 8004950:	f383 8811 	msr	BASEPRI, r3
 8004954:	f3bf 8f6f 	isb	sy
 8004958:	f3bf 8f4f 	dsb	sy
 800495c:	e7fe      	b.n	800495c <xTaskCreateStatic+0x1a>
 800495e:	b944      	cbnz	r4, 8004972 <xTaskCreateStatic+0x30>
 8004960:	f04f 0350 	mov.w	r3, #80	@ 0x50
 8004964:	f383 8811 	msr	BASEPRI, r3
 8004968:	f3bf 8f6f 	isb	sy
 800496c:	f3bf 8f4f 	dsb	sy
 8004970:	e7fe      	b.n	8004970 <xTaskCreateStatic+0x2e>
 8004972:	265c      	movs	r6, #92	@ 0x5c
 8004974:	9605      	str	r6, [sp, #20]
 8004976:	9e05      	ldr	r6, [sp, #20]
 8004978:	2e5c      	cmp	r6, #92	@ 0x5c
 800497a:	d008      	beq.n	800498e <xTaskCreateStatic+0x4c>
 800497c:	f04f 0350 	mov.w	r3, #80	@ 0x50
 8004980:	f383 8811 	msr	BASEPRI, r3
 8004984:	f3bf 8f6f 	isb	sy
 8004988:	f3bf 8f4f 	dsb	sy
 800498c:	e7fe      	b.n	800498c <xTaskCreateStatic+0x4a>
 800498e:	6325      	str	r5, [r4, #48]	@ 0x30
 8004990:	2502      	movs	r5, #2
 8004992:	f884 5059 	strb.w	r5, [r4, #89]	@ 0x59
 8004996:	ad04      	add	r5, sp, #16
 8004998:	9501      	str	r5, [sp, #4]
 800499a:	9d0a      	ldr	r5, [sp, #40]	@ 0x28
 800499c:	9402      	str	r4, [sp, #8]
 800499e:	9500      	str	r5, [sp, #0]
 80049a0:	f7ff ff8a 	bl	80048b8 <prvInitialiseNewTask.constprop.0>
 80049a4:	4620      	mov	r0, r4
 80049a6:	f7ff fe71 	bl	800468c <prvAddNewTaskToReadyList>
 80049aa:	9804      	ldr	r0, [sp, #16]
 80049ac:	b006      	add	sp, #24
 80049ae:	bd70      	pop	{r4, r5, r6, pc}

080049b0 <xTaskCreate>:
 80049b0:	e92d 43f0 	stmdb	sp!, {r4, r5, r6, r7, r8, r9, lr}
 80049b4:	4607      	mov	r7, r0
 80049b6:	b085      	sub	sp, #20
 80049b8:	0090      	lsls	r0, r2, #2
 80049ba:	4688      	mov	r8, r1
 80049bc:	4616      	mov	r6, r2
 80049be:	4699      	mov	r9, r3
 80049c0:	f000 ffa6 	bl	8005910 <pvPortMalloc>
 80049c4:	4605      	mov	r5, r0
 80049c6:	b920      	cbnz	r0, 80049d2 <xTaskCreate+0x22>
 80049c8:	f04f 30ff 	mov.w	r0, #4294967295	@ 0xffffffff
 80049cc:	b005      	add	sp, #20
 80049ce:	e8bd 83f0 	ldmia.w	sp!, {r4, r5, r6, r7, r8, r9, pc}
 80049d2:	205c      	movs	r0, #92	@ 0x5c
 80049d4:	f000 ff9c 	bl	8005910 <pvPortMalloc>
 80049d8:	4604      	mov	r4, r0
 80049da:	b198      	cbz	r0, 8004a04 <xTaskCreate+0x54>
 80049dc:	2300      	movs	r3, #0
 80049de:	f880 3059 	strb.w	r3, [r0, #89]	@ 0x59
 80049e2:	9b0d      	ldr	r3, [sp, #52]	@ 0x34
 80049e4:	6305      	str	r5, [r0, #48]	@ 0x30
 80049e6:	9301      	str	r3, [sp, #4]
 80049e8:	9b0c      	ldr	r3, [sp, #48]	@ 0x30
 80049ea:	9002      	str	r0, [sp, #8]
 80049ec:	9300      	str	r3, [sp, #0]
 80049ee:	4632      	mov	r2, r6
 80049f0:	464b      	mov	r3, r9
 80049f2:	4641      	mov	r1, r8
 80049f4:	4638      	mov	r0, r7
 80049f6:	f7ff ff5f 	bl	80048b8 <prvInitialiseNewTask.constprop.0>
 80049fa:	4620      	mov	r0, r4
 80049fc:	f7ff fe46 	bl	800468c <prvAddNewTaskToReadyList>
 8004a00:	2001      	movs	r0, #1
 8004a02:	e7e3      	b.n	80049cc <xTaskCreate+0x1c>
 8004a04:	4628      	mov	r0, r5
 8004a06:	f001 f815 	bl	8005a34 <vPortFree>
 8004a0a:	e7dd      	b.n	80049c8 <xTaskCreate+0x18>

08004a0c <vTaskStartScheduler>:
 8004a0c:	b510      	push	{r4, lr}
 8004a0e:	b088      	sub	sp, #32
 8004a10:	2400      	movs	r4, #0
 8004a12:	aa07      	add	r2, sp, #28
 8004a14:	a906      	add	r1, sp, #24
 8004a16:	a805      	add	r0, sp, #20
 8004a18:	e9cd 4405 	strd	r4, r4, [sp, #20]
 8004a1c:	f7ff fae6 	bl	8003fec <vApplicationGetIdleTaskMemory>
 8004a20:	9b05      	ldr	r3, [sp, #20]
 8004a22:	9302      	str	r3, [sp, #8]
 8004a24:	9b06      	ldr	r3, [sp, #24]
 8004a26:	9a07      	ldr	r2, [sp, #28]
 8004a28:	4916      	ldr	r1, [pc, #88]	@ (8004a84 <vTaskStartScheduler+0x78>)
 8004a2a:	4817      	ldr	r0, [pc, #92]	@ (8004a88 <vTaskStartScheduler+0x7c>)
 8004a2c:	e9cd 4300 	strd	r4, r3, [sp]
 8004a30:	4623      	mov	r3, r4
 8004a32:	f7ff ff86 	bl	8004942 <xTaskCreateStatic>
 8004a36:	b318      	cbz	r0, 8004a80 <vTaskStartScheduler+0x74>
 8004a38:	f000 fc0e 	bl	8005258 <xTimerCreateTimerTask>
 8004a3c:	2801      	cmp	r0, #1
 8004a3e:	d114      	bne.n	8004a6a <vTaskStartScheduler+0x5e>
 8004a40:	f04f 0350 	mov.w	r3, #80	@ 0x50
 8004a44:	f383 8811 	msr	BASEPRI, r3
 8004a48:	f3bf 8f6f 	isb	sy
 8004a4c:	f3bf 8f4f 	dsb	sy
 8004a50:	4b0e      	ldr	r3, [pc, #56]	@ (8004a8c <vTaskStartScheduler+0x80>)
 8004a52:	f04f 32ff 	mov.w	r2, #4294967295	@ 0xffffffff
 8004a56:	601a      	str	r2, [r3, #0]
 8004a58:	4b0d      	ldr	r3, [pc, #52]	@ (8004a90 <vTaskStartScheduler+0x84>)
 8004a5a:	6018      	str	r0, [r3, #0]
 8004a5c:	4b0d      	ldr	r3, [pc, #52]	@ (8004a94 <vTaskStartScheduler+0x88>)
 8004a5e:	601c      	str	r4, [r3, #0]
 8004a60:	b008      	add	sp, #32
 8004a62:	e8bd 4010 	ldmia.w	sp!, {r4, lr}
 8004a66:	f000 be7d 	b.w	8005764 <xPortStartScheduler>
 8004a6a:	3001      	adds	r0, #1
 8004a6c:	d108      	bne.n	8004a80 <vTaskStartScheduler+0x74>
 8004a6e:	f04f 0350 	mov.w	r3, #80	@ 0x50
 8004a72:	f383 8811 	msr	BASEPRI, r3
 8004a76:	f3bf 8f6f 	isb	sy
 8004a7a:	f3bf 8f4f 	dsb	sy
 8004a7e:	e7fe      	b.n	8004a7e <vTaskStartScheduler+0x72>
 8004a80:	b008      	add	sp, #32
 8004a82:	bd10      	pop	{r4, pc}
 8004a84:	08005b43 	.word	0x08005b43
 8004a88:	08004859 	.word	0x08004859
 8004a8c:	20002188 	.word	0x20002188
 8004a90:	2000219c 	.word	0x2000219c
 8004a94:	200021a4 	.word	0x200021a4

08004a98 <vTaskSuspendAll>:
 8004a98:	4a02      	ldr	r2, [pc, #8]	@ (8004aa4 <vTaskSuspendAll+0xc>)
 8004a9a:	6813      	ldr	r3, [r2, #0]
 8004a9c:	3301      	adds	r3, #1
 8004a9e:	6013      	str	r3, [r2, #0]
 8004aa0:	4770      	bx	lr
 8004aa2:	bf00      	nop
 8004aa4:	20002184 	.word	0x20002184

08004aa8 <xTaskGetTickCount>:
 8004aa8:	4b01      	ldr	r3, [pc, #4]	@ (8004ab0 <xTaskGetTickCount+0x8>)
 8004aaa:	6818      	ldr	r0, [r3, #0]
 8004aac:	4770      	bx	lr
 8004aae:	bf00      	nop
 8004ab0:	200021a4 	.word	0x200021a4

08004ab4 <xTaskIncrementTick>:
 8004ab4:	4b3f      	ldr	r3, [pc, #252]	@ (8004bb4 <xTaskIncrementTick+0x100>)
 8004ab6:	681b      	ldr	r3, [r3, #0]
 8004ab8:	e92d 4ff7 	stmdb	sp!, {r0, r1, r2, r4, r5, r6, r7, r8, r9, sl, fp, lr}
 8004abc:	2b00      	cmp	r3, #0
 8004abe:	d171      	bne.n	8004ba4 <xTaskIncrementTick+0xf0>
 8004ac0:	4b3d      	ldr	r3, [pc, #244]	@ (8004bb8 <xTaskIncrementTick+0x104>)
 8004ac2:	681c      	ldr	r4, [r3, #0]
 8004ac4:	3401      	adds	r4, #1
 8004ac6:	601c      	str	r4, [r3, #0]
 8004ac8:	b9bc      	cbnz	r4, 8004afa <xTaskIncrementTick+0x46>
 8004aca:	4b3c      	ldr	r3, [pc, #240]	@ (8004bbc <xTaskIncrementTick+0x108>)
 8004acc:	681a      	ldr	r2, [r3, #0]
 8004ace:	6812      	ldr	r2, [r2, #0]
 8004ad0:	b142      	cbz	r2, 8004ae4 <xTaskIncrementTick+0x30>
 8004ad2:	f04f 0350 	mov.w	r3, #80	@ 0x50
 8004ad6:	f383 8811 	msr	BASEPRI, r3
 8004ada:	f3bf 8f6f 	isb	sy
 8004ade:	f3bf 8f4f 	dsb	sy
 8004ae2:	e7fe      	b.n	8004ae2 <xTaskIncrementTick+0x2e>
 8004ae4:	4a36      	ldr	r2, [pc, #216]	@ (8004bc0 <xTaskIncrementTick+0x10c>)
 8004ae6:	6819      	ldr	r1, [r3, #0]
 8004ae8:	6810      	ldr	r0, [r2, #0]
 8004aea:	6018      	str	r0, [r3, #0]
 8004aec:	6011      	str	r1, [r2, #0]
 8004aee:	4a35      	ldr	r2, [pc, #212]	@ (8004bc4 <xTaskIncrementTick+0x110>)
 8004af0:	6813      	ldr	r3, [r2, #0]
 8004af2:	3301      	adds	r3, #1
 8004af4:	6013      	str	r3, [r2, #0]
 8004af6:	f7ff fe81 	bl	80047fc <prvResetNextTaskUnblockTime>
 8004afa:	4d33      	ldr	r5, [pc, #204]	@ (8004bc8 <xTaskIncrementTick+0x114>)
 8004afc:	4e33      	ldr	r6, [pc, #204]	@ (8004bcc <xTaskIncrementTick+0x118>)
 8004afe:	682b      	ldr	r3, [r5, #0]
 8004b00:	4f33      	ldr	r7, [pc, #204]	@ (8004bd0 <xTaskIncrementTick+0x11c>)
 8004b02:	42a3      	cmp	r3, r4
 8004b04:	f04f 0b00 	mov.w	fp, #0
 8004b08:	d911      	bls.n	8004b2e <xTaskIncrementTick+0x7a>
 8004b0a:	683a      	ldr	r2, [r7, #0]
 8004b0c:	6ad2      	ldr	r2, [r2, #44]	@ 0x2c
 8004b0e:	2114      	movs	r1, #20
 8004b10:	434a      	muls	r2, r1
 8004b12:	58b2      	ldr	r2, [r6, r2]
 8004b14:	2a02      	cmp	r2, #2
 8004b16:	bf28      	it	cs
 8004b18:	f04f 0b01 	movcs.w	fp, #1
 8004b1c:	4a2d      	ldr	r2, [pc, #180]	@ (8004bd4 <xTaskIncrementTick+0x120>)
 8004b1e:	6812      	ldr	r2, [r2, #0]
 8004b20:	2a00      	cmp	r2, #0
 8004b22:	bf0c      	ite	eq
 8004b24:	4658      	moveq	r0, fp
 8004b26:	2001      	movne	r0, #1
 8004b28:	b003      	add	sp, #12
 8004b2a:	e8bd 8ff0 	ldmia.w	sp!, {r4, r5, r6, r7, r8, r9, sl, fp, pc}
 8004b2e:	f8df 908c 	ldr.w	r9, [pc, #140]	@ 8004bbc <xTaskIncrementTick+0x108>
 8004b32:	f8df a0a8 	ldr.w	sl, [pc, #168]	@ 8004bdc <xTaskIncrementTick+0x128>
 8004b36:	f8d9 2000 	ldr.w	r2, [r9]
 8004b3a:	6812      	ldr	r2, [r2, #0]
 8004b3c:	b91a      	cbnz	r2, 8004b46 <xTaskIncrementTick+0x92>
 8004b3e:	f04f 32ff 	mov.w	r2, #4294967295	@ 0xffffffff
 8004b42:	602a      	str	r2, [r5, #0]
 8004b44:	e7e1      	b.n	8004b0a <xTaskIncrementTick+0x56>
 8004b46:	f8d9 2000 	ldr.w	r2, [r9]
 8004b4a:	68d2      	ldr	r2, [r2, #12]
 8004b4c:	f8d2 800c 	ldr.w	r8, [r2, #12]
 8004b50:	f8d8 1004 	ldr.w	r1, [r8, #4]
 8004b54:	428c      	cmp	r4, r1
 8004b56:	d201      	bcs.n	8004b5c <xTaskIncrementTick+0xa8>
 8004b58:	6029      	str	r1, [r5, #0]
 8004b5a:	e7d6      	b.n	8004b0a <xTaskIncrementTick+0x56>
 8004b5c:	f108 0304 	add.w	r3, r8, #4
 8004b60:	4618      	mov	r0, r3
 8004b62:	9301      	str	r3, [sp, #4]
 8004b64:	f7ff fa8a 	bl	800407c <uxListRemove>
 8004b68:	f8d8 1028 	ldr.w	r1, [r8, #40]	@ 0x28
 8004b6c:	b119      	cbz	r1, 8004b76 <xTaskIncrementTick+0xc2>
 8004b6e:	f108 0018 	add.w	r0, r8, #24
 8004b72:	f7ff fa83 	bl	800407c <uxListRemove>
 8004b76:	f8d8 002c 	ldr.w	r0, [r8, #44]	@ 0x2c
 8004b7a:	f8da 1000 	ldr.w	r1, [sl]
 8004b7e:	2314      	movs	r3, #20
 8004b80:	4288      	cmp	r0, r1
 8004b82:	bf88      	it	hi
 8004b84:	f8ca 0000 	strhi.w	r0, [sl]
 8004b88:	9901      	ldr	r1, [sp, #4]
 8004b8a:	fb03 6000 	mla	r0, r3, r0, r6
 8004b8e:	f7ff fa53 	bl	8004038 <vListInsertEnd>
 8004b92:	6838      	ldr	r0, [r7, #0]
 8004b94:	f8d8 102c 	ldr.w	r1, [r8, #44]	@ 0x2c
 8004b98:	6ac2      	ldr	r2, [r0, #44]	@ 0x2c
 8004b9a:	4291      	cmp	r1, r2
 8004b9c:	bf28      	it	cs
 8004b9e:	f04f 0b01 	movcs.w	fp, #1
 8004ba2:	e7c8      	b.n	8004b36 <xTaskIncrementTick+0x82>
 8004ba4:	4a0c      	ldr	r2, [pc, #48]	@ (8004bd8 <xTaskIncrementTick+0x124>)
 8004ba6:	6813      	ldr	r3, [r2, #0]
 8004ba8:	3301      	adds	r3, #1
 8004baa:	6013      	str	r3, [r2, #0]
 8004bac:	f04f 0b00 	mov.w	fp, #0
 8004bb0:	e7b4      	b.n	8004b1c <xTaskIncrementTick+0x68>
 8004bb2:	bf00      	nop
 8004bb4:	20002184 	.word	0x20002184
 8004bb8:	200021a4 	.word	0x200021a4
 8004bbc:	200021f0 	.word	0x200021f0
 8004bc0:	200021ec 	.word	0x200021ec
 8004bc4:	20002190 	.word	0x20002190
 8004bc8:	20002188 	.word	0x20002188
 8004bcc:	2000221c 	.word	0x2000221c
 8004bd0:	2000267c 	.word	0x2000267c
 8004bd4:	20002194 	.word	0x20002194
 8004bd8:	20002198 	.word	0x20002198
 8004bdc:	200021a0 	.word	0x200021a0

08004be0 <xTaskResumeAll>:
 8004be0:	e92d 41f0 	stmdb	sp!, {r4, r5, r6, r7, r8, lr}
 8004be4:	4c30      	ldr	r4, [pc, #192]	@ (8004ca8 <xTaskResumeAll+0xc8>)
 8004be6:	6823      	ldr	r3, [r4, #0]
 8004be8:	b943      	cbnz	r3, 8004bfc <xTaskResumeAll+0x1c>
 8004bea:	f04f 0350 	mov.w	r3, #80	@ 0x50
 8004bee:	f383 8811 	msr	BASEPRI, r3
 8004bf2:	f3bf 8f6f 	isb	sy
 8004bf6:	f3bf 8f4f 	dsb	sy
 8004bfa:	e7fe      	b.n	8004bfa <xTaskResumeAll+0x1a>
 8004bfc:	f000 fd22 	bl	8005644 <vPortEnterCritical>
 8004c00:	6823      	ldr	r3, [r4, #0]
 8004c02:	3b01      	subs	r3, #1
 8004c04:	6023      	str	r3, [r4, #0]
 8004c06:	6824      	ldr	r4, [r4, #0]
 8004c08:	b12c      	cbz	r4, 8004c16 <xTaskResumeAll+0x36>
 8004c0a:	2400      	movs	r4, #0
 8004c0c:	f000 fd3a 	bl	8005684 <vPortExitCritical>
 8004c10:	4620      	mov	r0, r4
 8004c12:	e8bd 81f0 	ldmia.w	sp!, {r4, r5, r6, r7, r8, pc}
 8004c16:	4b25      	ldr	r3, [pc, #148]	@ (8004cac <xTaskResumeAll+0xcc>)
 8004c18:	681b      	ldr	r3, [r3, #0]
 8004c1a:	2b00      	cmp	r3, #0
 8004c1c:	d0f5      	beq.n	8004c0a <xTaskResumeAll+0x2a>
 8004c1e:	4d24      	ldr	r5, [pc, #144]	@ (8004cb0 <xTaskResumeAll+0xd0>)
 8004c20:	4e24      	ldr	r6, [pc, #144]	@ (8004cb4 <xTaskResumeAll+0xd4>)
 8004c22:	f8df 80a0 	ldr.w	r8, [pc, #160]	@ 8004cc4 <xTaskResumeAll+0xe4>
 8004c26:	e01d      	b.n	8004c64 <xTaskResumeAll+0x84>
 8004c28:	68eb      	ldr	r3, [r5, #12]
 8004c2a:	68dc      	ldr	r4, [r3, #12]
 8004c2c:	1d27      	adds	r7, r4, #4
 8004c2e:	f104 0018 	add.w	r0, r4, #24
 8004c32:	f7ff fa23 	bl	800407c <uxListRemove>
 8004c36:	4638      	mov	r0, r7
 8004c38:	f7ff fa20 	bl	800407c <uxListRemove>
 8004c3c:	6ae3      	ldr	r3, [r4, #44]	@ 0x2c
 8004c3e:	6832      	ldr	r2, [r6, #0]
 8004c40:	2014      	movs	r0, #20
 8004c42:	4293      	cmp	r3, r2
 8004c44:	fb00 8003 	mla	r0, r0, r3, r8
 8004c48:	4639      	mov	r1, r7
 8004c4a:	bf88      	it	hi
 8004c4c:	6033      	strhi	r3, [r6, #0]
 8004c4e:	f7ff f9f3 	bl	8004038 <vListInsertEnd>
 8004c52:	4b19      	ldr	r3, [pc, #100]	@ (8004cb8 <xTaskResumeAll+0xd8>)
 8004c54:	6ae2      	ldr	r2, [r4, #44]	@ 0x2c
 8004c56:	681b      	ldr	r3, [r3, #0]
 8004c58:	6adb      	ldr	r3, [r3, #44]	@ 0x2c
 8004c5a:	429a      	cmp	r2, r3
 8004c5c:	d302      	bcc.n	8004c64 <xTaskResumeAll+0x84>
 8004c5e:	4b17      	ldr	r3, [pc, #92]	@ (8004cbc <xTaskResumeAll+0xdc>)
 8004c60:	2201      	movs	r2, #1
 8004c62:	601a      	str	r2, [r3, #0]
 8004c64:	682b      	ldr	r3, [r5, #0]
 8004c66:	2b00      	cmp	r3, #0
 8004c68:	d1de      	bne.n	8004c28 <xTaskResumeAll+0x48>
 8004c6a:	b10c      	cbz	r4, 8004c70 <xTaskResumeAll+0x90>
 8004c6c:	f7ff fdc6 	bl	80047fc <prvResetNextTaskUnblockTime>
 8004c70:	4d13      	ldr	r5, [pc, #76]	@ (8004cc0 <xTaskResumeAll+0xe0>)
 8004c72:	682c      	ldr	r4, [r5, #0]
 8004c74:	b144      	cbz	r4, 8004c88 <xTaskResumeAll+0xa8>
 8004c76:	4e11      	ldr	r6, [pc, #68]	@ (8004cbc <xTaskResumeAll+0xdc>)
 8004c78:	2701      	movs	r7, #1
 8004c7a:	f7ff ff1b 	bl	8004ab4 <xTaskIncrementTick>
 8004c7e:	b100      	cbz	r0, 8004c82 <xTaskResumeAll+0xa2>
 8004c80:	6037      	str	r7, [r6, #0]
 8004c82:	3c01      	subs	r4, #1
 8004c84:	d1f9      	bne.n	8004c7a <xTaskResumeAll+0x9a>
 8004c86:	602c      	str	r4, [r5, #0]
 8004c88:	4b0c      	ldr	r3, [pc, #48]	@ (8004cbc <xTaskResumeAll+0xdc>)
 8004c8a:	681b      	ldr	r3, [r3, #0]
 8004c8c:	2b00      	cmp	r3, #0
 8004c8e:	d0bc      	beq.n	8004c0a <xTaskResumeAll+0x2a>
 8004c90:	f04f 23e0 	mov.w	r3, #3758153728	@ 0xe000e000
 8004c94:	f04f 5280 	mov.w	r2, #268435456	@ 0x10000000
 8004c98:	f8c3 2d04 	str.w	r2, [r3, #3332]	@ 0xd04
 8004c9c:	f3bf 8f4f 	dsb	sy
 8004ca0:	f3bf 8f6f 	isb	sy
 8004ca4:	2401      	movs	r4, #1
 8004ca6:	e7b1      	b.n	8004c0c <xTaskResumeAll+0x2c>
 8004ca8:	20002184 	.word	0x20002184
 8004cac:	200021a8 	.word	0x200021a8
 8004cb0:	200021d8 	.word	0x200021d8
 8004cb4:	200021a0 	.word	0x200021a0
 8004cb8:	2000267c 	.word	0x2000267c
 8004cbc:	20002194 	.word	0x20002194
 8004cc0:	20002198 	.word	0x20002198
 8004cc4:	2000221c 	.word	0x2000221c

08004cc8 <vTaskDelay>:
 8004cc8:	b508      	push	{r3, lr}
 8004cca:	b950      	cbnz	r0, 8004ce2 <vTaskDelay+0x1a>
 8004ccc:	f04f 23e0 	mov.w	r3, #3758153728	@ 0xe000e000
 8004cd0:	f04f 5280 	mov.w	r2, #268435456	@ 0x10000000
 8004cd4:	f8c3 2d04 	str.w	r2, [r3, #3332]	@ 0xd04
 8004cd8:	f3bf 8f4f 	dsb	sy
 8004cdc:	f3bf 8f6f 	isb	sy
 8004ce0:	bd08      	pop	{r3, pc}
 8004ce2:	4b0a      	ldr	r3, [pc, #40]	@ (8004d0c <vTaskDelay+0x44>)
 8004ce4:	6819      	ldr	r1, [r3, #0]
 8004ce6:	b141      	cbz	r1, 8004cfa <vTaskDelay+0x32>
 8004ce8:	f04f 0350 	mov.w	r3, #80	@ 0x50
 8004cec:	f383 8811 	msr	BASEPRI, r3
 8004cf0:	f3bf 8f6f 	isb	sy
 8004cf4:	f3bf 8f4f 	dsb	sy
 8004cf8:	e7fe      	b.n	8004cf8 <vTaskDelay+0x30>
 8004cfa:	f7ff fecd 	bl	8004a98 <vTaskSuspendAll>
 8004cfe:	f7ff fd45 	bl	800478c <prvAddCurrentTaskToDelayedList>
 8004d02:	f7ff ff6d 	bl	8004be0 <xTaskResumeAll>
 8004d06:	2800      	cmp	r0, #0
 8004d08:	d0e0      	beq.n	8004ccc <vTaskDelay+0x4>
 8004d0a:	e7e9      	b.n	8004ce0 <vTaskDelay+0x18>
 8004d0c:	20002184 	.word	0x20002184

08004d10 <vTaskSwitchContext>:
 8004d10:	4b17      	ldr	r3, [pc, #92]	@ (8004d70 <vTaskSwitchContext+0x60>)
 8004d12:	681a      	ldr	r2, [r3, #0]
 8004d14:	4b17      	ldr	r3, [pc, #92]	@ (8004d74 <vTaskSwitchContext+0x64>)
 8004d16:	b570      	push	{r4, r5, r6, lr}
 8004d18:	b112      	cbz	r2, 8004d20 <vTaskSwitchContext+0x10>
 8004d1a:	2201      	movs	r2, #1
 8004d1c:	601a      	str	r2, [r3, #0]
 8004d1e:	bd70      	pop	{r4, r5, r6, pc}
 8004d20:	4d15      	ldr	r5, [pc, #84]	@ (8004d78 <vTaskSwitchContext+0x68>)
 8004d22:	601a      	str	r2, [r3, #0]
 8004d24:	682a      	ldr	r2, [r5, #0]
 8004d26:	4915      	ldr	r1, [pc, #84]	@ (8004d7c <vTaskSwitchContext+0x6c>)
 8004d28:	2614      	movs	r6, #20
 8004d2a:	fb06 f302 	mul.w	r3, r6, r2
 8004d2e:	18c8      	adds	r0, r1, r3
 8004d30:	58cc      	ldr	r4, [r1, r3]
 8004d32:	b18c      	cbz	r4, 8004d58 <vTaskSwitchContext+0x48>
 8004d34:	6844      	ldr	r4, [r0, #4]
 8004d36:	3308      	adds	r3, #8
 8004d38:	6864      	ldr	r4, [r4, #4]
 8004d3a:	6044      	str	r4, [r0, #4]
 8004d3c:	440b      	add	r3, r1
 8004d3e:	429c      	cmp	r4, r3
 8004d40:	bf04      	itt	eq
 8004d42:	6863      	ldreq	r3, [r4, #4]
 8004d44:	6043      	streq	r3, [r0, #4]
 8004d46:	2314      	movs	r3, #20
 8004d48:	fb03 1102 	mla	r1, r3, r2, r1
 8004d4c:	684b      	ldr	r3, [r1, #4]
 8004d4e:	68d9      	ldr	r1, [r3, #12]
 8004d50:	4b0b      	ldr	r3, [pc, #44]	@ (8004d80 <vTaskSwitchContext+0x70>)
 8004d52:	6019      	str	r1, [r3, #0]
 8004d54:	602a      	str	r2, [r5, #0]
 8004d56:	e7e2      	b.n	8004d1e <vTaskSwitchContext+0xe>
 8004d58:	b942      	cbnz	r2, 8004d6c <vTaskSwitchContext+0x5c>
 8004d5a:	f04f 0350 	mov.w	r3, #80	@ 0x50
 8004d5e:	f383 8811 	msr	BASEPRI, r3
 8004d62:	f3bf 8f6f 	isb	sy
 8004d66:	f3bf 8f4f 	dsb	sy
 8004d6a:	e7fe      	b.n	8004d6a <vTaskSwitchContext+0x5a>
 8004d6c:	3a01      	subs	r2, #1
 8004d6e:	e7dc      	b.n	8004d2a <vTaskSwitchContext+0x1a>
 8004d70:	20002184 	.word	0x20002184
 8004d74:	20002194 	.word	0x20002194
 8004d78:	200021a0 	.word	0x200021a0
 8004d7c:	2000221c 	.word	0x2000221c
 8004d80:	2000267c 	.word	0x2000267c

08004d84 <vTaskPlaceOnEventList>:
 8004d84:	b510      	push	{r4, lr}
 8004d86:	460c      	mov	r4, r1
 8004d88:	b940      	cbnz	r0, 8004d9c <vTaskPlaceOnEventList+0x18>
 8004d8a:	f04f 0350 	mov.w	r3, #80	@ 0x50
 8004d8e:	f383 8811 	msr	BASEPRI, r3
 8004d92:	f3bf 8f6f 	isb	sy
 8004d96:	f3bf 8f4f 	dsb	sy
 8004d9a:	e7fe      	b.n	8004d9a <vTaskPlaceOnEventList+0x16>
 8004d9c:	4b05      	ldr	r3, [pc, #20]	@ (8004db4 <vTaskPlaceOnEventList+0x30>)
 8004d9e:	6819      	ldr	r1, [r3, #0]
 8004da0:	3118      	adds	r1, #24
 8004da2:	f7ff f954 	bl	800404e <vListInsert>
 8004da6:	4620      	mov	r0, r4
 8004da8:	2101      	movs	r1, #1
 8004daa:	e8bd 4010 	ldmia.w	sp!, {r4, lr}
 8004dae:	f7ff bced 	b.w	800478c <prvAddCurrentTaskToDelayedList>
 8004db2:	bf00      	nop
 8004db4:	2000267c 	.word	0x2000267c

08004db8 <vTaskPlaceOnEventListRestricted>:
 8004db8:	b538      	push	{r3, r4, r5, lr}
 8004dba:	460d      	mov	r5, r1
 8004dbc:	4614      	mov	r4, r2
 8004dbe:	b940      	cbnz	r0, 8004dd2 <vTaskPlaceOnEventListRestricted+0x1a>
 8004dc0:	f04f 0350 	mov.w	r3, #80	@ 0x50
 8004dc4:	f383 8811 	msr	BASEPRI, r3
 8004dc8:	f3bf 8f6f 	isb	sy
 8004dcc:	f3bf 8f4f 	dsb	sy
 8004dd0:	e7fe      	b.n	8004dd0 <vTaskPlaceOnEventListRestricted+0x18>
 8004dd2:	4b07      	ldr	r3, [pc, #28]	@ (8004df0 <vTaskPlaceOnEventListRestricted+0x38>)
 8004dd4:	6819      	ldr	r1, [r3, #0]
 8004dd6:	3118      	adds	r1, #24
 8004dd8:	f7ff f92e 	bl	8004038 <vListInsertEnd>
 8004ddc:	2c00      	cmp	r4, #0
 8004dde:	4621      	mov	r1, r4
 8004de0:	bf0c      	ite	eq
 8004de2:	4628      	moveq	r0, r5
 8004de4:	f04f 30ff 	movne.w	r0, #4294967295	@ 0xffffffff
 8004de8:	e8bd 4038 	ldmia.w	sp!, {r3, r4, r5, lr}
 8004dec:	f7ff bcce 	b.w	800478c <prvAddCurrentTaskToDelayedList>
 8004df0:	2000267c 	.word	0x2000267c

08004df4 <xTaskRemoveFromEventList>:
 8004df4:	b538      	push	{r3, r4, r5, lr}
 8004df6:	68c3      	ldr	r3, [r0, #12]
 8004df8:	68dc      	ldr	r4, [r3, #12]
 8004dfa:	b944      	cbnz	r4, 8004e0e <xTaskRemoveFromEventList+0x1a>
 8004dfc:	f04f 0350 	mov.w	r3, #80	@ 0x50
 8004e00:	f383 8811 	msr	BASEPRI, r3
 8004e04:	f3bf 8f6f 	isb	sy
 8004e08:	f3bf 8f4f 	dsb	sy
 8004e0c:	e7fe      	b.n	8004e0c <xTaskRemoveFromEventList+0x18>
 8004e0e:	f104 0518 	add.w	r5, r4, #24
 8004e12:	4628      	mov	r0, r5
 8004e14:	f7ff f932 	bl	800407c <uxListRemove>
 8004e18:	4b10      	ldr	r3, [pc, #64]	@ (8004e5c <xTaskRemoveFromEventList+0x68>)
 8004e1a:	681b      	ldr	r3, [r3, #0]
 8004e1c:	b9db      	cbnz	r3, 8004e56 <xTaskRemoveFromEventList+0x62>
 8004e1e:	1d25      	adds	r5, r4, #4
 8004e20:	4628      	mov	r0, r5
 8004e22:	f7ff f92b 	bl	800407c <uxListRemove>
 8004e26:	4a0e      	ldr	r2, [pc, #56]	@ (8004e60 <xTaskRemoveFromEventList+0x6c>)
 8004e28:	6ae3      	ldr	r3, [r4, #44]	@ 0x2c
 8004e2a:	6811      	ldr	r1, [r2, #0]
 8004e2c:	428b      	cmp	r3, r1
 8004e2e:	bf88      	it	hi
 8004e30:	6013      	strhi	r3, [r2, #0]
 8004e32:	4a0c      	ldr	r2, [pc, #48]	@ (8004e64 <xTaskRemoveFromEventList+0x70>)
 8004e34:	2014      	movs	r0, #20
 8004e36:	4629      	mov	r1, r5
 8004e38:	fb00 2003 	mla	r0, r0, r3, r2
 8004e3c:	f7ff f8fc 	bl	8004038 <vListInsertEnd>
 8004e40:	4b09      	ldr	r3, [pc, #36]	@ (8004e68 <xTaskRemoveFromEventList+0x74>)
 8004e42:	6ae2      	ldr	r2, [r4, #44]	@ 0x2c
 8004e44:	681b      	ldr	r3, [r3, #0]
 8004e46:	6adb      	ldr	r3, [r3, #44]	@ 0x2c
 8004e48:	429a      	cmp	r2, r3
 8004e4a:	bf83      	ittte	hi
 8004e4c:	4b07      	ldrhi	r3, [pc, #28]	@ (8004e6c <xTaskRemoveFromEventList+0x78>)
 8004e4e:	2001      	movhi	r0, #1
 8004e50:	6018      	strhi	r0, [r3, #0]
 8004e52:	2000      	movls	r0, #0
 8004e54:	bd38      	pop	{r3, r4, r5, pc}
 8004e56:	4806      	ldr	r0, [pc, #24]	@ (8004e70 <xTaskRemoveFromEventList+0x7c>)
 8004e58:	4629      	mov	r1, r5
 8004e5a:	e7ef      	b.n	8004e3c <xTaskRemoveFromEventList+0x48>
 8004e5c:	20002184 	.word	0x20002184
 8004e60:	200021a0 	.word	0x200021a0
 8004e64:	2000221c 	.word	0x2000221c
 8004e68:	2000267c 	.word	0x2000267c
 8004e6c:	20002194 	.word	0x20002194
 8004e70:	200021d8 	.word	0x200021d8

08004e74 <vTaskInternalSetTimeOutState>:
 8004e74:	4b03      	ldr	r3, [pc, #12]	@ (8004e84 <vTaskInternalSetTimeOutState+0x10>)
 8004e76:	681b      	ldr	r3, [r3, #0]
 8004e78:	6003      	str	r3, [r0, #0]
 8004e7a:	4b03      	ldr	r3, [pc, #12]	@ (8004e88 <vTaskInternalSetTimeOutState+0x14>)
 8004e7c:	681b      	ldr	r3, [r3, #0]
 8004e7e:	6043      	str	r3, [r0, #4]
 8004e80:	4770      	bx	lr
 8004e82:	bf00      	nop
 8004e84:	20002190 	.word	0x20002190
 8004e88:	200021a4 	.word	0x200021a4

08004e8c <xTaskCheckForTimeOut>:
 8004e8c:	b570      	push	{r4, r5, r6, lr}
 8004e8e:	460c      	mov	r4, r1
 8004e90:	4605      	mov	r5, r0
 8004e92:	b940      	cbnz	r0, 8004ea6 <xTaskCheckForTimeOut+0x1a>
 8004e94:	f04f 0350 	mov.w	r3, #80	@ 0x50
 8004e98:	f383 8811 	msr	BASEPRI, r3
 8004e9c:	f3bf 8f6f 	isb	sy
 8004ea0:	f3bf 8f4f 	dsb	sy
 8004ea4:	e7fe      	b.n	8004ea4 <xTaskCheckForTimeOut+0x18>
 8004ea6:	b941      	cbnz	r1, 8004eba <xTaskCheckForTimeOut+0x2e>
 8004ea8:	f04f 0350 	mov.w	r3, #80	@ 0x50
 8004eac:	f383 8811 	msr	BASEPRI, r3
 8004eb0:	f3bf 8f6f 	isb	sy
 8004eb4:	f3bf 8f4f 	dsb	sy
 8004eb8:	e7fe      	b.n	8004eb8 <xTaskCheckForTimeOut+0x2c>
 8004eba:	f000 fbc3 	bl	8005644 <vPortEnterCritical>
 8004ebe:	4b0f      	ldr	r3, [pc, #60]	@ (8004efc <xTaskCheckForTimeOut+0x70>)
 8004ec0:	6819      	ldr	r1, [r3, #0]
 8004ec2:	6823      	ldr	r3, [r4, #0]
 8004ec4:	1c5a      	adds	r2, r3, #1
 8004ec6:	d010      	beq.n	8004eea <xTaskCheckForTimeOut+0x5e>
 8004ec8:	480d      	ldr	r0, [pc, #52]	@ (8004f00 <xTaskCheckForTimeOut+0x74>)
 8004eca:	682e      	ldr	r6, [r5, #0]
 8004ecc:	6800      	ldr	r0, [r0, #0]
 8004ece:	686a      	ldr	r2, [r5, #4]
 8004ed0:	4286      	cmp	r6, r0
 8004ed2:	d001      	beq.n	8004ed8 <xTaskCheckForTimeOut+0x4c>
 8004ed4:	428a      	cmp	r2, r1
 8004ed6:	d90f      	bls.n	8004ef8 <xTaskCheckForTimeOut+0x6c>
 8004ed8:	1a88      	subs	r0, r1, r2
 8004eda:	4283      	cmp	r3, r0
 8004edc:	d90a      	bls.n	8004ef4 <xTaskCheckForTimeOut+0x68>
 8004ede:	1a5b      	subs	r3, r3, r1
 8004ee0:	4413      	add	r3, r2
 8004ee2:	6023      	str	r3, [r4, #0]
 8004ee4:	4628      	mov	r0, r5
 8004ee6:	f7ff ffc5 	bl	8004e74 <vTaskInternalSetTimeOutState>
 8004eea:	2400      	movs	r4, #0
 8004eec:	f000 fbca 	bl	8005684 <vPortExitCritical>
 8004ef0:	4620      	mov	r0, r4
 8004ef2:	bd70      	pop	{r4, r5, r6, pc}
 8004ef4:	2300      	movs	r3, #0
 8004ef6:	6023      	str	r3, [r4, #0]
 8004ef8:	2401      	movs	r4, #1
 8004efa:	e7f7      	b.n	8004eec <xTaskCheckForTimeOut+0x60>
 8004efc:	200021a4 	.word	0x200021a4
 8004f00:	20002190 	.word	0x20002190

08004f04 <vTaskMissedYield>:
 8004f04:	4b01      	ldr	r3, [pc, #4]	@ (8004f0c <vTaskMissedYield+0x8>)
 8004f06:	2201      	movs	r2, #1
 8004f08:	601a      	str	r2, [r3, #0]
 8004f0a:	4770      	bx	lr
 8004f0c:	20002194 	.word	0x20002194

08004f10 <xTaskGetCurrentTaskHandle>:
 8004f10:	4b01      	ldr	r3, [pc, #4]	@ (8004f18 <xTaskGetCurrentTaskHandle+0x8>)
 8004f12:	6818      	ldr	r0, [r3, #0]
 8004f14:	4770      	bx	lr
 8004f16:	bf00      	nop
 8004f18:	2000267c 	.word	0x2000267c

08004f1c <xTaskGetSchedulerState>:
 8004f1c:	4b05      	ldr	r3, [pc, #20]	@ (8004f34 <xTaskGetSchedulerState+0x18>)
 8004f1e:	681b      	ldr	r3, [r3, #0]
 8004f20:	b133      	cbz	r3, 8004f30 <xTaskGetSchedulerState+0x14>
 8004f22:	4b05      	ldr	r3, [pc, #20]	@ (8004f38 <xTaskGetSchedulerState+0x1c>)
 8004f24:	6818      	ldr	r0, [r3, #0]
 8004f26:	fab0 f080 	clz	r0, r0
 8004f2a:	0940      	lsrs	r0, r0, #5
 8004f2c:	0040      	lsls	r0, r0, #1
 8004f2e:	4770      	bx	lr
 8004f30:	2001      	movs	r0, #1
 8004f32:	4770      	bx	lr
 8004f34:	2000219c 	.word	0x2000219c
 8004f38:	20002184 	.word	0x20002184

08004f3c <xTaskPriorityDisinherit>:
 8004f3c:	b538      	push	{r3, r4, r5, lr}
 8004f3e:	b908      	cbnz	r0, 8004f44 <xTaskPriorityDisinherit+0x8>
 8004f40:	2000      	movs	r0, #0
 8004f42:	bd38      	pop	{r3, r4, r5, pc}
 8004f44:	4b1b      	ldr	r3, [pc, #108]	@ (8004fb4 <xTaskPriorityDisinherit+0x78>)
 8004f46:	681c      	ldr	r4, [r3, #0]
 8004f48:	4284      	cmp	r4, r0
 8004f4a:	d008      	beq.n	8004f5e <xTaskPriorityDisinherit+0x22>
 8004f4c:	f04f 0350 	mov.w	r3, #80	@ 0x50
 8004f50:	f383 8811 	msr	BASEPRI, r3
 8004f54:	f3bf 8f6f 	isb	sy
 8004f58:	f3bf 8f4f 	dsb	sy
 8004f5c:	e7fe      	b.n	8004f5c <xTaskPriorityDisinherit+0x20>
 8004f5e:	6d23      	ldr	r3, [r4, #80]	@ 0x50
 8004f60:	b943      	cbnz	r3, 8004f74 <xTaskPriorityDisinherit+0x38>
 8004f62:	f04f 0350 	mov.w	r3, #80	@ 0x50
 8004f66:	f383 8811 	msr	BASEPRI, r3
 8004f6a:	f3bf 8f6f 	isb	sy
 8004f6e:	f3bf 8f4f 	dsb	sy
 8004f72:	e7fe      	b.n	8004f72 <xTaskPriorityDisinherit+0x36>
 8004f74:	6ae1      	ldr	r1, [r4, #44]	@ 0x2c
 8004f76:	6ce2      	ldr	r2, [r4, #76]	@ 0x4c
 8004f78:	3b01      	subs	r3, #1
 8004f7a:	4291      	cmp	r1, r2
 8004f7c:	6523      	str	r3, [r4, #80]	@ 0x50
 8004f7e:	d0df      	beq.n	8004f40 <xTaskPriorityDisinherit+0x4>
 8004f80:	2b00      	cmp	r3, #0
 8004f82:	d1dd      	bne.n	8004f40 <xTaskPriorityDisinherit+0x4>
 8004f84:	1d25      	adds	r5, r4, #4
 8004f86:	4628      	mov	r0, r5
 8004f88:	f7ff f878 	bl	800407c <uxListRemove>
 8004f8c:	6ce3      	ldr	r3, [r4, #76]	@ 0x4c
 8004f8e:	62e3      	str	r3, [r4, #44]	@ 0x2c
 8004f90:	f1c3 0238 	rsb	r2, r3, #56	@ 0x38
 8004f94:	61a2      	str	r2, [r4, #24]
 8004f96:	4a08      	ldr	r2, [pc, #32]	@ (8004fb8 <xTaskPriorityDisinherit+0x7c>)
 8004f98:	6811      	ldr	r1, [r2, #0]
 8004f9a:	428b      	cmp	r3, r1
 8004f9c:	bf88      	it	hi
 8004f9e:	6013      	strhi	r3, [r2, #0]
 8004fa0:	4a06      	ldr	r2, [pc, #24]	@ (8004fbc <xTaskPriorityDisinherit+0x80>)
 8004fa2:	2014      	movs	r0, #20
 8004fa4:	fb00 2003 	mla	r0, r0, r3, r2
 8004fa8:	4629      	mov	r1, r5
 8004faa:	f7ff f845 	bl	8004038 <vListInsertEnd>
 8004fae:	2001      	movs	r0, #1
 8004fb0:	e7c7      	b.n	8004f42 <xTaskPriorityDisinherit+0x6>
 8004fb2:	bf00      	nop
 8004fb4:	2000267c 	.word	0x2000267c
 8004fb8:	200021a0 	.word	0x200021a0
 8004fbc:	2000221c 	.word	0x2000221c

08004fc0 <ulTaskNotifyTake>:
 8004fc0:	b570      	push	{r4, r5, r6, lr}
 8004fc2:	4c17      	ldr	r4, [pc, #92]	@ (8005020 <ulTaskNotifyTake+0x60>)
 8004fc4:	4606      	mov	r6, r0
 8004fc6:	460d      	mov	r5, r1
 8004fc8:	f000 fb3c 	bl	8005644 <vPortEnterCritical>
 8004fcc:	6823      	ldr	r3, [r4, #0]
 8004fce:	6d5b      	ldr	r3, [r3, #84]	@ 0x54
 8004fd0:	b98b      	cbnz	r3, 8004ff6 <ulTaskNotifyTake+0x36>
 8004fd2:	6823      	ldr	r3, [r4, #0]
 8004fd4:	2101      	movs	r1, #1
 8004fd6:	f883 1058 	strb.w	r1, [r3, #88]	@ 0x58
 8004fda:	b165      	cbz	r5, 8004ff6 <ulTaskNotifyTake+0x36>
 8004fdc:	4628      	mov	r0, r5
 8004fde:	f7ff fbd5 	bl	800478c <prvAddCurrentTaskToDelayedList>
 8004fe2:	f04f 23e0 	mov.w	r3, #3758153728	@ 0xe000e000
 8004fe6:	f04f 5280 	mov.w	r2, #268435456	@ 0x10000000
 8004fea:	f8c3 2d04 	str.w	r2, [r3, #3332]	@ 0xd04
 8004fee:	f3bf 8f4f 	dsb	sy
 8004ff2:	f3bf 8f6f 	isb	sy
 8004ff6:	f000 fb45 	bl	8005684 <vPortExitCritical>
 8004ffa:	f000 fb23 	bl	8005644 <vPortEnterCritical>
 8004ffe:	6823      	ldr	r3, [r4, #0]
 8005000:	6d5d      	ldr	r5, [r3, #84]	@ 0x54
 8005002:	b11d      	cbz	r5, 800500c <ulTaskNotifyTake+0x4c>
 8005004:	6823      	ldr	r3, [r4, #0]
 8005006:	b14e      	cbz	r6, 800501c <ulTaskNotifyTake+0x5c>
 8005008:	2200      	movs	r2, #0
 800500a:	655a      	str	r2, [r3, #84]	@ 0x54
 800500c:	6823      	ldr	r3, [r4, #0]
 800500e:	2200      	movs	r2, #0
 8005010:	f883 2058 	strb.w	r2, [r3, #88]	@ 0x58
 8005014:	f000 fb36 	bl	8005684 <vPortExitCritical>
 8005018:	4628      	mov	r0, r5
 800501a:	bd70      	pop	{r4, r5, r6, pc}
 800501c:	1e6a      	subs	r2, r5, #1
 800501e:	e7f4      	b.n	800500a <ulTaskNotifyTake+0x4a>
 8005020:	2000267c 	.word	0x2000267c

08005024 <xTaskGenericNotify>:
 8005024:	b5f8      	push	{r3, r4, r5, r6, r7, lr}
 8005026:	460e      	mov	r6, r1
 8005028:	4615      	mov	r5, r2
 800502a:	461f      	mov	r7, r3
 800502c:	4604      	mov	r4, r0
 800502e:	b940      	cbnz	r0, 8005042 <xTaskGenericNotify+0x1e>
 8005030:	f04f 0350 	mov.w	r3, #80	@ 0x50
 8005034:	f383 8811 	msr	BASEPRI, r3
 8005038:	f3bf 8f6f 	isb	sy
 800503c:	f3bf 8f4f 	dsb	sy
 8005040:	e7fe      	b.n	8005040 <xTaskGenericNotify+0x1c>
 8005042:	f000 faff 	bl	8005644 <vPortEnterCritical>
 8005046:	b10f      	cbz	r7, 800504c <xTaskGenericNotify+0x28>
 8005048:	6d63      	ldr	r3, [r4, #84]	@ 0x54
 800504a:	603b      	str	r3, [r7, #0]
 800504c:	f894 3058 	ldrb.w	r3, [r4, #88]	@ 0x58
 8005050:	2202      	movs	r2, #2
 8005052:	f884 2058 	strb.w	r2, [r4, #88]	@ 0x58
 8005056:	1e6a      	subs	r2, r5, #1
 8005058:	b2db      	uxtb	r3, r3
 800505a:	2a03      	cmp	r2, #3
 800505c:	d806      	bhi.n	800506c <xTaskGenericNotify+0x48>
 800505e:	e8df f002 	tbb	[pc, r2]
 8005062:	2302      	.short	0x2302
 8005064:	2628      	.short	0x2628
 8005066:	6d62      	ldr	r2, [r4, #84]	@ 0x54
 8005068:	4332      	orrs	r2, r6
 800506a:	6562      	str	r2, [r4, #84]	@ 0x54
 800506c:	2b01      	cmp	r3, #1
 800506e:	d132      	bne.n	80050d6 <xTaskGenericNotify+0xb2>
 8005070:	1d25      	adds	r5, r4, #4
 8005072:	4628      	mov	r0, r5
 8005074:	f7ff f802 	bl	800407c <uxListRemove>
 8005078:	4a1a      	ldr	r2, [pc, #104]	@ (80050e4 <xTaskGenericNotify+0xc0>)
 800507a:	6ae3      	ldr	r3, [r4, #44]	@ 0x2c
 800507c:	6811      	ldr	r1, [r2, #0]
 800507e:	428b      	cmp	r3, r1
 8005080:	bf88      	it	hi
 8005082:	6013      	strhi	r3, [r2, #0]
 8005084:	4a18      	ldr	r2, [pc, #96]	@ (80050e8 <xTaskGenericNotify+0xc4>)
 8005086:	2014      	movs	r0, #20
 8005088:	fb00 2003 	mla	r0, r0, r3, r2
 800508c:	4629      	mov	r1, r5
 800508e:	f7fe ffd3 	bl	8004038 <vListInsertEnd>
 8005092:	6aa3      	ldr	r3, [r4, #40]	@ 0x28
 8005094:	b17b      	cbz	r3, 80050b6 <xTaskGenericNotify+0x92>
 8005096:	f04f 0350 	mov.w	r3, #80	@ 0x50
 800509a:	f383 8811 	msr	BASEPRI, r3
 800509e:	f3bf 8f6f 	isb	sy
 80050a2:	f3bf 8f4f 	dsb	sy
 80050a6:	e7fe      	b.n	80050a6 <xTaskGenericNotify+0x82>
 80050a8:	6d62      	ldr	r2, [r4, #84]	@ 0x54
 80050aa:	3201      	adds	r2, #1
 80050ac:	e7dd      	b.n	800506a <xTaskGenericNotify+0x46>
 80050ae:	2b02      	cmp	r3, #2
 80050b0:	d016      	beq.n	80050e0 <xTaskGenericNotify+0xbc>
 80050b2:	6566      	str	r6, [r4, #84]	@ 0x54
 80050b4:	e7da      	b.n	800506c <xTaskGenericNotify+0x48>
 80050b6:	4b0d      	ldr	r3, [pc, #52]	@ (80050ec <xTaskGenericNotify+0xc8>)
 80050b8:	6ae2      	ldr	r2, [r4, #44]	@ 0x2c
 80050ba:	681b      	ldr	r3, [r3, #0]
 80050bc:	6adb      	ldr	r3, [r3, #44]	@ 0x2c
 80050be:	429a      	cmp	r2, r3
 80050c0:	d909      	bls.n	80050d6 <xTaskGenericNotify+0xb2>
 80050c2:	f04f 23e0 	mov.w	r3, #3758153728	@ 0xe000e000
 80050c6:	f04f 5280 	mov.w	r2, #268435456	@ 0x10000000
 80050ca:	f8c3 2d04 	str.w	r2, [r3, #3332]	@ 0xd04
 80050ce:	f3bf 8f4f 	dsb	sy
 80050d2:	f3bf 8f6f 	isb	sy
 80050d6:	2401      	movs	r4, #1
 80050d8:	f000 fad4 	bl	8005684 <vPortExitCritical>
 80050dc:	4620      	mov	r0, r4
 80050de:	bdf8      	pop	{r3, r4, r5, r6, r7, pc}
 80050e0:	2400      	movs	r4, #0
 80050e2:	e7f9      	b.n	80050d8 <xTaskGenericNotify+0xb4>
 80050e4:	200021a0 	.word	0x200021a0
 80050e8:	2000221c 	.word	0x2000221c
 80050ec:	2000267c 	.word	0x2000267c

080050f0 <vTaskNotifyGiveFromISR>:
 80050f0:	b5f8      	push	{r3, r4, r5, r6, r7, lr}
 80050f2:	460d      	mov	r5, r1
 80050f4:	4604      	mov	r4, r0
 80050f6:	b940      	cbnz	r0, 800510a <vTaskNotifyGiveFromISR+0x1a>
 80050f8:	f04f 0350 	mov.w	r3, #80	@ 0x50
 80050fc:	f383 8811 	msr	BASEPRI, r3
 8005100:	f3bf 8f6f 	isb	sy
 8005104:	f3bf 8f4f 	dsb	sy
 8005108:	e7fe      	b.n	8005108 <vTaskNotifyGiveFromISR+0x18>
 800510a:	f000 fbad 	bl	8005868 <vPortValidateInterruptPriority>
 800510e:	f3ef 8711 	mrs	r7, BASEPRI
 8005112:	f04f 0350 	mov.w	r3, #80	@ 0x50
 8005116:	f383 8811 	msr	BASEPRI, r3
 800511a:	f3bf 8f6f 	isb	sy
 800511e:	f3bf 8f4f 	dsb	sy
 8005122:	2302      	movs	r3, #2
 8005124:	f894 2058 	ldrb.w	r2, [r4, #88]	@ 0x58
 8005128:	f884 3058 	strb.w	r3, [r4, #88]	@ 0x58
 800512c:	6d63      	ldr	r3, [r4, #84]	@ 0x54
 800512e:	2a01      	cmp	r2, #1
 8005130:	f103 0301 	add.w	r3, r3, #1
 8005134:	6563      	str	r3, [r4, #84]	@ 0x54
 8005136:	d127      	bne.n	8005188 <vTaskNotifyGiveFromISR+0x98>
 8005138:	6aa3      	ldr	r3, [r4, #40]	@ 0x28
 800513a:	b143      	cbz	r3, 800514e <vTaskNotifyGiveFromISR+0x5e>
 800513c:	f04f 0350 	mov.w	r3, #80	@ 0x50
 8005140:	f383 8811 	msr	BASEPRI, r3
 8005144:	f3bf 8f6f 	isb	sy
 8005148:	f3bf 8f4f 	dsb	sy
 800514c:	e7fe      	b.n	800514c <vTaskNotifyGiveFromISR+0x5c>
 800514e:	4b13      	ldr	r3, [pc, #76]	@ (800519c <vTaskNotifyGiveFromISR+0xac>)
 8005150:	681b      	ldr	r3, [r3, #0]
 8005152:	b9e3      	cbnz	r3, 800518e <vTaskNotifyGiveFromISR+0x9e>
 8005154:	1d26      	adds	r6, r4, #4
 8005156:	4630      	mov	r0, r6
 8005158:	f7fe ff90 	bl	800407c <uxListRemove>
 800515c:	4a10      	ldr	r2, [pc, #64]	@ (80051a0 <vTaskNotifyGiveFromISR+0xb0>)
 800515e:	6ae3      	ldr	r3, [r4, #44]	@ 0x2c
 8005160:	6811      	ldr	r1, [r2, #0]
 8005162:	428b      	cmp	r3, r1
 8005164:	bf88      	it	hi
 8005166:	6013      	strhi	r3, [r2, #0]
 8005168:	4a0e      	ldr	r2, [pc, #56]	@ (80051a4 <vTaskNotifyGiveFromISR+0xb4>)
 800516a:	2014      	movs	r0, #20
 800516c:	4631      	mov	r1, r6
 800516e:	fb00 2003 	mla	r0, r0, r3, r2
 8005172:	f7fe ff61 	bl	8004038 <vListInsertEnd>
 8005176:	4b0c      	ldr	r3, [pc, #48]	@ (80051a8 <vTaskNotifyGiveFromISR+0xb8>)
 8005178:	6ae2      	ldr	r2, [r4, #44]	@ 0x2c
 800517a:	681b      	ldr	r3, [r3, #0]
 800517c:	6adb      	ldr	r3, [r3, #44]	@ 0x2c
 800517e:	429a      	cmp	r2, r3
 8005180:	d902      	bls.n	8005188 <vTaskNotifyGiveFromISR+0x98>
 8005182:	2301      	movs	r3, #1
 8005184:	b13d      	cbz	r5, 8005196 <vTaskNotifyGiveFromISR+0xa6>
 8005186:	602b      	str	r3, [r5, #0]
 8005188:	f387 8811 	msr	BASEPRI, r7
 800518c:	bdf8      	pop	{r3, r4, r5, r6, r7, pc}
 800518e:	4807      	ldr	r0, [pc, #28]	@ (80051ac <vTaskNotifyGiveFromISR+0xbc>)
 8005190:	f104 0118 	add.w	r1, r4, #24
 8005194:	e7ed      	b.n	8005172 <vTaskNotifyGiveFromISR+0x82>
 8005196:	4a06      	ldr	r2, [pc, #24]	@ (80051b0 <vTaskNotifyGiveFromISR+0xc0>)
 8005198:	6013      	str	r3, [r2, #0]
 800519a:	e7f5      	b.n	8005188 <vTaskNotifyGiveFromISR+0x98>
 800519c:	20002184 	.word	0x20002184
 80051a0:	200021a0 	.word	0x200021a0
 80051a4:	2000221c 	.word	0x2000221c
 80051a8:	2000267c 	.word	0x2000267c
 80051ac:	200021d8 	.word	0x200021d8
 80051b0:	20002194 	.word	0x20002194

080051b4 <prvInsertTimerInActiveList>:
 80051b4:	4291      	cmp	r1, r2
 80051b6:	b508      	push	{r3, lr}
 80051b8:	6041      	str	r1, [r0, #4]
 80051ba:	6100      	str	r0, [r0, #16]
 80051bc:	d80a      	bhi.n	80051d4 <prvInsertTimerInActiveList+0x20>
 80051be:	1ad2      	subs	r2, r2, r3
 80051c0:	6983      	ldr	r3, [r0, #24]
 80051c2:	429a      	cmp	r2, r3
 80051c4:	d20d      	bcs.n	80051e2 <prvInsertTimerInActiveList+0x2e>
 80051c6:	4b08      	ldr	r3, [pc, #32]	@ (80051e8 <prvInsertTimerInActiveList+0x34>)
 80051c8:	1d01      	adds	r1, r0, #4
 80051ca:	6818      	ldr	r0, [r3, #0]
 80051cc:	f7fe ff3f 	bl	800404e <vListInsert>
 80051d0:	2000      	movs	r0, #0
 80051d2:	bd08      	pop	{r3, pc}
 80051d4:	429a      	cmp	r2, r3
 80051d6:	d201      	bcs.n	80051dc <prvInsertTimerInActiveList+0x28>
 80051d8:	4299      	cmp	r1, r3
 80051da:	d202      	bcs.n	80051e2 <prvInsertTimerInActiveList+0x2e>
 80051dc:	4b03      	ldr	r3, [pc, #12]	@ (80051ec <prvInsertTimerInActiveList+0x38>)
 80051de:	1d01      	adds	r1, r0, #4
 80051e0:	e7f3      	b.n	80051ca <prvInsertTimerInActiveList+0x16>
 80051e2:	2001      	movs	r0, #1
 80051e4:	e7f5      	b.n	80051d2 <prvInsertTimerInActiveList+0x1e>
 80051e6:	bf00      	nop
 80051e8:	2000277c 	.word	0x2000277c
 80051ec:	20002780 	.word	0x20002780

080051f0 <prvCheckForValidListAndQueue>:
 80051f0:	b5f7      	push	{r0, r1, r2, r4, r5, r6, r7, lr}
 80051f2:	4c11      	ldr	r4, [pc, #68]	@ (8005238 <prvCheckForValidListAndQueue+0x48>)
 80051f4:	f000 fa26 	bl	8005644 <vPortEnterCritical>
 80051f8:	6825      	ldr	r5, [r4, #0]
 80051fa:	b9bd      	cbnz	r5, 800522c <prvCheckForValidListAndQueue+0x3c>
 80051fc:	4f0f      	ldr	r7, [pc, #60]	@ (800523c <prvCheckForValidListAndQueue+0x4c>)
 80051fe:	4e10      	ldr	r6, [pc, #64]	@ (8005240 <prvCheckForValidListAndQueue+0x50>)
 8005200:	4638      	mov	r0, r7
 8005202:	f7fe ff0b 	bl	800401c <vListInitialise>
 8005206:	4630      	mov	r0, r6
 8005208:	f7fe ff08 	bl	800401c <vListInitialise>
 800520c:	4b0d      	ldr	r3, [pc, #52]	@ (8005244 <prvCheckForValidListAndQueue+0x54>)
 800520e:	4a0e      	ldr	r2, [pc, #56]	@ (8005248 <prvCheckForValidListAndQueue+0x58>)
 8005210:	601f      	str	r7, [r3, #0]
 8005212:	4b0e      	ldr	r3, [pc, #56]	@ (800524c <prvCheckForValidListAndQueue+0x5c>)
 8005214:	2110      	movs	r1, #16
 8005216:	601e      	str	r6, [r3, #0]
 8005218:	200a      	movs	r0, #10
 800521a:	4b0d      	ldr	r3, [pc, #52]	@ (8005250 <prvCheckForValidListAndQueue+0x60>)
 800521c:	9500      	str	r5, [sp, #0]
 800521e:	f7ff f806 	bl	800422e <xQueueGenericCreateStatic>
 8005222:	6020      	str	r0, [r4, #0]
 8005224:	b110      	cbz	r0, 800522c <prvCheckForValidListAndQueue+0x3c>
 8005226:	490b      	ldr	r1, [pc, #44]	@ (8005254 <prvCheckForValidListAndQueue+0x64>)
 8005228:	f7ff f9fa 	bl	8004620 <vQueueAddToRegistry>
 800522c:	b003      	add	sp, #12
 800522e:	e8bd 40f0 	ldmia.w	sp!, {r4, r5, r6, r7, lr}
 8005232:	f000 ba27 	b.w	8005684 <vPortExitCritical>
 8005236:	bf00      	nop
 8005238:	20002778 	.word	0x20002778
 800523c:	20002798 	.word	0x20002798
 8005240:	20002784 	.word	0x20002784
 8005244:	20002780 	.word	0x20002780
 8005248:	200026d0 	.word	0x200026d0
 800524c:	2000277c 	.word	0x2000277c
 8005250:	20002680 	.word	0x20002680
 8005254:	08005b48 	.word	0x08005b48

08005258 <xTimerCreateTimerTask>:
 8005258:	b510      	push	{r4, lr}
 800525a:	b088      	sub	sp, #32
 800525c:	f7ff ffc8 	bl	80051f0 <prvCheckForValidListAndQueue>
 8005260:	4b12      	ldr	r3, [pc, #72]	@ (80052ac <xTimerCreateTimerTask+0x54>)
 8005262:	681b      	ldr	r3, [r3, #0]
 8005264:	b1b3      	cbz	r3, 8005294 <xTimerCreateTimerTask+0x3c>
 8005266:	2400      	movs	r4, #0
 8005268:	aa07      	add	r2, sp, #28
 800526a:	a906      	add	r1, sp, #24
 800526c:	a805      	add	r0, sp, #20
 800526e:	e9cd 4405 	strd	r4, r4, [sp, #20]
 8005272:	f7fe fec7 	bl	8004004 <vApplicationGetTimerTaskMemory>
 8005276:	9b05      	ldr	r3, [sp, #20]
 8005278:	9302      	str	r3, [sp, #8]
 800527a:	9b06      	ldr	r3, [sp, #24]
 800527c:	9301      	str	r3, [sp, #4]
 800527e:	2302      	movs	r3, #2
 8005280:	9300      	str	r3, [sp, #0]
 8005282:	9a07      	ldr	r2, [sp, #28]
 8005284:	490a      	ldr	r1, [pc, #40]	@ (80052b0 <xTimerCreateTimerTask+0x58>)
 8005286:	480b      	ldr	r0, [pc, #44]	@ (80052b4 <xTimerCreateTimerTask+0x5c>)
 8005288:	4623      	mov	r3, r4
 800528a:	f7ff fb5a 	bl	8004942 <xTaskCreateStatic>
 800528e:	4b0a      	ldr	r3, [pc, #40]	@ (80052b8 <xTimerCreateTimerTask+0x60>)
 8005290:	6018      	str	r0, [r3, #0]
 8005292:	b940      	cbnz	r0, 80052a6 <xTimerCreateTimerTask+0x4e>
 8005294:	f04f 0350 	mov.w	r3, #80	@ 0x50
 8005298:	f383 8811 	msr	BASEPRI, r3
 800529c:	f3bf 8f6f 	isb	sy
 80052a0:	f3bf 8f4f 	dsb	sy
 80052a4:	e7fe      	b.n	80052a4 <xTimerCreateTimerTask+0x4c>
 80052a6:	2001      	movs	r0, #1
 80052a8:	b008      	add	sp, #32
 80052aa:	bd10      	pop	{r4, pc}
 80052ac:	20002778 	.word	0x20002778
 80052b0:	08005b4d 	.word	0x08005b4d
 80052b4:	080053b5 	.word	0x080053b5
 80052b8:	20002774 	.word	0x20002774

080052bc <xTimerGenericCommand>:
 80052bc:	b57f      	push	{r0, r1, r2, r3, r4, r5, r6, lr}
 80052be:	4616      	mov	r6, r2
 80052c0:	4604      	mov	r4, r0
 80052c2:	461a      	mov	r2, r3
 80052c4:	b940      	cbnz	r0, 80052d8 <xTimerGenericCommand+0x1c>
 80052c6:	f04f 0350 	mov.w	r3, #80	@ 0x50
 80052ca:	f383 8811 	msr	BASEPRI, r3
 80052ce:	f3bf 8f6f 	isb	sy
 80052d2:	f3bf 8f4f 	dsb	sy
 80052d6:	e7fe      	b.n	80052d6 <xTimerGenericCommand+0x1a>
 80052d8:	4d0d      	ldr	r5, [pc, #52]	@ (8005310 <xTimerGenericCommand+0x54>)
 80052da:	6828      	ldr	r0, [r5, #0]
 80052dc:	b180      	cbz	r0, 8005300 <xTimerGenericCommand+0x44>
 80052de:	2905      	cmp	r1, #5
 80052e0:	e9cd 1600 	strd	r1, r6, [sp]
 80052e4:	9402      	str	r4, [sp, #8]
 80052e6:	dc0d      	bgt.n	8005304 <xTimerGenericCommand+0x48>
 80052e8:	f7ff fe18 	bl	8004f1c <xTaskGetSchedulerState>
 80052ec:	2300      	movs	r3, #0
 80052ee:	2802      	cmp	r0, #2
 80052f0:	bf08      	it	eq
 80052f2:	9a08      	ldreq	r2, [sp, #32]
 80052f4:	6828      	ldr	r0, [r5, #0]
 80052f6:	bf18      	it	ne
 80052f8:	461a      	movne	r2, r3
 80052fa:	4669      	mov	r1, sp
 80052fc:	f7fe ffe4 	bl	80042c8 <xQueueGenericSend>
 8005300:	b004      	add	sp, #16
 8005302:	bd70      	pop	{r4, r5, r6, pc}
 8005304:	2300      	movs	r3, #0
 8005306:	4669      	mov	r1, sp
 8005308:	f7ff f890 	bl	800442c <xQueueGenericSendFromISR>
 800530c:	e7f8      	b.n	8005300 <xTimerGenericCommand+0x44>
 800530e:	bf00      	nop
 8005310:	20002778 	.word	0x20002778

08005314 <prvSampleTimeNow>:
 8005314:	e92d 47f3 	stmdb	sp!, {r0, r1, r4, r5, r6, r7, r8, r9, sl, lr}
 8005318:	f8df 8094 	ldr.w	r8, [pc, #148]	@ 80053b0 <prvSampleTimeNow+0x9c>
 800531c:	4606      	mov	r6, r0
 800531e:	f7ff fbc3 	bl	8004aa8 <xTaskGetTickCount>
 8005322:	f8d8 3000 	ldr.w	r3, [r8]
 8005326:	4283      	cmp	r3, r0
 8005328:	4605      	mov	r5, r0
 800532a:	d909      	bls.n	8005340 <prvSampleTimeNow+0x2c>
 800532c:	4f1e      	ldr	r7, [pc, #120]	@ (80053a8 <prvSampleTimeNow+0x94>)
 800532e:	683b      	ldr	r3, [r7, #0]
 8005330:	681a      	ldr	r2, [r3, #0]
 8005332:	b96a      	cbnz	r2, 8005350 <prvSampleTimeNow+0x3c>
 8005334:	4a1d      	ldr	r2, [pc, #116]	@ (80053ac <prvSampleTimeNow+0x98>)
 8005336:	6811      	ldr	r1, [r2, #0]
 8005338:	6039      	str	r1, [r7, #0]
 800533a:	6013      	str	r3, [r2, #0]
 800533c:	2301      	movs	r3, #1
 800533e:	e000      	b.n	8005342 <prvSampleTimeNow+0x2e>
 8005340:	2300      	movs	r3, #0
 8005342:	4628      	mov	r0, r5
 8005344:	6033      	str	r3, [r6, #0]
 8005346:	f8c8 5000 	str.w	r5, [r8]
 800534a:	b002      	add	sp, #8
 800534c:	e8bd 87f0 	ldmia.w	sp!, {r4, r5, r6, r7, r8, r9, sl, pc}
 8005350:	68db      	ldr	r3, [r3, #12]
 8005352:	68dc      	ldr	r4, [r3, #12]
 8005354:	f8d3 9000 	ldr.w	r9, [r3]
 8005358:	f104 0a04 	add.w	sl, r4, #4
 800535c:	4650      	mov	r0, sl
 800535e:	f7fe fe8d 	bl	800407c <uxListRemove>
 8005362:	6a63      	ldr	r3, [r4, #36]	@ 0x24
 8005364:	4620      	mov	r0, r4
 8005366:	4798      	blx	r3
 8005368:	69e3      	ldr	r3, [r4, #28]
 800536a:	2b01      	cmp	r3, #1
 800536c:	d1df      	bne.n	800532e <prvSampleTimeNow+0x1a>
 800536e:	69a3      	ldr	r3, [r4, #24]
 8005370:	444b      	add	r3, r9
 8005372:	4599      	cmp	r9, r3
 8005374:	d206      	bcs.n	8005384 <prvSampleTimeNow+0x70>
 8005376:	6838      	ldr	r0, [r7, #0]
 8005378:	6063      	str	r3, [r4, #4]
 800537a:	6124      	str	r4, [r4, #16]
 800537c:	4651      	mov	r1, sl
 800537e:	f7fe fe66 	bl	800404e <vListInsert>
 8005382:	e7d4      	b.n	800532e <prvSampleTimeNow+0x1a>
 8005384:	2300      	movs	r3, #0
 8005386:	9300      	str	r3, [sp, #0]
 8005388:	464a      	mov	r2, r9
 800538a:	4619      	mov	r1, r3
 800538c:	4620      	mov	r0, r4
 800538e:	f7ff ff95 	bl	80052bc <xTimerGenericCommand>
 8005392:	2800      	cmp	r0, #0
 8005394:	d1cb      	bne.n	800532e <prvSampleTimeNow+0x1a>
 8005396:	f04f 0350 	mov.w	r3, #80	@ 0x50
 800539a:	f383 8811 	msr	BASEPRI, r3
 800539e:	f3bf 8f6f 	isb	sy
 80053a2:	f3bf 8f4f 	dsb	sy
 80053a6:	e7fe      	b.n	80053a6 <prvSampleTimeNow+0x92>
 80053a8:	20002780 	.word	0x20002780
 80053ac:	2000277c 	.word	0x2000277c
 80053b0:	20002770 	.word	0x20002770

080053b4 <prvTimerTask>:
 80053b4:	e92d 43f0 	stmdb	sp!, {r4, r5, r6, r7, r8, r9, lr}
 80053b8:	4e69      	ldr	r6, [pc, #420]	@ (8005560 <prvTimerTask+0x1ac>)
 80053ba:	4f6a      	ldr	r7, [pc, #424]	@ (8005564 <prvTimerTask+0x1b0>)
 80053bc:	b089      	sub	sp, #36	@ 0x24
 80053be:	6833      	ldr	r3, [r6, #0]
 80053c0:	681d      	ldr	r5, [r3, #0]
 80053c2:	2d00      	cmp	r5, #0
 80053c4:	d033      	beq.n	800542e <prvTimerTask+0x7a>
 80053c6:	68db      	ldr	r3, [r3, #12]
 80053c8:	f8d3 8000 	ldr.w	r8, [r3]
 80053cc:	f7ff fb64 	bl	8004a98 <vTaskSuspendAll>
 80053d0:	a804      	add	r0, sp, #16
 80053d2:	f7ff ff9f 	bl	8005314 <prvSampleTimeNow>
 80053d6:	9c04      	ldr	r4, [sp, #16]
 80053d8:	4681      	mov	r9, r0
 80053da:	2c00      	cmp	r4, #0
 80053dc:	d175      	bne.n	80054ca <prvTimerTask+0x116>
 80053de:	2d00      	cmp	r5, #0
 80053e0:	d058      	beq.n	8005494 <prvTimerTask+0xe0>
 80053e2:	4540      	cmp	r0, r8
 80053e4:	d35c      	bcc.n	80054a0 <prvTimerTask+0xec>
 80053e6:	f7ff fbfb 	bl	8004be0 <xTaskResumeAll>
 80053ea:	6833      	ldr	r3, [r6, #0]
 80053ec:	68db      	ldr	r3, [r3, #12]
 80053ee:	68dd      	ldr	r5, [r3, #12]
 80053f0:	1d28      	adds	r0, r5, #4
 80053f2:	f7fe fe43 	bl	800407c <uxListRemove>
 80053f6:	69eb      	ldr	r3, [r5, #28]
 80053f8:	2b01      	cmp	r3, #1
 80053fa:	d11a      	bne.n	8005432 <prvTimerTask+0x7e>
 80053fc:	69a9      	ldr	r1, [r5, #24]
 80053fe:	4643      	mov	r3, r8
 8005400:	464a      	mov	r2, r9
 8005402:	4441      	add	r1, r8
 8005404:	4628      	mov	r0, r5
 8005406:	f7ff fed5 	bl	80051b4 <prvInsertTimerInActiveList>
 800540a:	b190      	cbz	r0, 8005432 <prvTimerTask+0x7e>
 800540c:	9400      	str	r4, [sp, #0]
 800540e:	4623      	mov	r3, r4
 8005410:	4642      	mov	r2, r8
 8005412:	4621      	mov	r1, r4
 8005414:	4628      	mov	r0, r5
 8005416:	f7ff ff51 	bl	80052bc <xTimerGenericCommand>
 800541a:	b950      	cbnz	r0, 8005432 <prvTimerTask+0x7e>
 800541c:	f04f 0350 	mov.w	r3, #80	@ 0x50
 8005420:	f383 8811 	msr	BASEPRI, r3
 8005424:	f3bf 8f6f 	isb	sy
 8005428:	f3bf 8f4f 	dsb	sy
 800542c:	e7fe      	b.n	800542c <prvTimerTask+0x78>
 800542e:	46a8      	mov	r8, r5
 8005430:	e7cc      	b.n	80053cc <prvTimerTask+0x18>
 8005432:	6a6b      	ldr	r3, [r5, #36]	@ 0x24
 8005434:	4628      	mov	r0, r5
 8005436:	4798      	blx	r3
 8005438:	6838      	ldr	r0, [r7, #0]
 800543a:	2200      	movs	r2, #0
 800543c:	a904      	add	r1, sp, #16
 800543e:	f7ff f851 	bl	80044e4 <xQueueReceive>
 8005442:	2800      	cmp	r0, #0
 8005444:	d0bb      	beq.n	80053be <prvTimerTask+0xa>
 8005446:	9b04      	ldr	r3, [sp, #16]
 8005448:	9806      	ldr	r0, [sp, #24]
 800544a:	2b00      	cmp	r3, #0
 800544c:	db40      	blt.n	80054d0 <prvTimerTask+0x11c>
 800544e:	9c06      	ldr	r4, [sp, #24]
 8005450:	6963      	ldr	r3, [r4, #20]
 8005452:	2b00      	cmp	r3, #0
 8005454:	d143      	bne.n	80054de <prvTimerTask+0x12a>
 8005456:	a803      	add	r0, sp, #12
 8005458:	f7ff ff5c 	bl	8005314 <prvSampleTimeNow>
 800545c:	9b04      	ldr	r3, [sp, #16]
 800545e:	4602      	mov	r2, r0
 8005460:	2b09      	cmp	r3, #9
 8005462:	d8e9      	bhi.n	8005438 <prvTimerTask+0x84>
 8005464:	a101      	add	r1, pc, #4	@ (adr r1, 800546c <prvTimerTask+0xb8>)
 8005466:	f851 f023 	ldr.w	pc, [r1, r3, lsl #2]
 800546a:	bf00      	nop
 800546c:	080054e7 	.word	0x080054e7
 8005470:	080054e7 	.word	0x080054e7
 8005474:	080054e7 	.word	0x080054e7
 8005478:	08005439 	.word	0x08005439
 800547c:	0800552b 	.word	0x0800552b
 8005480:	0800554f 	.word	0x0800554f
 8005484:	080054e7 	.word	0x080054e7
 8005488:	080054e7 	.word	0x080054e7
 800548c:	08005439 	.word	0x08005439
 8005490:	0800552b 	.word	0x0800552b
 8005494:	4b34      	ldr	r3, [pc, #208]	@ (8005568 <prvTimerTask+0x1b4>)
 8005496:	681b      	ldr	r3, [r3, #0]
 8005498:	681c      	ldr	r4, [r3, #0]
 800549a:	fab4 f484 	clz	r4, r4
 800549e:	0964      	lsrs	r4, r4, #5
 80054a0:	6838      	ldr	r0, [r7, #0]
 80054a2:	4622      	mov	r2, r4
 80054a4:	eba8 0109 	sub.w	r1, r8, r9
 80054a8:	f7ff f8cc 	bl	8004644 <vQueueWaitForMessageRestricted>
 80054ac:	f7ff fb98 	bl	8004be0 <xTaskResumeAll>
 80054b0:	2800      	cmp	r0, #0
 80054b2:	d1c1      	bne.n	8005438 <prvTimerTask+0x84>
 80054b4:	f04f 23e0 	mov.w	r3, #3758153728	@ 0xe000e000
 80054b8:	f04f 5280 	mov.w	r2, #268435456	@ 0x10000000
 80054bc:	f8c3 2d04 	str.w	r2, [r3, #3332]	@ 0xd04
 80054c0:	f3bf 8f4f 	dsb	sy
 80054c4:	f3bf 8f6f 	isb	sy
 80054c8:	e7b6      	b.n	8005438 <prvTimerTask+0x84>
 80054ca:	f7ff fb89 	bl	8004be0 <xTaskResumeAll>
 80054ce:	e7b3      	b.n	8005438 <prvTimerTask+0x84>
 80054d0:	9b05      	ldr	r3, [sp, #20]
 80054d2:	9907      	ldr	r1, [sp, #28]
 80054d4:	4798      	blx	r3
 80054d6:	9b04      	ldr	r3, [sp, #16]
 80054d8:	2b00      	cmp	r3, #0
 80054da:	dbad      	blt.n	8005438 <prvTimerTask+0x84>
 80054dc:	e7b7      	b.n	800544e <prvTimerTask+0x9a>
 80054de:	1d20      	adds	r0, r4, #4
 80054e0:	f7fe fdcc 	bl	800407c <uxListRemove>
 80054e4:	e7b7      	b.n	8005456 <prvTimerTask+0xa2>
 80054e6:	69a1      	ldr	r1, [r4, #24]
 80054e8:	9b05      	ldr	r3, [sp, #20]
 80054ea:	4620      	mov	r0, r4
 80054ec:	4419      	add	r1, r3
 80054ee:	f7ff fe61 	bl	80051b4 <prvInsertTimerInActiveList>
 80054f2:	2800      	cmp	r0, #0
 80054f4:	d0a0      	beq.n	8005438 <prvTimerTask+0x84>
 80054f6:	6a63      	ldr	r3, [r4, #36]	@ 0x24
 80054f8:	4620      	mov	r0, r4
 80054fa:	4798      	blx	r3
 80054fc:	69e3      	ldr	r3, [r4, #28]
 80054fe:	2b01      	cmp	r3, #1
 8005500:	d19a      	bne.n	8005438 <prvTimerTask+0x84>
 8005502:	69a2      	ldr	r2, [r4, #24]
 8005504:	9905      	ldr	r1, [sp, #20]
 8005506:	2300      	movs	r3, #0
 8005508:	440a      	add	r2, r1
 800550a:	9300      	str	r3, [sp, #0]
 800550c:	4619      	mov	r1, r3
 800550e:	4620      	mov	r0, r4
 8005510:	f7ff fed4 	bl	80052bc <xTimerGenericCommand>
 8005514:	2800      	cmp	r0, #0
 8005516:	d18f      	bne.n	8005438 <prvTimerTask+0x84>
 8005518:	f04f 0350 	mov.w	r3, #80	@ 0x50
 800551c:	f383 8811 	msr	BASEPRI, r3
 8005520:	f3bf 8f6f 	isb	sy
 8005524:	f3bf 8f4f 	dsb	sy
 8005528:	e7fe      	b.n	8005528 <prvTimerTask+0x174>
 800552a:	9905      	ldr	r1, [sp, #20]
 800552c:	61a1      	str	r1, [r4, #24]
 800552e:	b941      	cbnz	r1, 8005542 <prvTimerTask+0x18e>
 8005530:	f04f 0350 	mov.w	r3, #80	@ 0x50
 8005534:	f383 8811 	msr	BASEPRI, r3
 8005538:	f3bf 8f6f 	isb	sy
 800553c:	f3bf 8f4f 	dsb	sy
 8005540:	e7fe      	b.n	8005540 <prvTimerTask+0x18c>
 8005542:	4603      	mov	r3, r0
 8005544:	4401      	add	r1, r0
 8005546:	4620      	mov	r0, r4
 8005548:	f7ff fe34 	bl	80051b4 <prvInsertTimerInActiveList>
 800554c:	e774      	b.n	8005438 <prvTimerTask+0x84>
 800554e:	f894 302c 	ldrb.w	r3, [r4, #44]	@ 0x2c
 8005552:	2b00      	cmp	r3, #0
 8005554:	f47f af70 	bne.w	8005438 <prvTimerTask+0x84>
 8005558:	4620      	mov	r0, r4
 800555a:	f000 fa6b 	bl	8005a34 <vPortFree>
 800555e:	e76b      	b.n	8005438 <prvTimerTask+0x84>
 8005560:	20002780 	.word	0x20002780
 8005564:	20002778 	.word	0x20002778
 8005568:	2000277c 	.word	0x2000277c

0800556c <prvPortStartFirstTask>:
 800556c:	4808      	ldr	r0, [pc, #32]	@ (8005590 <prvPortStartFirstTask+0x24>)
 800556e:	6800      	ldr	r0, [r0, #0]
 8005570:	6800      	ldr	r0, [r0, #0]
 8005572:	f380 8808 	msr	MSP, r0
 8005576:	f04f 0000 	mov.w	r0, #0
 800557a:	f380 8814 	msr	CONTROL, r0
 800557e:	b662      	cpsie	i
 8005580:	b661      	cpsie	f
 8005582:	f3bf 8f4f 	dsb	sy
 8005586:	f3bf 8f6f 	isb	sy
 800558a:	df00      	svc	0
 800558c:	bf00      	nop
 800558e:	0000      	.short	0x0000
 8005590:	e000ed08 	.word	0xe000ed08

08005594 <vPortEnableVFP>:
 8005594:	f8df 000c 	ldr.w	r0, [pc, #12]	@ 80055a4 <vPortEnableVFP+0x10>
 8005598:	6801      	ldr	r1, [r0, #0]
 800559a:	f441 0170 	orr.w	r1, r1, #15728640	@ 0xf00000
 800559e:	6001      	str	r1, [r0, #0]
 80055a0:	4770      	bx	lr
 80055a2:	0000      	.short	0x0000
 80055a4:	e000ed88 	.word	0xe000ed88

080055a8 <prvTaskExitError>:
 80055a8:	b082      	sub	sp, #8
 80055aa:	2300      	movs	r3, #0
 80055ac:	9301      	str	r3, [sp, #4]
 80055ae:	4b0d      	ldr	r3, [pc, #52]	@ (80055e4 <prvTaskExitError+0x3c>)
 80055b0:	681b      	ldr	r3, [r3, #0]
 80055b2:	3301      	adds	r3, #1
 80055b4:	d008      	beq.n	80055c8 <prvTaskExitError+0x20>
 80055b6:	f04f 0350 	mov.w	r3, #80	@ 0x50
 80055ba:	f383 8811 	msr	BASEPRI, r3
 80055be:	f3bf 8f6f 	isb	sy
 80055c2:	f3bf 8f4f 	dsb	sy
 80055c6:	e7fe      	b.n	80055c6 <prvTaskExitError+0x1e>
 80055c8:	f04f 0350 	mov.w	r3, #80	@ 0x50
 80055cc:	f383 8811 	msr	BASEPRI, r3
 80055d0:	f3bf 8f6f 	isb	sy
 80055d4:	f3bf 8f4f 	dsb	sy
 80055d8:	9b01      	ldr	r3, [sp, #4]
 80055da:	2b00      	cmp	r3, #0
 80055dc:	d0fc      	beq.n	80055d8 <prvTaskExitError+0x30>
 80055de:	b002      	add	sp, #8
 80055e0:	4770      	bx	lr
 80055e2:	bf00      	nop
 80055e4:	2000000c 	.word	0x2000000c

080055e8 <pxPortInitialiseStack>:
 80055e8:	f04f 7380 	mov.w	r3, #16777216	@ 0x1000000
 80055ec:	f840 3c04 	str.w	r3, [r0, #-4]
 80055f0:	4b07      	ldr	r3, [pc, #28]	@ (8005610 <pxPortInitialiseStack+0x28>)
 80055f2:	f840 3c0c 	str.w	r3, [r0, #-12]
 80055f6:	f021 0101 	bic.w	r1, r1, #1
 80055fa:	f06f 0302 	mvn.w	r3, #2
 80055fe:	f840 1c08 	str.w	r1, [r0, #-8]
 8005602:	f840 2c20 	str.w	r2, [r0, #-32]
 8005606:	f840 3c24 	str.w	r3, [r0, #-36]
 800560a:	3844      	subs	r0, #68	@ 0x44
 800560c:	4770      	bx	lr
 800560e:	bf00      	nop
 8005610:	080055a9 	.word	0x080055a9
	...

08005620 <SVC_Handler>:
 8005620:	4b07      	ldr	r3, [pc, #28]	@ (8005640 <pxCurrentTCBConst2>)
 8005622:	6819      	ldr	r1, [r3, #0]
 8005624:	6808      	ldr	r0, [r1, #0]
 8005626:	e8b0 4ff0 	ldmia.w	r0!, {r4, r5, r6, r7, r8, r9, sl, fp, lr}
 800562a:	f380 8809 	msr	PSP, r0
 800562e:	f3bf 8f6f 	isb	sy
 8005632:	f04f 0000 	mov.w	r0, #0
 8005636:	f380 8811 	msr	BASEPRI, r0
 800563a:	4770      	bx	lr
 800563c:	f3af 8000 	nop.w

08005640 <pxCurrentTCBConst2>:
 8005640:	2000267c 	.word	0x2000267c

08005644 <vPortEnterCritical>:
 8005644:	f04f 0350 	mov.w	r3, #80	@ 0x50
 8005648:	f383 8811 	msr	BASEPRI, r3
 800564c:	f3bf 8f6f 	isb	sy
 8005650:	f3bf 8f4f 	dsb	sy
 8005654:	4a0a      	ldr	r2, [pc, #40]	@ (8005680 <vPortEnterCritical+0x3c>)
 8005656:	6813      	ldr	r3, [r2, #0]
 8005658:	3301      	adds	r3, #1
 800565a:	2b01      	cmp	r3, #1
 800565c:	6013      	str	r3, [r2, #0]
 800565e:	d10e      	bne.n	800567e <vPortEnterCritical+0x3a>
 8005660:	f04f 23e0 	mov.w	r3, #3758153728	@ 0xe000e000
 8005664:	f8d3 3d04 	ldr.w	r3, [r3, #3332]	@ 0xd04
 8005668:	b2db      	uxtb	r3, r3
 800566a:	b143      	cbz	r3, 800567e <vPortEnterCritical+0x3a>
 800566c:	f04f 0350 	mov.w	r3, #80	@ 0x50
 8005670:	f383 8811 	msr	BASEPRI, r3
 8005674:	f3bf 8f6f 	isb	sy
 8005678:	f3bf 8f4f 	dsb	sy
 800567c:	e7fe      	b.n	800567c <vPortEnterCritical+0x38>
 800567e:	4770      	bx	lr
 8005680:	2000000c 	.word	0x2000000c

08005684 <vPortExitCritical>:
 8005684:	4a08      	ldr	r2, [pc, #32]	@ (80056a8 <vPortExitCritical+0x24>)
 8005686:	6813      	ldr	r3, [r2, #0]
 8005688:	b943      	cbnz	r3, 800569c <vPortExitCritical+0x18>
 800568a:	f04f 0350 	mov.w	r3, #80	@ 0x50
 800568e:	f383 8811 	msr	BASEPRI, r3
 8005692:	f3bf 8f6f 	isb	sy
 8005696:	f3bf 8f4f 	dsb	sy
 800569a:	e7fe      	b.n	800569a <vPortExitCritical+0x16>
 800569c:	3b01      	subs	r3, #1
 800569e:	6013      	str	r3, [r2, #0]
 80056a0:	b90b      	cbnz	r3, 80056a6 <vPortExitCritical+0x22>
 80056a2:	f383 8811 	msr	BASEPRI, r3
 80056a6:	4770      	bx	lr
 80056a8:	2000000c 	.word	0x2000000c
 80056ac:	00000000 	.word	0x00000000

080056b0 <PendSV_Handler>:
 80056b0:	f3ef 8009 	mrs	r0, PSP
 80056b4:	f3bf 8f6f 	isb	sy
 80056b8:	4b15      	ldr	r3, [pc, #84]	@ (8005710 <pxCurrentTCBConst>)
 80056ba:	681a      	ldr	r2, [r3, #0]
 80056bc:	f01e 0f10 	tst.w	lr, #16
 80056c0:	bf08      	it	eq
 80056c2:	ed20 8a10 	vstmdbeq	r0!, {s16-s31}
 80056c6:	e920 4ff0 	stmdb	r0!, {r4, r5, r6, r7, r8, r9, sl, fp, lr}
 80056ca:	6010      	str	r0, [r2, #0]
 80056cc:	e92d 0009 	stmdb	sp!, {r0, r3}
 80056d0:	f04f 0050 	mov.w	r0, #80	@ 0x50
 80056d4:	f380 8811 	msr	BASEPRI, r0
 80056d8:	f3bf 8f4f 	dsb	sy
 80056dc:	f3bf 8f6f 	isb	sy
 80056e0:	f7ff fb16 	bl	8004d10 <vTaskSwitchContext>
 80056e4:	f04f 0000 	mov.w	r0, #0
 80056e8:	f380 8811 	msr	BASEPRI, r0
 80056ec:	bc09      	pop	{r0, r3}
 80056ee:	6819      	ldr	r1, [r3, #0]
 80056f0:	6808      	ldr	r0, [r1, #0]
 80056f2:	e8b0 4ff0 	ldmia.w	r0!, {r4, r5, r6, r7, r8, r9, sl, fp, lr}
 80056f6:	f01e 0f10 	tst.w	lr, #16
 80056fa:	bf08      	it	eq
 80056fc:	ecb0 8a10 	vldmiaeq	r0!, {s16-s31}
 8005700:	f380 8809 	msr	PSP, r0
 8005704:	f3bf 8f6f 	isb	sy
 8005708:	4770      	bx	lr
 800570a:	bf00      	nop
 800570c:	f3af 8000 	nop.w

08005710 <pxCurrentTCBConst>:
 8005710:	2000267c 	.word	0x2000267c

08005714 <SysTick_Handler>:
 8005714:	b508      	push	{r3, lr}
 8005716:	f04f 0350 	mov.w	r3, #80	@ 0x50
 800571a:	f383 8811 	msr	BASEPRI, r3
 800571e:	f3bf 8f6f 	isb	sy
 8005722:	f3bf 8f4f 	dsb	sy
 8005726:	f7ff f9c5 	bl	8004ab4 <xTaskIncrementTick>
 800572a:	b128      	cbz	r0, 8005738 <SysTick_Handler+0x24>
 800572c:	f04f 23e0 	mov.w	r3, #3758153728	@ 0xe000e000
 8005730:	f04f 5280 	mov.w	r2, #268435456	@ 0x10000000
 8005734:	f8c3 2d04 	str.w	r2, [r3, #3332]	@ 0xd04
 8005738:	2300      	movs	r3, #0
 800573a:	f383 8811 	msr	BASEPRI, r3
 800573e:	bd08      	pop	{r3, pc}

08005740 <vPortSetupTimerInterrupt>:
 8005740:	f04f 22e0 	mov.w	r2, #3758153728	@ 0xe000e000
 8005744:	2300      	movs	r3, #0
 8005746:	6113      	str	r3, [r2, #16]
 8005748:	6193      	str	r3, [r2, #24]
 800574a:	4b05      	ldr	r3, [pc, #20]	@ (8005760 <vPortSetupTimerInterrupt+0x20>)
 800574c:	f44f 717a 	mov.w	r1, #1000	@ 0x3e8
 8005750:	681b      	ldr	r3, [r3, #0]
 8005752:	fbb3 f3f1 	udiv	r3, r3, r1
 8005756:	3b01      	subs	r3, #1
 8005758:	6153      	str	r3, [r2, #20]
 800575a:	2307      	movs	r3, #7
 800575c:	6113      	str	r3, [r2, #16]
 800575e:	4770      	bx	lr
 8005760:	20000000 	.word	0x20000000

08005764 <xPortStartScheduler>:
 8005764:	f04f 23e0 	mov.w	r3, #3758153728	@ 0xe000e000
 8005768:	b537      	push	{r0, r1, r2, r4, r5, lr}
 800576a:	f8d3 1d00 	ldr.w	r1, [r3, #3328]	@ 0xd00
 800576e:	4a38      	ldr	r2, [pc, #224]	@ (8005850 <xPortStartScheduler+0xec>)
 8005770:	4291      	cmp	r1, r2
 8005772:	d108      	bne.n	8005786 <xPortStartScheduler+0x22>
 8005774:	f04f 0350 	mov.w	r3, #80	@ 0x50
 8005778:	f383 8811 	msr	BASEPRI, r3
 800577c:	f3bf 8f6f 	isb	sy
 8005780:	f3bf 8f4f 	dsb	sy
 8005784:	e7fe      	b.n	8005784 <xPortStartScheduler+0x20>
 8005786:	f8d3 2d00 	ldr.w	r2, [r3, #3328]	@ 0xd00
 800578a:	4b32      	ldr	r3, [pc, #200]	@ (8005854 <xPortStartScheduler+0xf0>)
 800578c:	429a      	cmp	r2, r3
 800578e:	d108      	bne.n	80057a2 <xPortStartScheduler+0x3e>
 8005790:	f04f 0350 	mov.w	r3, #80	@ 0x50
 8005794:	f383 8811 	msr	BASEPRI, r3
 8005798:	f3bf 8f6f 	isb	sy
 800579c:	f3bf 8f4f 	dsb	sy
 80057a0:	e7fe      	b.n	80057a0 <xPortStartScheduler+0x3c>
 80057a2:	4b2d      	ldr	r3, [pc, #180]	@ (8005858 <xPortStartScheduler+0xf4>)
 80057a4:	781a      	ldrb	r2, [r3, #0]
 80057a6:	b2d2      	uxtb	r2, r2
 80057a8:	9201      	str	r2, [sp, #4]
 80057aa:	22ff      	movs	r2, #255	@ 0xff
 80057ac:	701a      	strb	r2, [r3, #0]
 80057ae:	781b      	ldrb	r3, [r3, #0]
 80057b0:	4a2a      	ldr	r2, [pc, #168]	@ (800585c <xPortStartScheduler+0xf8>)
 80057b2:	b2db      	uxtb	r3, r3
 80057b4:	f88d 3003 	strb.w	r3, [sp, #3]
 80057b8:	f89d 3003 	ldrb.w	r3, [sp, #3]
 80057bc:	f003 0350 	and.w	r3, r3, #80	@ 0x50
 80057c0:	7013      	strb	r3, [r2, #0]
 80057c2:	4a27      	ldr	r2, [pc, #156]	@ (8005860 <xPortStartScheduler+0xfc>)
 80057c4:	2307      	movs	r3, #7
 80057c6:	6013      	str	r3, [r2, #0]
 80057c8:	f89d 1003 	ldrb.w	r1, [sp, #3]
 80057cc:	6813      	ldr	r3, [r2, #0]
 80057ce:	0609      	lsls	r1, r1, #24
 80057d0:	d40a      	bmi.n	80057e8 <xPortStartScheduler+0x84>
 80057d2:	2b03      	cmp	r3, #3
 80057d4:	d011      	beq.n	80057fa <xPortStartScheduler+0x96>
 80057d6:	f04f 0350 	mov.w	r3, #80	@ 0x50
 80057da:	f383 8811 	msr	BASEPRI, r3
 80057de:	f3bf 8f6f 	isb	sy
 80057e2:	f3bf 8f4f 	dsb	sy
 80057e6:	e7fe      	b.n	80057e6 <xPortStartScheduler+0x82>
 80057e8:	3b01      	subs	r3, #1
 80057ea:	6013      	str	r3, [r2, #0]
 80057ec:	f89d 3003 	ldrb.w	r3, [sp, #3]
 80057f0:	005b      	lsls	r3, r3, #1
 80057f2:	b2db      	uxtb	r3, r3
 80057f4:	f88d 3003 	strb.w	r3, [sp, #3]
 80057f8:	e7e6      	b.n	80057c8 <xPortStartScheduler+0x64>
 80057fa:	f44f 7340 	mov.w	r3, #768	@ 0x300
 80057fe:	6013      	str	r3, [r2, #0]
 8005800:	9b01      	ldr	r3, [sp, #4]
 8005802:	4a15      	ldr	r2, [pc, #84]	@ (8005858 <xPortStartScheduler+0xf4>)
 8005804:	f04f 24e0 	mov.w	r4, #3758153728	@ 0xe000e000
 8005808:	b2db      	uxtb	r3, r3
 800580a:	7013      	strb	r3, [r2, #0]
 800580c:	f8d4 3d20 	ldr.w	r3, [r4, #3360]	@ 0xd20
 8005810:	f443 0370 	orr.w	r3, r3, #15728640	@ 0xf00000
 8005814:	f8c4 3d20 	str.w	r3, [r4, #3360]	@ 0xd20
 8005818:	f8d4 3d20 	ldr.w	r3, [r4, #3360]	@ 0xd20
 800581c:	f043 4370 	orr.w	r3, r3, #4026531840	@ 0xf0000000
 8005820:	f8c4 3d20 	str.w	r3, [r4, #3360]	@ 0xd20
 8005824:	f7ff ff8c 	bl	8005740 <vPortSetupTimerInterrupt>
 8005828:	4b0e      	ldr	r3, [pc, #56]	@ (8005864 <xPortStartScheduler+0x100>)
 800582a:	2500      	movs	r5, #0
 800582c:	601d      	str	r5, [r3, #0]
 800582e:	f7ff feb1 	bl	8005594 <vPortEnableVFP>
 8005832:	f8d4 3f34 	ldr.w	r3, [r4, #3892]	@ 0xf34
 8005836:	f043 4340 	orr.w	r3, r3, #3221225472	@ 0xc0000000
 800583a:	f8c4 3f34 	str.w	r3, [r4, #3892]	@ 0xf34
 800583e:	f7ff fe95 	bl	800556c <prvPortStartFirstTask>
 8005842:	f7ff fa65 	bl	8004d10 <vTaskSwitchContext>
 8005846:	f7ff feaf 	bl	80055a8 <prvTaskExitError>
 800584a:	4628      	mov	r0, r5
 800584c:	b003      	add	sp, #12
 800584e:	bd30      	pop	{r4, r5, pc}
 8005850:	410fc271 	.word	0x410fc271
 8005854:	410fc270 	.word	0x410fc270
 8005858:	e000e400 	.word	0xe000e400
 800585c:	200027b0 	.word	0x200027b0
 8005860:	200027ac 	.word	0x200027ac
 8005864:	2000000c 	.word	0x2000000c

08005868 <vPortValidateInterruptPriority>:
 8005868:	f3ef 8305 	mrs	r3, IPSR
 800586c:	2b0f      	cmp	r3, #15
 800586e:	d90e      	bls.n	800588e <vPortValidateInterruptPriority+0x26>
 8005870:	4a11      	ldr	r2, [pc, #68]	@ (80058b8 <vPortValidateInterruptPriority+0x50>)
 8005872:	5c9b      	ldrb	r3, [r3, r2]
 8005874:	4a11      	ldr	r2, [pc, #68]	@ (80058bc <vPortValidateInterruptPriority+0x54>)
 8005876:	7812      	ldrb	r2, [r2, #0]
 8005878:	429a      	cmp	r2, r3
 800587a:	d908      	bls.n	800588e <vPortValidateInterruptPriority+0x26>
 800587c:	f04f 0350 	mov.w	r3, #80	@ 0x50
 8005880:	f383 8811 	msr	BASEPRI, r3
 8005884:	f3bf 8f6f 	isb	sy
 8005888:	f3bf 8f4f 	dsb	sy
 800588c:	e7fe      	b.n	800588c <vPortValidateInterruptPriority+0x24>
 800588e:	f04f 23e0 	mov.w	r3, #3758153728	@ 0xe000e000
 8005892:	4a0b      	ldr	r2, [pc, #44]	@ (80058c0 <vPortValidateInterruptPriority+0x58>)
 8005894:	f8d3 3d0c 	ldr.w	r3, [r3, #3340]	@ 0xd0c
 8005898:	6812      	ldr	r2, [r2, #0]
 800589a:	f403 63e0 	and.w	r3, r3, #1792	@ 0x700
 800589e:	4293      	cmp	r3, r2
 80058a0:	d908      	bls.n	80058b4 <vPortValidateInterruptPriority+0x4c>
 80058a2:	f04f 0350 	mov.w	r3, #80	@ 0x50
 80058a6:	f383 8811 	msr	BASEPRI, r3
 80058aa:	f3bf 8f6f 	isb	sy
 80058ae:	f3bf 8f4f 	dsb	sy
 80058b2:	e7fe      	b.n	80058b2 <vPortValidateInterruptPriority+0x4a>
 80058b4:	4770      	bx	lr
 80058b6:	bf00      	nop
 80058b8:	e000e3f0 	.word	0xe000e3f0
 80058bc:	200027b0 	.word	0x200027b0
 80058c0:	200027ac 	.word	0x200027ac

080058c4 <prvInsertBlockIntoFreeList>:
 80058c4:	b510      	push	{r4, lr}
 80058c6:	4b10      	ldr	r3, [pc, #64]	@ (8005908 <prvInsertBlockIntoFreeList+0x44>)
 80058c8:	461a      	mov	r2, r3
 80058ca:	681b      	ldr	r3, [r3, #0]
 80058cc:	4283      	cmp	r3, r0
 80058ce:	d3fb      	bcc.n	80058c8 <prvInsertBlockIntoFreeList+0x4>
 80058d0:	6854      	ldr	r4, [r2, #4]
 80058d2:	1911      	adds	r1, r2, r4
 80058d4:	4288      	cmp	r0, r1
 80058d6:	bf01      	itttt	eq
 80058d8:	6841      	ldreq	r1, [r0, #4]
 80058da:	4610      	moveq	r0, r2
 80058dc:	1909      	addeq	r1, r1, r4
 80058de:	6051      	streq	r1, [r2, #4]
 80058e0:	6844      	ldr	r4, [r0, #4]
 80058e2:	1901      	adds	r1, r0, r4
 80058e4:	428b      	cmp	r3, r1
 80058e6:	d10c      	bne.n	8005902 <prvInsertBlockIntoFreeList+0x3e>
 80058e8:	4908      	ldr	r1, [pc, #32]	@ (800590c <prvInsertBlockIntoFreeList+0x48>)
 80058ea:	6809      	ldr	r1, [r1, #0]
 80058ec:	428b      	cmp	r3, r1
 80058ee:	d003      	beq.n	80058f8 <prvInsertBlockIntoFreeList+0x34>
 80058f0:	6859      	ldr	r1, [r3, #4]
 80058f2:	4421      	add	r1, r4
 80058f4:	6041      	str	r1, [r0, #4]
 80058f6:	6819      	ldr	r1, [r3, #0]
 80058f8:	6001      	str	r1, [r0, #0]
 80058fa:	4290      	cmp	r0, r2
 80058fc:	bf18      	it	ne
 80058fe:	6010      	strne	r0, [r2, #0]
 8005900:	bd10      	pop	{r4, pc}
 8005902:	4619      	mov	r1, r3
 8005904:	e7f8      	b.n	80058f8 <prvInsertBlockIntoFreeList+0x34>
 8005906:	bf00      	nop
 8005908:	200027c4 	.word	0x200027c4
 800590c:	200027c0 	.word	0x200027c0

08005910 <pvPortMalloc>:
 8005910:	e92d 41f0 	stmdb	sp!, {r4, r5, r6, r7, r8, lr}
 8005914:	4604      	mov	r4, r0
 8005916:	f7ff f8bf 	bl	8004a98 <vTaskSuspendAll>
 800591a:	4940      	ldr	r1, [pc, #256]	@ (8005a1c <pvPortMalloc+0x10c>)
 800591c:	4d40      	ldr	r5, [pc, #256]	@ (8005a20 <pvPortMalloc+0x110>)
 800591e:	680b      	ldr	r3, [r1, #0]
 8005920:	bb0b      	cbnz	r3, 8005966 <pvPortMalloc+0x56>
 8005922:	4a40      	ldr	r2, [pc, #256]	@ (8005a24 <pvPortMalloc+0x114>)
 8005924:	0756      	lsls	r6, r2, #29
 8005926:	bf1f      	itttt	ne
 8005928:	1dd0      	addne	r0, r2, #7
 800592a:	f020 0007 	bicne.w	r0, r0, #7
 800592e:	f502 42a0 	addne.w	r2, r2, #20480	@ 0x5000
 8005932:	1a13      	subne	r3, r2, r0
 8005934:	bf0c      	ite	eq
 8005936:	f44f 43a0 	moveq.w	r3, #20480	@ 0x5000
 800593a:	4602      	movne	r2, r0
 800593c:	4413      	add	r3, r2
 800593e:	4e3a      	ldr	r6, [pc, #232]	@ (8005a28 <pvPortMalloc+0x118>)
 8005940:	3b08      	subs	r3, #8
 8005942:	f023 0307 	bic.w	r3, r3, #7
 8005946:	2000      	movs	r0, #0
 8005948:	6070      	str	r0, [r6, #4]
 800594a:	6032      	str	r2, [r6, #0]
 800594c:	e9c3 0000 	strd	r0, r0, [r3]
 8005950:	1a98      	subs	r0, r3, r2
 8005952:	e9c2 3000 	strd	r3, r0, [r2]
 8005956:	600b      	str	r3, [r1, #0]
 8005958:	4b34      	ldr	r3, [pc, #208]	@ (8005a2c <pvPortMalloc+0x11c>)
 800595a:	6018      	str	r0, [r3, #0]
 800595c:	4b34      	ldr	r3, [pc, #208]	@ (8005a30 <pvPortMalloc+0x120>)
 800595e:	6018      	str	r0, [r3, #0]
 8005960:	f04f 4300 	mov.w	r3, #2147483648	@ 0x80000000
 8005964:	602b      	str	r3, [r5, #0]
 8005966:	682e      	ldr	r6, [r5, #0]
 8005968:	4226      	tst	r6, r4
 800596a:	d152      	bne.n	8005a12 <pvPortMalloc+0x102>
 800596c:	2c00      	cmp	r4, #0
 800596e:	d043      	beq.n	80059f8 <pvPortMalloc+0xe8>
 8005970:	f104 0308 	add.w	r3, r4, #8
 8005974:	0760      	lsls	r0, r4, #29
 8005976:	bf1c      	itt	ne
 8005978:	f023 0307 	bicne.w	r3, r3, #7
 800597c:	3308      	addne	r3, #8
 800597e:	2b00      	cmp	r3, #0
 8005980:	d047      	beq.n	8005a12 <pvPortMalloc+0x102>
 8005982:	4f2b      	ldr	r7, [pc, #172]	@ (8005a30 <pvPortMalloc+0x120>)
 8005984:	683c      	ldr	r4, [r7, #0]
 8005986:	429c      	cmp	r4, r3
 8005988:	d343      	bcc.n	8005a12 <pvPortMalloc+0x102>
 800598a:	4a27      	ldr	r2, [pc, #156]	@ (8005a28 <pvPortMalloc+0x118>)
 800598c:	6815      	ldr	r5, [r2, #0]
 800598e:	6868      	ldr	r0, [r5, #4]
 8005990:	4298      	cmp	r0, r3
 8005992:	d204      	bcs.n	800599e <pvPortMalloc+0x8e>
 8005994:	f8d5 c000 	ldr.w	ip, [r5]
 8005998:	f1bc 0f00 	cmp.w	ip, #0
 800599c:	d115      	bne.n	80059ca <pvPortMalloc+0xba>
 800599e:	6809      	ldr	r1, [r1, #0]
 80059a0:	42a9      	cmp	r1, r5
 80059a2:	d036      	beq.n	8005a12 <pvPortMalloc+0x102>
 80059a4:	6829      	ldr	r1, [r5, #0]
 80059a6:	f8d2 8000 	ldr.w	r8, [r2]
 80059aa:	6011      	str	r1, [r2, #0]
 80059ac:	1ac2      	subs	r2, r0, r3
 80059ae:	2a10      	cmp	r2, #16
 80059b0:	d912      	bls.n	80059d8 <pvPortMalloc+0xc8>
 80059b2:	18e8      	adds	r0, r5, r3
 80059b4:	0741      	lsls	r1, r0, #29
 80059b6:	d00b      	beq.n	80059d0 <pvPortMalloc+0xc0>
 80059b8:	f04f 0350 	mov.w	r3, #80	@ 0x50
 80059bc:	f383 8811 	msr	BASEPRI, r3
 80059c0:	f3bf 8f6f 	isb	sy
 80059c4:	f3bf 8f4f 	dsb	sy
 80059c8:	e7fe      	b.n	80059c8 <pvPortMalloc+0xb8>
 80059ca:	462a      	mov	r2, r5
 80059cc:	4665      	mov	r5, ip
 80059ce:	e7de      	b.n	800598e <pvPortMalloc+0x7e>
 80059d0:	6042      	str	r2, [r0, #4]
 80059d2:	606b      	str	r3, [r5, #4]
 80059d4:	f7ff ff76 	bl	80058c4 <prvInsertBlockIntoFreeList>
 80059d8:	4914      	ldr	r1, [pc, #80]	@ (8005a2c <pvPortMalloc+0x11c>)
 80059da:	686a      	ldr	r2, [r5, #4]
 80059dc:	6808      	ldr	r0, [r1, #0]
 80059de:	1aa4      	subs	r4, r4, r2
 80059e0:	4284      	cmp	r4, r0
 80059e2:	ea46 0602 	orr.w	r6, r6, r2
 80059e6:	f04f 0300 	mov.w	r3, #0
 80059ea:	603c      	str	r4, [r7, #0]
 80059ec:	bf38      	it	cc
 80059ee:	600c      	strcc	r4, [r1, #0]
 80059f0:	606e      	str	r6, [r5, #4]
 80059f2:	f108 0408 	add.w	r4, r8, #8
 80059f6:	602b      	str	r3, [r5, #0]
 80059f8:	f7ff f8f2 	bl	8004be0 <xTaskResumeAll>
 80059fc:	0763      	lsls	r3, r4, #29
 80059fe:	d00a      	beq.n	8005a16 <pvPortMalloc+0x106>
 8005a00:	f04f 0350 	mov.w	r3, #80	@ 0x50
 8005a04:	f383 8811 	msr	BASEPRI, r3
 8005a08:	f3bf 8f6f 	isb	sy
 8005a0c:	f3bf 8f4f 	dsb	sy
 8005a10:	e7fe      	b.n	8005a10 <pvPortMalloc+0x100>
 8005a12:	2400      	movs	r4, #0
 8005a14:	e7f0      	b.n	80059f8 <pvPortMalloc+0xe8>
 8005a16:	4620      	mov	r0, r4
 8005a18:	e8bd 81f0 	ldmia.w	sp!, {r4, r5, r6, r7, r8, pc}
 8005a1c:	200027c0 	.word	0x200027c0
 8005a20:	200027b4 	.word	0x200027b4
 8005a24:	200027cc 	.word	0x200027cc
 8005a28:	200027c4 	.word	0x200027c4
 8005a2c:	200027b8 	.word	0x200027b8
 8005a30:	200027bc 	.word	0x200027bc

08005a34 <vPortFree>:
 8005a34:	b510      	push	{r4, lr}
 8005a36:	4604      	mov	r4, r0
 8005a38:	b370      	cbz	r0, 8005a98 <vPortFree+0x64>
 8005a3a:	4a18      	ldr	r2, [pc, #96]	@ (8005a9c <vPortFree+0x68>)
 8005a3c:	f850 3c04 	ldr.w	r3, [r0, #-4]
 8005a40:	6812      	ldr	r2, [r2, #0]
 8005a42:	4213      	tst	r3, r2
 8005a44:	d108      	bne.n	8005a58 <vPortFree+0x24>
 8005a46:	f04f 0350 	mov.w	r3, #80	@ 0x50
 8005a4a:	f383 8811 	msr	BASEPRI, r3
 8005a4e:	f3bf 8f6f 	isb	sy
 8005a52:	f3bf 8f4f 	dsb	sy
 8005a56:	e7fe      	b.n	8005a56 <vPortFree+0x22>
 8005a58:	f850 1c08 	ldr.w	r1, [r0, #-8]
 8005a5c:	b141      	cbz	r1, 8005a70 <vPortFree+0x3c>
 8005a5e:	f04f 0350 	mov.w	r3, #80	@ 0x50
 8005a62:	f383 8811 	msr	BASEPRI, r3
 8005a66:	f3bf 8f6f 	isb	sy
 8005a6a:	f3bf 8f4f 	dsb	sy
 8005a6e:	e7fe      	b.n	8005a6e <vPortFree+0x3a>
 8005a70:	ea23 0302 	bic.w	r3, r3, r2
 8005a74:	f840 3c04 	str.w	r3, [r0, #-4]
 8005a78:	f7ff f80e 	bl	8004a98 <vTaskSuspendAll>
 8005a7c:	4a08      	ldr	r2, [pc, #32]	@ (8005aa0 <vPortFree+0x6c>)
 8005a7e:	f854 3c04 	ldr.w	r3, [r4, #-4]
 8005a82:	6811      	ldr	r1, [r2, #0]
 8005a84:	f1a4 0008 	sub.w	r0, r4, #8
 8005a88:	440b      	add	r3, r1
 8005a8a:	6013      	str	r3, [r2, #0]
 8005a8c:	f7ff ff1a 	bl	80058c4 <prvInsertBlockIntoFreeList>
 8005a90:	e8bd 4010 	ldmia.w	sp!, {r4, lr}
 8005a94:	f7ff b8a4 	b.w	8004be0 <xTaskResumeAll>
 8005a98:	bd10      	pop	{r4, pc}
 8005a9a:	bf00      	nop
 8005a9c:	200027b4 	.word	0x200027b4
 8005aa0:	200027bc 	.word	0x200027bc

08005aa4 <memset>:
 8005aa4:	4402      	add	r2, r0
 8005aa6:	4603      	mov	r3, r0
 8005aa8:	4293      	cmp	r3, r2
 8005aaa:	d100      	bne.n	8005aae <memset+0xa>
 8005aac:	4770      	bx	lr
 8005aae:	f803 1b01 	strb.w	r1, [r3], #1
 8005ab2:	e7f9      	b.n	8005aa8 <memset+0x4>

08005ab4 <__libc_init_array>:
 8005ab4:	b570      	push	{r4, r5, r6, lr}
 8005ab6:	4d0d      	ldr	r5, [pc, #52]	@ (8005aec <__libc_init_array+0x38>)
 8005ab8:	4c0d      	ldr	r4, [pc, #52]	@ (8005af0 <__libc_init_array+0x3c>)
 8005aba:	1b64      	subs	r4, r4, r5
 8005abc:	10a4      	asrs	r4, r4, #2
 8005abe:	2600      	movs	r6, #0
 8005ac0:	42a6      	cmp	r6, r4
 8005ac2:	d109      	bne.n	8005ad8 <__libc_init_array+0x24>
 8005ac4:	4d0b      	ldr	r5, [pc, #44]	@ (8005af4 <__libc_init_array+0x40>)
 8005ac6:	4c0c      	ldr	r4, [pc, #48]	@ (8005af8 <__libc_init_array+0x44>)
 8005ac8:	f000 f826 	bl	8005b18 <_init>
 8005acc:	1b64      	subs	r4, r4, r5
 8005ace:	10a4      	asrs	r4, r4, #2
 8005ad0:	2600      	movs	r6, #0
 8005ad2:	42a6      	cmp	r6, r4
 8005ad4:	d105      	bne.n	8005ae2 <__libc_init_array+0x2e>
 8005ad6:	bd70      	pop	{r4, r5, r6, pc}
 8005ad8:	f855 3b04 	ldr.w	r3, [r5], #4
 8005adc:	4798      	blx	r3
 8005ade:	3601      	adds	r6, #1
 8005ae0:	e7ee      	b.n	8005ac0 <__libc_init_array+0xc>
 8005ae2:	f855 3b04 	ldr.w	r3, [r5], #4
 8005ae6:	4798      	blx	r3
 8005ae8:	3601      	adds	r6, #1
 8005aea:	e7f2      	b.n	8005ad2 <__libc_init_array+0x1e>
 8005aec:	08005bb4 	.word	0x08005bb4
 8005af0:	08005bb4 	.word	0x08005bb4
 8005af4:	08005bb4 	.word	0x08005bb4
 8005af8:	08005bb8 	.word	0x08005bb8

08005afc <memcpy>:
 8005afc:	440a      	add	r2, r1
 8005afe:	4291      	cmp	r1, r2
 8005b00:	f100 33ff 	add.w	r3, r0, #4294967295	@ 0xffffffff
 8005b04:	d100      	bne.n	8005b08 <memcpy+0xc>
 8005b06:	4770      	bx	lr
 8005b08:	b510      	push	{r4, lr}
 8005b0a:	f811 4b01 	ldrb.w	r4, [r1], #1
 8005b0e:	f803 4f01 	strb.w	r4, [r3, #1]!
 8005b12:	4291      	cmp	r1, r2
 8005b14:	d1f9      	bne.n	8005b0a <memcpy+0xe>
 8005b16:	bd10      	pop	{r4, pc}

08005b18 <_init>:
 8005b18:	b5f8      	push	{r3, r4, r5, r6, r7, lr}
 8005b1a:	bf00      	nop
 8005b1c:	bcf8      	pop	{r3, r4, r5, r6, r7}
 8005b1e:	bc08      	pop	{r3}
 8005b20:	469e      	mov	lr, r3
 8005b22:	4770      	bx	lr

08005b24 <_fini>:
 8005b24:	b5f8      	push	{r3, r4, r5, r6, r7, lr}
 8005b26:	bf00      	nop
 8005b28:	bcf8      	pop	{r3, r4, r5, r6, r7}
 8005b2a:	bc08      	pop	{r3}
 8005b2c:	469e      	mov	lr, r3
 8005b2e:	4770      	bx	lr
